
========================================================================

** ELF Header Information

    File Name: D:\fpga\ac208\workspace\cm3\led\Objects\led.axf

    Machine class: ELFCLASS32 (32-bit)
    Data encoding: ELFDATA2LSB (Little endian)
    Header version: EV_CURRENT (Current version)
    Operating System ABI: none
    ABI Version: 0
    File Type: ET_EXEC (Executable) (2)
    Machine: EM_ARM (ARM)

    Image Entry point: 0x00000141
    Flags: EF_ARM_HASENTRY + EF_ARM_ABI_FLOAT_SOFT (0x05000202)

    ARM ELF revision: 5 (ABI version 2)

    Conforms to Soft float procedure-call standard

    Built with
    Component: ARM Compiler 5.06 update 7 (build 960) Tool: armasm [4d35fa]
    Component: ARM Compiler 5.06 update 7 (build 960) Tool: armlink [4d3601]

    Header size: 52 bytes (0x34)
    Program header entry size: 32 bytes (0x20)
    Section header entry size: 40 bytes (0x28)

    Program header entries: 1
    Section header entries: 16

    Program header offset: 139084 (0x00021f4c)
    Section header offset: 139116 (0x00021f6c)

    Section header string table index: 15

========================================================================

** Program header #0 (PT_LOAD) [PF_X + PF_W + PF_R + PF_ARM_ENTRY]
    Size : 11328 bytes (6432 bytes in file)
    Virtual address: 0x00000000 (Alignment 8)


========================================================================

** Section #1 'ER_IROM1' (SHT_PROGBITS) [SHF_ALLOC + SHF_EXECINSTR]
    Size   : 6304 bytes (alignment 4)
    Address: 0x00000000

    $d.realdata
    RESET
    __Vectors
        0x00000000:    200013a0    ...     DCD    536875936
        0x00000004:    000001dd    ....    DCD    477
        0x00000008:    000001e5    ....    DCD    485
        0x0000000c:    000001e7    ....    DCD    487
        0x00000010:    000001e9    ....    DCD    489
        0x00000014:    000001eb    ....    DCD    491
        0x00000018:    000001ed    ....    DCD    493
        0x0000001c:    00000000    ....    DCD    0
        0x00000020:    00000000    ....    DCD    0
        0x00000024:    00000000    ....    DCD    0
        0x00000028:    00000000    ....    DCD    0
        0x0000002c:    000001ef    ....    DCD    495
        0x00000030:    000001f1    ....    DCD    497
        0x00000034:    00000000    ....    DCD    0
        0x00000038:    000001f3    ....    DCD    499
        0x0000003c:    000009ad    ....    DCD    2477
        0x00000040:    000009cd    ....    DCD    2509
        0x00000044:    000001f7    ....    DCD    503
        0x00000048:    000001f7    ....    DCD    503
        0x0000004c:    000001f7    ....    DCD    503
        0x00000050:    000001f7    ....    DCD    503
        0x00000054:    000001f7    ....    DCD    503
        0x00000058:    000001f7    ....    DCD    503
        0x0000005c:    000001f7    ....    DCD    503
        0x00000060:    000001f7    ....    DCD    503
        0x00000064:    000001f7    ....    DCD    503
        0x00000068:    000001f7    ....    DCD    503
        0x0000006c:    000001f7    ....    DCD    503
        0x00000070:    000001f7    ....    DCD    503
        0x00000074:    000001f7    ....    DCD    503
        0x00000078:    000001f7    ....    DCD    503
        0x0000007c:    000001f7    ....    DCD    503
        0x00000080:    000001f7    ....    DCD    503
        0x00000084:    000001f7    ....    DCD    503
        0x00000088:    000001f7    ....    DCD    503
        0x0000008c:    000001f7    ....    DCD    503
        0x00000090:    000001f7    ....    DCD    503
        0x00000094:    000001f7    ....    DCD    503
        0x00000098:    000001f7    ....    DCD    503
        0x0000009c:    000001f7    ....    DCD    503
        0x000000a0:    000001f7    ....    DCD    503
        0x000000a4:    000001f7    ....    DCD    503
        0x000000a8:    000001f7    ....    DCD    503
        0x000000ac:    000001f7    ....    DCD    503
        0x000000b0:    000001f7    ....    DCD    503
        0x000000b4:    000001f7    ....    DCD    503
        0x000000b8:    000001f7    ....    DCD    503
        0x000000bc:    000001f7    ....    DCD    503
        0x000000c0:    000001f7    ....    DCD    503
        0x000000c4:    000001f7    ....    DCD    503
        0x000000c8:    000001f7    ....    DCD    503
        0x000000cc:    000001f7    ....    DCD    503
        0x000000d0:    000001f7    ....    DCD    503
        0x000000d4:    000001f7    ....    DCD    503
        0x000000d8:    000001f7    ....    DCD    503
        0x000000dc:    000001f7    ....    DCD    503
        0x000000e0:    000001f7    ....    DCD    503
        0x000000e4:    000001f7    ....    DCD    503
        0x000000e8:    000001f7    ....    DCD    503
        0x000000ec:    000001f7    ....    DCD    503
        0x000000f0:    000001f7    ....    DCD    503
        0x000000f4:    000001f7    ....    DCD    503
        0x000000f8:    000001f7    ....    DCD    503
        0x000000fc:    000001f7    ....    DCD    503
        0x00000100:    000001f7    ....    DCD    503
        0x00000104:    000001f7    ....    DCD    503
        0x00000108:    000001f7    ....    DCD    503
        0x0000010c:    000001f7    ....    DCD    503
        0x00000110:    000001f7    ....    DCD    503
        0x00000114:    000001f7    ....    DCD    503
        0x00000118:    000001f7    ....    DCD    503
        0x0000011c:    000001f7    ....    DCD    503
        0x00000120:    000001f7    ....    DCD    503
        0x00000124:    000001f7    ....    DCD    503
        0x00000128:    000001f7    ....    DCD    503
        0x0000012c:    000001f7    ....    DCD    503
        0x00000130:    000001f7    ....    DCD    503
        0x00000134:    000001f7    ....    DCD    503
        0x00000138:    000001f7    ....    DCD    503
        0x0000013c:    000001f7    ....    DCD    503
    $t
    !!!main
    __Vectors_End
    __main
        0x00000140:    f000f802    ....    BL       __scatterload ; 0x148
        0x00000144:    f000f83a    ..:.    BL       __rt_entry ; 0x1bc
    !!!scatter
    __scatterload
    __scatterload_rt2
    __scatterload_rt2_thumb_only
        0x00000148:    a00a        ..      ADR      r0,{pc}+0x2c ; 0x174
        0x0000014a:    e8900c00    ....    LDM      r0,{r10,r11}
        0x0000014e:    4482        .D      ADD      r10,r10,r0
        0x00000150:    4483        .D      ADD      r11,r11,r0
        0x00000152:    f1aa0701    ....    SUB      r7,r10,#1
    __scatterload_null
        0x00000156:    45da        .E      CMP      r10,r11
        0x00000158:    d101        ..      BNE      0x15e ; __scatterload_null + 8
        0x0000015a:    f000f82f    ../.    BL       __rt_entry ; 0x1bc
        0x0000015e:    f2af0e09    ....    ADR      lr,{pc}-7 ; 0x157
        0x00000162:    e8ba000f    ....    LDM      r10!,{r0-r3}
        0x00000166:    f0130f01    ....    TST      r3,#1
        0x0000016a:    bf18        ..      IT       NE
        0x0000016c:    1afb        ..      SUBNE    r3,r7,r3
        0x0000016e:    f0430301    C...    ORR      r3,r3,#1
        0x00000172:    4718        .G      BX       r3
    $d
        0x00000174:    0000170c    ....    DCD    5900
        0x00000178:    0000172c    ,...    DCD    5932
    $t
    !!handler_copy
    __scatterload_copy
        0x0000017c:    3a10        .:      SUBS     r2,r2,#0x10
        0x0000017e:    bf24        $.      ITT      CS
        0x00000180:    c878        x.      LDMCS    r0!,{r3-r6}
        0x00000182:    c178        x.      STMCS    r1!,{r3-r6}
        0x00000184:    d8fa        ..      BHI      __scatterload_copy ; 0x17c
        0x00000186:    0752        R.      LSLS     r2,r2,#29
        0x00000188:    bf24        $.      ITT      CS
        0x0000018a:    c830        0.      LDMCS    r0!,{r4,r5}
        0x0000018c:    c130        0.      STMCS    r1!,{r4,r5}
        0x0000018e:    bf44        D.      ITT      MI
        0x00000190:    6804        .h      LDRMI    r4,[r0,#0]
        0x00000192:    600c        .`      STRMI    r4,[r1,#0]
        0x00000194:    4770        pG      BX       lr
        0x00000196:    0000        ..      MOVS     r0,r0
    !!handler_zi
    __scatterload_zeroinit
        0x00000198:    2300        .#      MOVS     r3,#0
        0x0000019a:    2400        .$      MOVS     r4,#0
        0x0000019c:    2500        .%      MOVS     r5,#0
        0x0000019e:    2600        .&      MOVS     r6,#0
        0x000001a0:    3a10        .:      SUBS     r2,r2,#0x10
        0x000001a2:    bf28        (.      IT       CS
        0x000001a4:    c178        x.      STMCS    r1!,{r3-r6}
        0x000001a6:    d8fb        ..      BHI      0x1a0 ; __scatterload_zeroinit + 8
        0x000001a8:    0752        R.      LSLS     r2,r2,#29
        0x000001aa:    bf28        (.      IT       CS
        0x000001ac:    c130        0.      STMCS    r1!,{r4,r5}
        0x000001ae:    bf48        H.      IT       MI
        0x000001b0:    600b        .`      STRMI    r3,[r1,#0]
        0x000001b2:    4770        pG      BX       lr
    .ARM.Collect$$libinit$$00000000
    __rt_lib_init
        0x000001b4:    b51f        ..      PUSH     {r0-r4,lr}
    .ARM.Collect$$libinit$$00000002
    .ARM.Collect$$libinit$$00000004
    .ARM.Collect$$libinit$$0000000A
    .ARM.Collect$$libinit$$0000000C
    .ARM.Collect$$libinit$$0000000E
    .ARM.Collect$$libinit$$00000011
    .ARM.Collect$$libinit$$00000013
    .ARM.Collect$$libinit$$00000015
    .ARM.Collect$$libinit$$00000017
    .ARM.Collect$$libinit$$00000019
    .ARM.Collect$$libinit$$0000001B
    .ARM.Collect$$libinit$$0000001D
    .ARM.Collect$$libinit$$0000001F
    .ARM.Collect$$libinit$$00000021
    .ARM.Collect$$libinit$$00000023
    .ARM.Collect$$libinit$$00000025
    .ARM.Collect$$libinit$$0000002C
    .ARM.Collect$$libinit$$0000002E
    .ARM.Collect$$libinit$$00000030
    .ARM.Collect$$libinit$$00000032
    .ARM.Collect$$libinit$$00000033
    __rt_lib_init_alloca_1
    __rt_lib_init_argv_1
    __rt_lib_init_atexit_1
    __rt_lib_init_clock_1
    __rt_lib_init_cpp_1
    __rt_lib_init_exceptions_1
    __rt_lib_init_fp_1
    __rt_lib_init_fp_trap_1
    __rt_lib_init_getenv_1
    __rt_lib_init_heap_1
    __rt_lib_init_lc_collate_1
    __rt_lib_init_lc_ctype_1
    __rt_lib_init_lc_monetary_1
    __rt_lib_init_lc_numeric_1
    __rt_lib_init_lc_time_1
    __rt_lib_init_preinit_1
    __rt_lib_init_rand_1
    __rt_lib_init_return
    __rt_lib_init_signal_1
    __rt_lib_init_stdio_1
    __rt_lib_init_user_alloc_1
        0x000001b6:    bd1f        ..      POP      {r0-r4,pc}
    .ARM.Collect$$libshutdown$$00000000
    __rt_lib_shutdown
        0x000001b8:    b510        ..      PUSH     {r4,lr}
    .ARM.Collect$$libshutdown$$00000002
    .ARM.Collect$$libshutdown$$00000004
    .ARM.Collect$$libshutdown$$00000006
    .ARM.Collect$$libshutdown$$00000009
    .ARM.Collect$$libshutdown$$0000000C
    .ARM.Collect$$libshutdown$$0000000E
    .ARM.Collect$$libshutdown$$00000011
    .ARM.Collect$$libshutdown$$00000012
    __rt_lib_shutdown_cpp_1
    __rt_lib_shutdown_fini_1
    __rt_lib_shutdown_fp_trap_1
    __rt_lib_shutdown_heap_1
    __rt_lib_shutdown_return
    __rt_lib_shutdown_signal_1
    __rt_lib_shutdown_stdio_1
    __rt_lib_shutdown_user_alloc_1
        0x000001ba:    bd10        ..      POP      {r4,pc}
    .ARM.Collect$$rtentry$$00000000
    .ARM.Collect$$rtentry$$00000002
    .ARM.Collect$$rtentry$$00000004
    __rt_entry
    __rt_entry_presh_1
    __rt_entry_sh
        0x000001bc:    f000f831    ..1.    BL       __user_setup_stackheap ; 0x222
        0x000001c0:    4611        .F      MOV      r1,r2
    .ARM.Collect$$rtentry$$00000009
    .ARM.Collect$$rtentry$$0000000A
    __rt_entry_li
    __rt_entry_postsh_1
        0x000001c2:    f7fffff7    ....    BL       __rt_lib_init ; 0x1b4
    .ARM.Collect$$rtentry$$0000000C
    .ARM.Collect$$rtentry$$0000000D
    __rt_entry_main
    __rt_entry_postli_1
        0x000001c6:    f000fd5d    ..].    BL       main ; 0xc84
        0x000001ca:    f000f84f    ..O.    BL       exit ; 0x26c
    .ARM.Collect$$rtexit$$00000000
    __rt_exit
        0x000001ce:    b403        ..      PUSH     {r0,r1}
    .ARM.Collect$$rtexit$$00000002
    .ARM.Collect$$rtexit$$00000003
    __rt_exit_ls
    __rt_exit_prels_1
        0x000001d0:    f7fffff2    ....    BL       __rt_lib_shutdown ; 0x1b8
    .ARM.Collect$$rtexit$$00000004
    __rt_exit_exit
        0x000001d4:    bc03        ..      POP      {r0,r1}
        0x000001d6:    f000f857    ..W.    BL       _sys_exit ; 0x288
        0x000001da:    0000        ..      MOVS     r0,r0
    .text
    Reset_Handler
        0x000001dc:    4809        .H      LDR      r0,[pc,#36] ; [0x204] = 0x9bd
        0x000001de:    4780        .G      BLX      r0
        0x000001e0:    4809        .H      LDR      r0,[pc,#36] ; [0x208] = 0x141
        0x000001e2:    4700        .G      BX       r0
    NMI_Handler
        0x000001e4:    e7fe        ..      B        NMI_Handler ; 0x1e4
    HardFault_Handler
        0x000001e6:    e7fe        ..      B        HardFault_Handler ; 0x1e6
    MemManage_Handler
        0x000001e8:    e7fe        ..      B        MemManage_Handler ; 0x1e8
    BusFault_Handler
        0x000001ea:    e7fe        ..      B        BusFault_Handler ; 0x1ea
    UsageFault_Handler
        0x000001ec:    e7fe        ..      B        UsageFault_Handler ; 0x1ec
    SVC_Handler
        0x000001ee:    e7fe        ..      B        SVC_Handler ; 0x1ee
    DebugMon_Handler
        0x000001f0:    e7fe        ..      B        DebugMon_Handler ; 0x1f0
    PendSV_Handler
        0x000001f2:    e7fe        ..      B        PendSV_Handler ; 0x1f2
        0x000001f4:    e7fe        ..      B        0x1f4 ; PendSV_Handler + 2
    ADC_Handler
    DMACINTERR_Handler
    DMACINTR_Handler
    DMACINTTC_Handler
    DUALTIMER_HANDLER
    EXT0_Handler
    EXT10_Handler
    EXT11_Handler
    EXT12_Handler
    EXT13_Handler
    EXT14_Handler
    EXT15_Handler
    EXT1_Handler
    EXT2_Handler
    EXT3_Handler
    EXT4_Handler
    EXT5_Handler
    EXT6_Handler
    EXT7_Handler
    EXT8_Handler
    EXT9_Handler
    I2C_Handler
    MPS2_SSP0_Handler
    MPS2_SSP1_Handler
    PORT0_0_Handler
    PORT0_10_Handler
    PORT0_11_Handler
    PORT0_12_Handler
    PORT0_13_Handler
    PORT0_14_Handler
    PORT0_15_Handler
    PORT0_16_Handler
    PORT0_17_Handler
    PORT0_18_Handler
    PORT0_19_Handler
    PORT0_1_Handler
    PORT0_20_Handler
    PORT0_21_Handler
    PORT0_22_Handler
    PORT0_23_Handler
    PORT0_24_Handler
    PORT0_25_Handler
    PORT0_26_Handler
    PORT0_27_Handler
    PORT0_28_Handler
    PORT0_29_Handler
    PORT0_2_Handler
    PORT0_30_Handler
    PORT0_31_Handler
    PORT0_3_Handler
    PORT0_4_Handler
    PORT0_5_Handler
    PORT0_6_Handler
    PORT0_7_Handler
    PORT0_8_Handler
    PORT0_9_Handler
    PORT0_COMB_Handler
    Spare11_Handler
    Spare13_Handler
    Spare14_Handler
    Spare15_Handler
    Spare51_Handler
    Spare52_Handler
    Spare53_Handler
    Spare54_Handler
    Spare55_Handler
    Spare56_Handler
    Spare57_Handler
    Spare58_Handler
    Spare59_Handler
    Spare60_Handler
    Spare61_Handler
    Spare62_Handler
    Spare63_Handler
    Spare7_Handler
    TIMER0_Handler
    TIMER1_Handler
    UART1_Handler
    UARTOVF_Handler
        0x000001f6:    e7fe        ..      B        ADC_Handler ; 0x1f6
    __user_initial_stackheap
        0x000001f8:    4804        .H      LDR      r0,[pc,#16] ; [0x20c] = 0x200003a0
        0x000001fa:    4905        .I      LDR      r1,[pc,#20] ; [0x210] = 0x200013a0
        0x000001fc:    4a05        .J      LDR      r2,[pc,#20] ; [0x214] = 0x20000fa0
        0x000001fe:    4b06        .K      LDR      r3,[pc,#24] ; [0x218] = 0x20000fa0
        0x00000200:    4770        pG      BX       lr
    $d
        0x00000202:    0000        ..      DCW    0
        0x00000204:    000009bd    ....    DCD    2493
        0x00000208:    00000141    A...    DCD    321
        0x0000020c:    200003a0    ...     DCD    536871840
        0x00000210:    200013a0    ...     DCD    536875936
        0x00000214:    20000fa0    ...     DCD    536874912
        0x00000218:    20000fa0    ...     DCD    536874912
    $t
    .text
    __use_two_region_memory
        0x0000021c:    4770        pG      BX       lr
    __rt_heap_escrow$2region
        0x0000021e:    4770        pG      BX       lr
    __rt_heap_expand$2region
        0x00000220:    4770        pG      BX       lr
    .text
    __user_setup_stackheap
        0x00000222:    4675        uF      MOV      r5,lr
        0x00000224:    f000f82c    ..,.    BL       __user_libspace ; 0x280
        0x00000228:    46ae        .F      MOV      lr,r5
        0x0000022a:    0005        ..      MOVS     r5,r0
        0x0000022c:    4669        iF      MOV      r1,sp
        0x0000022e:    4653        SF      MOV      r3,r10
        0x00000230:    f0200007     ...    BIC      r0,r0,#7
        0x00000234:    4685        .F      MOV      sp,r0
        0x00000236:    b018        ..      ADD      sp,sp,#0x60
        0x00000238:    b520         .      PUSH     {r5,lr}
        0x0000023a:    f7ffffdd    ....    BL       __user_initial_stackheap ; 0x1f8
        0x0000023e:    e8bd4020    .. @    POP      {r5,lr}
        0x00000242:    f04f0600    O...    MOV      r6,#0
        0x00000246:    f04f0700    O...    MOV      r7,#0
        0x0000024a:    f04f0800    O...    MOV      r8,#0
        0x0000024e:    f04f0b00    O...    MOV      r11,#0
        0x00000252:    f0210107    !...    BIC      r1,r1,#7
        0x00000256:    46ac        .F      MOV      r12,r5
        0x00000258:    e8ac09c0    ....    STM      r12!,{r6-r8,r11}
        0x0000025c:    e8ac09c0    ....    STM      r12!,{r6-r8,r11}
        0x00000260:    e8ac09c0    ....    STM      r12!,{r6-r8,r11}
        0x00000264:    e8ac09c0    ....    STM      r12!,{r6-r8,r11}
        0x00000268:    468d        .F      MOV      sp,r1
        0x0000026a:    4770        pG      BX       lr
    .text
    exit
        0x0000026c:    b510        ..      PUSH     {r4,lr}
        0x0000026e:    4604        .F      MOV      r4,r0
        0x00000270:    f3af8000    ....    NOP.W    
        0x00000274:    4620         F      MOV      r0,r4
        0x00000276:    e8bd4010    ...@    POP      {r4,lr}
        0x0000027a:    f7ffbfa8    ....    B.W      __rt_exit ; 0x1ce
        0x0000027e:    0000        ..      MOVS     r0,r0
    .text
    __user_libspace
    __user_perproc_libspace
    __user_perthread_libspace
        0x00000280:    4800        .H      LDR      r0,[pc,#0] ; [0x284] = 0x20000340
        0x00000282:    4770        pG      BX       lr
    $d
        0x00000284:    20000340    @..     DCD    536871744
    $t
    .text
    _sys_exit
        0x00000288:    4901        .I      LDR      r1,[pc,#4] ; [0x290] = 0x20026
        0x0000028a:    2018        .       MOVS     r0,#0x18
        0x0000028c:    beab        ..      BKPT     #0xab
        0x0000028e:    e7fe        ..      B        0x28e ; _sys_exit + 6
    $d
        0x00000290:    00020026    &...    DCD    131110
    $t
    .text
    __I$use$semihosting
    __use_no_semihosting_swi
        0x00000294:    4770        pG      BX       lr
    i.GPIO_PinRemapConfig
    .text
    GPIO_PinRemapConfig
    __semihosting_library_function
        0x00000296:    b10a        ..      CBZ      r2,0x29c ; GPIO_PinRemapConfig + 6
        0x00000298:    6181        .a      STR      r1,[r0,#0x18]
        0x0000029a:    4770        pG      BX       lr
        0x0000029c:    61c1        .a      STR      r1,[r0,#0x1c]
        0x0000029e:    4770        pG      BX       lr
    i.NVIC_Init
    NVIC_Init
        0x000002a0:    b530        0.      PUSH     {r4,r5,lr}
        0x000002a2:    230f        .#      MOVS     r3,#0xf
        0x000002a4:    78c2        .x      LDRB     r2,[r0,#3]
        0x000002a6:    7801        .x      LDRB     r1,[r0,#0]
        0x000002a8:    2501        .%      MOVS     r5,#1
        0x000002aa:    b1f2        ..      CBZ      r2,0x2ea ; NVIC_Init + 74
        0x000002ac:    4a14        .J      LDR      r2,[pc,#80] ; [0x300] = 0xe000ed0c
        0x000002ae:    6812        .h      LDR      r2,[r2,#0]
        0x000002b0:    f10121e0    ...!    ADD      r1,r1,#0xe000e000
        0x000002b4:    f40262e0    ...b    AND      r2,r2,#0x700
        0x000002b8:    f5c262e0    ...b    RSB      r2,r2,#0x700
        0x000002bc:    0a12        ..      LSRS     r2,r2,#8
        0x000002be:    f1c20404    ....    RSB      r4,r2,#4
        0x000002c2:    40d3        .@      LSRS     r3,r3,r2
        0x000002c4:    7842        Bx      LDRB     r2,[r0,#1]
        0x000002c6:    40a2        .@      LSLS     r2,r2,r4
        0x000002c8:    7884        .x      LDRB     r4,[r0,#2]
        0x000002ca:    401c        .@      ANDS     r4,r4,r3
        0x000002cc:    4314        .C      ORRS     r4,r4,r2
        0x000002ce:    0122        ".      LSLS     r2,r4,#4
        0x000002d0:    f8812400    ...$    STRB     r2,[r1,#0x400]
        0x000002d4:    7800        .x      LDRB     r0,[r0,#0]
        0x000002d6:    f000011f    ....    AND      r1,r0,#0x1f
        0x000002da:    408d        .@      LSLS     r5,r5,r1
        0x000002dc:    0940        @.      LSRS     r0,r0,#5
        0x000002de:    0080        ..      LSLS     r0,r0,#2
        0x000002e0:    f10020e0    ...     ADD      r0,r0,#0xe000e000
        0x000002e4:    f8c05100    ...Q    STR      r5,[r0,#0x100]
        0x000002e8:    bd30        0.      POP      {r4,r5,pc}
        0x000002ea:    f001001f    ....    AND      r0,r1,#0x1f
        0x000002ee:    4085        .@      LSLS     r5,r5,r0
        0x000002f0:    0948        H.      LSRS     r0,r1,#5
        0x000002f2:    0080        ..      LSLS     r0,r0,#2
        0x000002f4:    f10020e0    ...     ADD      r0,r0,#0xe000e000
        0x000002f8:    f8c05180    ...Q    STR      r5,[r0,#0x180]
        0x000002fc:    bd30        0.      POP      {r4,r5,pc}
    $d
        0x000002fe:    0000        ..      DCW    0
        0x00000300:    e000ed0c    ....    DCD    3758157068
    $t
    i.RCC_APB1PeriphResetCmd
    RCC_APB1PeriphResetCmd
        0x00000304:    4a04        .J      LDR      r2,[pc,#16] ; [0x318] = 0x40003000
        0x00000306:    2900        .)      CMP      r1,#0
        0x00000308:    6811        .h      LDR      r1,[r2,#0]
        0x0000030a:    d001        ..      BEQ      0x310 ; RCC_APB1PeriphResetCmd + 12
        0x0000030c:    4381        .C      BICS     r1,r1,r0
        0x0000030e:    e000        ..      B        0x312 ; RCC_APB1PeriphResetCmd + 14
        0x00000310:    4301        .C      ORRS     r1,r1,r0
        0x00000312:    6011        .`      STR      r1,[r2,#0]
        0x00000314:    4770        pG      BX       lr
    $d
        0x00000316:    0000        ..      DCW    0
        0x00000318:    40003000    .0.@    DCD    1073754112
    $t
    i.SCD_CMD_CALL
    SCD_CMD_CALL
        0x0000031c:    b570        p.      PUSH     {r4-r6,lr}
        0x0000031e:    4614        .F      MOV      r4,r2
        0x00000320:    4605        .F      MOV      r5,r0
        0x00000322:    6bc0        .k      LDR      r0,[r0,#0x3c]
        0x00000324:    2204        ."      MOVS     r2,#4
        0x00000326:    eb0202c4    ....    ADD      r2,r2,r4,LSL #3
        0x0000032a:    5c80        .\      LDRB     r0,[r0,r2]
        0x0000032c:    2832        2(      CMP      r0,#0x32
        0x0000032e:    d108        ..      BNE      0x342 ; SCD_CMD_CALL + 38
        0x00000330:    4608        .F      MOV      r0,r1
        0x00000332:    f000fca1    ....    BL       cz_atol ; 0xc78
        0x00000336:    6be9        .k      LDR      r1,[r5,#0x3c]
        0x00000338:    f8511034    Q.4.    LDR      r1,[r1,r4,LSL #3]
        0x0000033c:    e8bd4070    ..p@    POP      {r4-r6,lr}
        0x00000340:    4708        .G      BX       r1
        0x00000342:    bd70        p.      POP      {r4-r6,pc}
    i.SCD_CMD_CHG
    SCD_CMD_CHG
        0x00000344:    b510        ..      PUSH     {r4,lr}
        0x00000346:    4604        .F      MOV      r4,r0
        0x00000348:    4608        .F      MOV      r0,r1
        0x0000034a:    f000fc95    ....    BL       cz_atol ; 0xc78
        0x0000034e:    2805        .(      CMP      r0,#5
        0x00000350:    d201        ..      BCS      0x356 ; SCD_CMD_CHG + 18
        0x00000352:    f8a40050    ..P.    STRH     r0,[r4,#0x50]
        0x00000356:    bd10        ..      POP      {r4,pc}
    i.SCD_CMD_CONF
    SCD_CMD_CONF
        0x00000358:    b570        p.      PUSH     {r4-r6,lr}
        0x0000035a:    4614        .F      MOV      r4,r2
        0x0000035c:    4605        .F      MOV      r5,r0
        0x0000035e:    2a14        .*      CMP      r2,#0x14
        0x00000360:    d204        ..      BCS      0x36c ; SCD_CMD_CONF + 20
        0x00000362:    4608        .F      MOV      r0,r1
        0x00000364:    f000fc88    ....    BL       cz_atol ; 0xc78
        0x00000368:    f8250014    %...    STRH     r0,[r5,r4,LSL #1]
        0x0000036c:    bd70        p.      POP      {r4-r6,pc}
    i.SCD_CMD_DUMP
    SCD_CMD_DUMP
        0x0000036e:    b510        ..      PUSH     {r4,lr}
        0x00000370:    4604        .F      MOV      r4,r0
        0x00000372:    f8a0205a    ..Z     STRH     r2,[r0,#0x5a]
        0x00000376:    4608        .F      MOV      r0,r1
        0x00000378:    f000fc7e    ..~.    BL       cz_atol ; 0xc78
        0x0000037c:    2800        .(      CMP      r0,#0
        0x0000037e:    dc01        ..      BGT      0x384 ; SCD_CMD_DUMP + 22
        0x00000380:    2001        .       MOVS     r0,#1
        0x00000382:    e004        ..      B        0x38e ; SCD_CMD_DUMP + 32
        0x00000384:    f44f41fa    O..A    MOV      r1,#0x7d00
        0x00000388:    4288        .B      CMP      r0,r1
        0x0000038a:    dd00        ..      BLE      0x38e ; SCD_CMD_DUMP + 32
        0x0000038c:    4608        .F      MOV      r0,r1
        0x0000038e:    f8a4005c    ..\.    STRH     r0,[r4,#0x5c]
        0x00000392:    bd10        ..      POP      {r4,pc}
    i.SCD_CMD_SET
    SCD_CMD_SET
        0x00000394:    e92d41f0    -..A    PUSH     {r4-r8,lr}
        0x00000398:    6bc4        .k      LDR      r4,[r0,#0x3c]
        0x0000039a:    4615        .F      MOV      r5,r2
        0x0000039c:    eb0406c5    ....    ADD      r6,r4,r5,LSL #3
        0x000003a0:    4688        .F      MOV      r8,r1
        0x000003a2:    88b0        ..      LDRH     r0,[r6,#4]
        0x000003a4:    2824        $(      CMP      r0,#0x24
        0x000003a6:    d105        ..      BNE      0x3b4 ; SCD_CMD_SET + 32
        0x000003a8:    f8547035    T.5p    LDR      r7,[r4,r5,LSL #3]
        0x000003ac:    4608        .F      MOV      r0,r1
        0x000003ae:    f000fc0d    ....    BL       atof_tyj ; 0xbcc
        0x000003b2:    6038        8`      STR      r0,[r7,#0]
        0x000003b4:    88b0        ..      LDRH     r0,[r6,#4]
        0x000003b6:    2802        .(      CMP      r0,#2
        0x000003b8:    d105        ..      BNE      0x3c6 ; SCD_CMD_SET + 50
        0x000003ba:    f8547035    T.5p    LDR      r7,[r4,r5,LSL #3]
        0x000003be:    4640        @F      MOV      r0,r8
        0x000003c0:    f000fc5a    ..Z.    BL       cz_atol ; 0xc78
        0x000003c4:    8038        8.      STRH     r0,[r7,#0]
        0x000003c6:    88b0        ..      LDRH     r0,[r6,#4]
        0x000003c8:    2812        .(      CMP      r0,#0x12
        0x000003ca:    d105        ..      BNE      0x3d8 ; SCD_CMD_SET + 68
        0x000003cc:    f8547035    T.5p    LDR      r7,[r4,r5,LSL #3]
        0x000003d0:    4640        @F      MOV      r0,r8
        0x000003d2:    f000fc51    ..Q.    BL       cz_atol ; 0xc78
        0x000003d6:    8038        8.      STRH     r0,[r7,#0]
        0x000003d8:    88b0        ..      LDRH     r0,[r6,#4]
        0x000003da:    2804        .(      CMP      r0,#4
        0x000003dc:    d105        ..      BNE      0x3ea ; SCD_CMD_SET + 86
        0x000003de:    f8547035    T.5p    LDR      r7,[r4,r5,LSL #3]
        0x000003e2:    4640        @F      MOV      r0,r8
        0x000003e4:    f000fc48    ..H.    BL       cz_atol ; 0xc78
        0x000003e8:    6038        8`      STR      r0,[r7,#0]
        0x000003ea:    88b0        ..      LDRH     r0,[r6,#4]
        0x000003ec:    2814        .(      CMP      r0,#0x14
        0x000003ee:    d105        ..      BNE      0x3fc ; SCD_CMD_SET + 104
        0x000003f0:    f8544035    T.5@    LDR      r4,[r4,r5,LSL #3]
        0x000003f4:    4640        @F      MOV      r0,r8
        0x000003f6:    f000fc3f    ..?.    BL       cz_atol ; 0xc78
        0x000003fa:    6020         `      STR      r0,[r4,#0]
        0x000003fc:    e8bd81f0    ....    POP      {r4-r8,pc}
    i.SCD_Rev1Byte
    SCD_Rev1Byte
        0x00000400:    b570        p.      PUSH     {r4-r6,lr}
        0x00000402:    4604        .F      MOV      r4,r0
        0x00000404:    6a85        .j      LDR      r5,[r0,#0x28]
        0x00000406:    f9b00048    ..H.    LDRSH    r0,[r0,#0x48]
        0x0000040a:    2921        !)      CMP      r1,#0x21
        0x0000040c:    d00a        ..      BEQ      0x424 ; SCD_Rev1Byte + 36
        0x0000040e:    f9342f46    4.F/    LDRSH    r2,[r4,#0x46]!
        0x00000412:    eb020282    ....    ADD      r2,r2,r2,LSL #2
        0x00000416:    eb0502c2    ....    ADD      r2,r5,r2,LSL #3
        0x0000041a:    4402        .D      ADD      r2,r2,r0
        0x0000041c:    1c40        @.      ADDS     r0,r0,#1
        0x0000041e:    8060        `.      STRH     r0,[r4,#2]
        0x00000420:    7011        .p      STRB     r1,[r2,#0]
        0x00000422:    bd70        p.      POP      {r4-r6,pc}
        0x00000424:    2800        .(      CMP      r0,#0
        0x00000426:    ddfc        ..      BLE      0x422 ; SCD_Rev1Byte + 34
        0x00000428:    2101        .!      MOVS     r1,#1
        0x0000042a:    2000        .       MOVS     r0,#0
        0x0000042c:    e008        ..      B        0x440 ; SCD_Rev1Byte + 64
        0x0000042e:    5c2a        *\      LDRB     r2,[r5,r0]
        0x00000430:    182b        +.      ADDS     r3,r5,r0
        0x00000432:    f8933028    ..(0    LDRB     r3,[r3,#0x28]
        0x00000436:    429a        .B      CMP      r2,r3
        0x00000438:    d000        ..      BEQ      0x43c ; SCD_Rev1Byte + 60
        0x0000043a:    2100        .!      MOVS     r1,#0
        0x0000043c:    1c40        @.      ADDS     r0,r0,#1
        0x0000043e:    b200        ..      SXTH     r0,r0
        0x00000440:    f9b42048    ..H     LDRSH    r2,[r4,#0x48]
        0x00000444:    4282        .B      CMP      r2,r0
        0x00000446:    dcf2        ..      BGT      0x42e ; SCD_Rev1Byte + 46
        0x00000448:    2600        .&      MOVS     r6,#0
        0x0000044a:    b151        Q.      CBZ      r1,0x462 ; SCD_Rev1Byte + 98
        0x0000044c:    f9b40048    ..H.    LDRSH    r0,[r4,#0x48]
        0x00000450:    542e        .T      STRB     r6,[r5,r0]
        0x00000452:    4620         F      MOV      r0,r4
        0x00000454:    f000f812    ....    BL       SCD_cmd_handle ; 0x47c
        0x00000458:    f8a46046    ..F`    STRH     r6,[r4,#0x46]
        0x0000045c:    f8856028    ..(`    STRB     r6,[r5,#0x28]
        0x00000460:    e008        ..      B        0x474 ; SCD_Rev1Byte + 116
        0x00000462:    f8b40046    ..F.    LDRH     r0,[r4,#0x46]
        0x00000466:    b110        ..      CBZ      r0,0x46e ; SCD_Rev1Byte + 110
        0x00000468:    f8a46046    ..F`    STRH     r6,[r4,#0x46]
        0x0000046c:    e002        ..      B        0x474 ; SCD_Rev1Byte + 116
        0x0000046e:    2001        .       MOVS     r0,#1
        0x00000470:    f8a40046    ..F.    STRH     r0,[r4,#0x46]
        0x00000474:    f8a46048    ..H`    STRH     r6,[r4,#0x48]
        0x00000478:    bd70        p.      POP      {r4-r6,pc}
        0x0000047a:    0000        ..      MOVS     r0,r0
    i.SCD_cmd_handle
    SCD_cmd_handle
        0x0000047c:    e92d0ff0    -...    PUSH     {r4-r11}
        0x00000480:    4681        .F      MOV      r9,r0
        0x00000482:    6a80        .j      LDR      r0,[r0,#0x28]
        0x00000484:    2200        ."      MOVS     r2,#0
        0x00000486:    4935        5I      LDR      r1,[pc,#212] ; [0x55c] = 0x13c0
        0x00000488:    e004        ..      B        0x494 ; SCD_cmd_handle + 24
        0x0000048a:    1c52        R.      ADDS     r2,r2,#1
        0x0000048c:    b212        ..      SXTH     r2,r2
        0x0000048e:    5c83        .\      LDRB     r3,[r0,r2]
        0x00000490:    2b00        .+      CMP      r3,#0
        0x00000492:    d05f        _.      BEQ      0x554 ; SCD_cmd_handle + 216
        0x00000494:    5c83        .\      LDRB     r3,[r0,r2]
        0x00000496:    f8113023    ..#0    LDRB     r3,[r1,r3,LSL #2]
        0x0000049a:    075b        [.      LSLS     r3,r3,#29
        0x0000049c:    d0f5        ..      BEQ      0x48a ; SCD_cmd_handle + 14
        0x0000049e:    5c83        .\      LDRB     r3,[r0,r2]
        0x000004a0:    f8113023    ..#0    LDRB     r3,[r1,r3,LSL #2]
        0x000004a4:    079b        ..      LSLS     r3,r3,#30
        0x000004a6:    d055        U.      BEQ      0x554 ; SCD_cmd_handle + 216
        0x000004a8:    2400        .$      MOVS     r4,#0
        0x000004aa:    468a        .F      MOV      r10,r1
        0x000004ac:    e001        ..      B        0x4b2 ; SCD_cmd_handle + 54
        0x000004ae:    1c64        d.      ADDS     r4,r4,#1
        0x000004b0:    b224        $.      SXTH     r4,r4
        0x000004b2:    18a1        ..      ADDS     r1,r4,r2
        0x000004b4:    5c43        C\      LDRB     r3,[r0,r1]
        0x000004b6:    f81a1023    ..#.    LDRB     r1,[r10,r3,LSL #2]
        0x000004ba:    0789        ..      LSLS     r1,r1,#30
        0x000004bc:    d1f7        ..      BNE      0x4ae ; SCD_cmd_handle + 50
        0x000004be:    1e4f        O.      SUBS     r7,r1,#1
        0x000004c0:    f8df809c    ....    LDR      r8,[pc,#156] ; [0x560] = 0x20000024
        0x000004c4:    2300        .#      MOVS     r3,#0
        0x000004c6:    2501        .%      MOVS     r5,#1
        0x000004c8:    2100        .!      MOVS     r1,#0
        0x000004ca:    e00a        ..      B        0x4e2 ; SCD_cmd_handle + 102
        0x000004cc:    188e        ..      ADDS     r6,r1,r2
        0x000004ce:    5d86        .]      LDRB     r6,[r0,r6]
        0x000004d0:    f858c023    X.#.    LDR      r12,[r8,r3,LSL #2]
        0x000004d4:    f81cc001    ....    LDRB     r12,[r12,r1]
        0x000004d8:    4566        fE      CMP      r6,r12
        0x000004da:    d000        ..      BEQ      0x4de ; SCD_cmd_handle + 98
        0x000004dc:    2500        .%      MOVS     r5,#0
        0x000004de:    1c49        I.      ADDS     r1,r1,#1
        0x000004e0:    b209        ..      SXTH     r1,r1
        0x000004e2:    42a1        .B      CMP      r1,r4
        0x000004e4:    dbf2        ..      BLT      0x4cc ; SCD_cmd_handle + 80
        0x000004e6:    b10d        ..      CBZ      r5,0x4ec ; SCD_cmd_handle + 112
        0x000004e8:    461f        .F      MOV      r7,r3
        0x000004ea:    e003        ..      B        0x4f4 ; SCD_cmd_handle + 120
        0x000004ec:    1c5b        [.      ADDS     r3,r3,#1
        0x000004ee:    b21b        ..      SXTH     r3,r3
        0x000004f0:    2b05        .+      CMP      r3,#5
        0x000004f2:    dbe8        ..      BLT      0x4c6 ; SCD_cmd_handle + 74
        0x000004f4:    18a1        ..      ADDS     r1,r4,r2
        0x000004f6:    b209        ..      SXTH     r1,r1
        0x000004f8:    5c42        B\      LDRB     r2,[r0,r1]
        0x000004fa:    4653        SF      MOV      r3,r10
        0x000004fc:    f81a2022    .."     LDRB     r2,[r10,r2,LSL #2]
        0x00000500:    0752        R.      LSLS     r2,r2,#29
        0x00000502:    d527        '.      BPL      0x554 ; SCD_cmd_handle + 216
        0x00000504:    2200        ."      MOVS     r2,#0
        0x00000506:    f06f042f    o./.    MVN      r4,#0x2f
        0x0000050a:    e008        ..      B        0x51e ; SCD_cmd_handle + 162
        0x0000050c:    5c45        E\      LDRB     r5,[r0,r1]
        0x0000050e:    eb020282    ....    ADD      r2,r2,r2,LSL #2
        0x00000512:    eb040242    ..B.    ADD      r2,r4,r2,LSL #1
        0x00000516:    442a        *D      ADD      r2,r2,r5
        0x00000518:    1c49        I.      ADDS     r1,r1,#1
        0x0000051a:    b212        ..      SXTH     r2,r2
        0x0000051c:    b209        ..      SXTH     r1,r1
        0x0000051e:    5c45        E\      LDRB     r5,[r0,r1]
        0x00000520:    f8135025    ..%P    LDRB     r5,[r3,r5,LSL #2]
        0x00000524:    076d        m.      LSLS     r5,r5,#29
        0x00000526:    d4f1        ..      BMI      0x50c ; SCD_cmd_handle + 144
        0x00000528:    5c43        C\      LDRB     r3,[r0,r1]
        0x0000052a:    2b23        #+      CMP      r3,#0x23
        0x0000052c:    d112        ..      BNE      0x554 ; SCD_cmd_handle + 216
        0x0000052e:    1c49        I.      ADDS     r1,r1,#1
        0x00000530:    b209        ..      SXTH     r1,r1
        0x00000532:    2f05        ./      CMP      r7,#5
        0x00000534:    d20e        ..      BCS      0x554 ; SCD_cmd_handle + 216
        0x00000536:    f9b93044    ..D0    LDRSH    r3,[r9,#0x44]
        0x0000053a:    4293        .B      CMP      r3,r2
        0x0000053c:    dd0a        ..      BLE      0x554 ; SCD_cmd_handle + 216
        0x0000053e:    2a00        .*      CMP      r2,#0
        0x00000540:    db08        ..      BLT      0x554 ; SCD_cmd_handle + 216
        0x00000542:    4401        .D      ADD      r1,r1,r0
        0x00000544:    4806        .H      LDR      r0,[pc,#24] ; [0x560] = 0x20000024
        0x00000546:    3014        .0      ADDS     r0,r0,#0x14
        0x00000548:    f8503027    P.'0    LDR      r3,[r0,r7,LSL #2]
        0x0000054c:    4648        HF      MOV      r0,r9
        0x0000054e:    e8bd0ff0    ....    POP      {r4-r11}
        0x00000552:    4718        .G      BX       r3
        0x00000554:    e8bd0ff0    ....    POP      {r4-r11}
        0x00000558:    4770        pG      BX       lr
    $d
        0x0000055a:    0000        ..      DCW    0
        0x0000055c:    000013c0    ....    DCD    5056
        0x00000560:    20000024    $..     DCD    536870948
    $t
    i.SCO_DEBUG
    SCO_DEBUG
        0x00000564:    f8b00050    ..P.    LDRH     r0,[r0,#0x50]
        0x00000568:    2802        .(      CMP      r0,#2
        0x0000056a:    d002        ..      BEQ      0x572 ; SCO_DEBUG + 14
        0x0000056c:    f44f7080    O..p    MOV      r0,#0x100
        0x00000570:    4770        pG      BX       lr
        0x00000572:    2000        .       MOVS     r0,#0
        0x00000574:    4770        pG      BX       lr
        0x00000576:    0000        ..      MOVS     r0,r0
    i.SCO_DUMP
    SCO_DUMP
        0x00000578:    e92d41f0    -..A    PUSH     {r4-r8,lr}
        0x0000057c:    4604        .F      MOV      r4,r0
        0x0000057e:    f9b46058    ..X`    LDRSH    r6,[r4,#0x58]
        0x00000582:    f9b4705c    ..\p    LDRSH    r7,[r4,#0x5c]
        0x00000586:    21cd        .!      MOVS     r1,#0xcd
        0x00000588:    23cc        .#      MOVS     r3,#0xcc
        0x0000058a:    4d5f        _M      LDR      r5,[pc,#380] ; [0x708] = 0x20000020
        0x0000058c:    2202        ."      MOVS     r2,#2
        0x0000058e:    2000        .       MOVS     r0,#0
        0x00000590:    42be        .B      CMP      r6,r7
        0x00000592:    db23        #.      BLT      0x5dc ; SCO_DUMP + 100
        0x00000594:    f8b46056    ..V`    LDRH     r6,[r4,#0x56]
        0x00000598:    b94e        N.      CBNZ     r6,0x5ae ; SCO_DUMP + 54
        0x0000059a:    6b66        fk      LDR      r6,[r4,#0x34]
        0x0000059c:    7031        1p      STRB     r1,[r6,#0]
        0x0000059e:    6b61        ak      LDR      r1,[r4,#0x34]
        0x000005a0:    704b        Kp      STRB     r3,[r1,#1]
        0x000005a2:    6b63        ck      LDR      r3,[r4,#0x34]
        0x000005a4:    210c        .!      MOVS     r1,#0xc
        0x000005a6:    7099        .p      STRB     r1,[r3,#2]
        0x000005a8:    6b63        ck      LDR      r3,[r4,#0x34]
        0x000005aa:    2140        @!      MOVS     r1,#0x40
        0x000005ac:    70d9        .p      STRB     r1,[r3,#3]
        0x000005ae:    f9b41056    ..V.    LDRSH    r1,[r4,#0x56]
        0x000005b2:    2908        .)      CMP      r1,#8
        0x000005b4:    db35        5.      BLT      0x622 ; SCO_DUMP + 170
        0x000005b6:    f8a40056    ..V.    STRH     r0,[r4,#0x56]
        0x000005ba:    f8a40058    ..X.    STRH     r0,[r4,#0x58]
        0x000005be:    8068        h.      STRH     r0,[r5,#2]
        0x000005c0:    f8a4205e    ..^     STRH     r2,[r4,#0x5e]
        0x000005c4:    f8a40060    ..`.    STRH     r0,[r4,#0x60]
        0x000005c8:    f8b41050    ..P.    LDRH     r1,[r4,#0x50]
        0x000005cc:    2903        .)      CMP      r1,#3
        0x000005ce:    d101        ..      BNE      0x5d4 ; SCO_DUMP + 92
        0x000005d0:    f8a40050    ..P.    STRH     r0,[r4,#0x50]
        0x000005d4:    f44f7080    O..p    MOV      r0,#0x100
        0x000005d8:    e8bd81f0    ....    POP      {r4-r8,pc}
        0x000005dc:    f9b4605e    ..^`    LDRSH    r6,[r4,#0x5e]
        0x000005e0:    f24037e9    @..7    MOV      r7,#0x3e9
        0x000005e4:    42be        .B      CMP      r6,r7
        0x000005e6:    dd2e        ..      BLE      0x646 ; SCO_DUMP + 206
        0x000005e8:    f8b46056    ..V`    LDRH     r6,[r4,#0x56]
        0x000005ec:    b9ae        ..      CBNZ     r6,0x61a ; SCO_DUMP + 162
        0x000005ee:    f8b46060    ..``    LDRH     r6,[r4,#0x60]
        0x000005f2:    b156        V.      CBZ      r6,0x60a ; SCO_DUMP + 146
        0x000005f4:    6b66        fk      LDR      r6,[r4,#0x34]
        0x000005f6:    7031        1p      STRB     r1,[r6,#0]
        0x000005f8:    6b61        ak      LDR      r1,[r4,#0x34]
        0x000005fa:    704b        Kp      STRB     r3,[r1,#1]
        0x000005fc:    6b63        ck      LDR      r3,[r4,#0x34]
        0x000005fe:    218c        .!      MOVS     r1,#0x8c
        0x00000600:    7099        .p      STRB     r1,[r3,#2]
        0x00000602:    6b63        ck      LDR      r3,[r4,#0x34]
        0x00000604:    213f        ?!      MOVS     r1,#0x3f
        0x00000606:    70d9        .p      STRB     r1,[r3,#3]
        0x00000608:    e007        ..      B        0x61a ; SCO_DUMP + 162
        0x0000060a:    6b61        ak      LDR      r1,[r4,#0x34]
        0x0000060c:    7008        .p      STRB     r0,[r1,#0]
        0x0000060e:    6b61        ak      LDR      r1,[r4,#0x34]
        0x00000610:    7048        Hp      STRB     r0,[r1,#1]
        0x00000612:    6b61        ak      LDR      r1,[r4,#0x34]
        0x00000614:    7088        .p      STRB     r0,[r1,#2]
        0x00000616:    6b61        ak      LDR      r1,[r4,#0x34]
        0x00000618:    70c8        .p      STRB     r0,[r1,#3]
        0x0000061a:    f9b41056    ..V.    LDRSH    r1,[r4,#0x56]
        0x0000061e:    2908        .)      CMP      r1,#8
        0x00000620:    da08        ..      BGE      0x634 ; SCO_DUMP + 188
        0x00000622:    f9b40056    ..V.    LDRSH    r0,[r4,#0x56]
        0x00000626:    f8541f34    T.4.    LDR      r1,[r4,#0x34]!
        0x0000062a:    4401        .D      ADD      r1,r1,r0
        0x0000062c:    1c40        @.      ADDS     r0,r0,#1
        0x0000062e:    8460        `.      STRH     r0,[r4,#0x22]
        0x00000630:    7808        .x      LDRB     r0,[r1,#0]
        0x00000632:    e7d1        ..      B        0x5d8 ; SCO_DUMP + 96
        0x00000634:    f8a40056    ..V.    STRH     r0,[r4,#0x56]
        0x00000638:    8068        h.      STRH     r0,[r5,#2]
        0x0000063a:    f8a4205e    ..^     STRH     r2,[r4,#0x5e]
        0x0000063e:    2001        .       MOVS     r0,#1
        0x00000640:    f8a40060    ..`.    STRH     r0,[r4,#0x60]
        0x00000644:    e79b        ..      B        0x57e ; SCO_DUMP + 6
        0x00000646:    f9b41056    ..V.    LDRSH    r1,[r4,#0x56]
        0x0000064a:    2904        .)      CMP      r1,#4
        0x0000064c:    da49        I.      BGE      0x6e2 ; SCO_DUMP + 362
        0x0000064e:    f8b40056    ..V.    LDRH     r0,[r4,#0x56]
        0x00000652:    bb38        8.      CBNZ     r0,0x6a4 ; SCO_DUMP + 300
        0x00000654:    f9b4105a    ..Z.    LDRSH    r1,[r4,#0x5a]
        0x00000658:    6be0        .k      LDR      r0,[r4,#0x3c]
        0x0000065a:    2204        ."      MOVS     r2,#4
        0x0000065c:    eb0201c1    ....    ADD      r1,r2,r1,LSL #3
        0x00000660:    f9b4205a    ..Z     LDRSH    r2,[r4,#0x5a]
        0x00000664:    5c41        A\      LDRB     r1,[r0,r1]
        0x00000666:    f8500032    P.2.    LDR      r0,[r0,r2,LSL #3]
        0x0000066a:    2902        .)      CMP      r1,#2
        0x0000066c:    d00e        ..      BEQ      0x68c ; SCO_DUMP + 276
        0x0000066e:    2904        .)      CMP      r1,#4
        0x00000670:    d011        ..      BEQ      0x696 ; SCO_DUMP + 286
        0x00000672:    2914        .)      CMP      r1,#0x14
        0x00000674:    d026        &.      BEQ      0x6c4 ; SCO_DUMP + 332
        0x00000676:    2924        $)      CMP      r1,#0x24
        0x00000678:    d029        ).      BEQ      0x6ce ; SCO_DUMP + 342
        0x0000067a:    2932        2)      CMP      r1,#0x32
        0x0000067c:    d00f        ..      BEQ      0x69e ; SCO_DUMP + 294
        0x0000067e:    f9b41058    ..X.    LDRSH    r1,[r4,#0x58]
        0x00000682:    f9300011    0...    LDRSH    r0,[r0,r1,LSL #1]
        0x00000686:    f000fd29    ..).    BL       __aeabi_i2f ; 0x10dc
        0x0000068a:    e00a        ..      B        0x6a2 ; SCO_DUMP + 298
        0x0000068c:    f9b41058    ..X.    LDRSH    r1,[r4,#0x58]
        0x00000690:    f8300011    0...    LDRH     r0,[r0,r1,LSL #1]
        0x00000694:    e003        ..      B        0x69e ; SCO_DUMP + 294
        0x00000696:    f9b41058    ..X.    LDRSH    r1,[r4,#0x58]
        0x0000069a:    f8500021    P.!.    LDR      r0,[r0,r1,LSL #2]
        0x0000069e:    f000fd35    ..5.    BL       __aeabi_ui2f ; 0x110c
        0x000006a2:    6420         d      STR      r0,[r4,#0x40]
        0x000006a4:    f1040040    ..@.    ADD      r0,r4,#0x40
        0x000006a8:    f9341f56    4.V.    LDRSH    r1,[r4,#0x56]!
        0x000006ac:    f0210101    !...    BIC      r1,r1,#1
        0x000006b0:    4401        .D      ADD      r1,r1,r0
        0x000006b2:    8820         .      LDRH     r0,[r4,#0]
        0x000006b4:    07c2        ..      LSLS     r2,r0,#31
        0x000006b6:    f1000001    ....    ADD      r0,r0,#1
        0x000006ba:    8020         .      STRH     r0,[r4,#0]
        0x000006bc:    8808        ..      LDRH     r0,[r1,#0]
        0x000006be:    d00b        ..      BEQ      0x6d8 ; SCO_DUMP + 352
        0x000006c0:    0a00        ..      LSRS     r0,r0,#8
        0x000006c2:    e789        ..      B        0x5d8 ; SCO_DUMP + 96
        0x000006c4:    f9b41058    ..X.    LDRSH    r1,[r4,#0x58]
        0x000006c8:    f8500021    P.!.    LDR      r0,[r0,r1,LSL #2]
        0x000006cc:    e7db        ..      B        0x686 ; SCO_DUMP + 270
        0x000006ce:    f9b41058    ..X.    LDRSH    r1,[r4,#0x58]
        0x000006d2:    f8500021    P.!.    LDR      r0,[r0,r1,LSL #2]
        0x000006d6:    e7e4        ..      B        0x6a2 ; SCO_DUMP + 298
        0x000006d8:    8869        i.      LDRH     r1,[r5,#2]
        0x000006da:    4401        .D      ADD      r1,r1,r0
        0x000006dc:    8069        i.      STRH     r1,[r5,#2]
        0x000006de:    b2c0        ..      UXTB     r0,r0
        0x000006e0:    e77a        z.      B        0x5d8 ; SCO_DUMP + 96
        0x000006e2:    f8a40056    ..V.    STRH     r0,[r4,#0x56]
        0x000006e6:    f8b40058    ..X.    LDRH     r0,[r4,#0x58]
        0x000006ea:    1c40        @.      ADDS     r0,r0,#1
        0x000006ec:    f8a40058    ..X.    STRH     r0,[r4,#0x58]
        0x000006f0:    f8b4005e    ..^.    LDRH     r0,[r4,#0x5e]
        0x000006f4:    1c40        @.      ADDS     r0,r0,#1
        0x000006f6:    f8a4005e    ..^.    STRH     r0,[r4,#0x5e]
        0x000006fa:    6b61        ak      LDR      r1,[r4,#0x34]
        0x000006fc:    8868        h.      LDRH     r0,[r5,#2]
        0x000006fe:    7108        .q      STRB     r0,[r1,#4]
        0x00000700:    6b61        ak      LDR      r1,[r4,#0x34]
        0x00000702:    0a00        ..      LSRS     r0,r0,#8
        0x00000704:    7148        Hq      STRB     r0,[r1,#5]
        0x00000706:    e73a        :.      B        0x57e ; SCO_DUMP + 6
    $d
        0x00000708:    20000020     ..     DCD    536870944
    $t
    i.SCO_PRINT
    SCO_PRINT
        0x0000070c:    f8b01066    ..f.    LDRH     r1,[r0,#0x66]
        0x00000710:    2200        ."      MOVS     r2,#0
        0x00000712:    2904        .)      CMP      r1,#4
        0x00000714:    d101        ..      BNE      0x71a ; SCO_PRINT + 14
        0x00000716:    f8a02066    ..f     STRH     r2,[r0,#0x66]
        0x0000071a:    f8b01066    ..f.    LDRH     r1,[r0,#0x66]
        0x0000071e:    b9f9        ..      CBNZ     r1,0x760 ; SCO_PRINT + 84
        0x00000720:    f9b01064    ..d.    LDRSH    r1,[r0,#0x64]
        0x00000724:    f9b03062    ..b0    LDRSH    r3,[r0,#0x62]
        0x00000728:    4299        .B      CMP      r1,r3
        0x0000072a:    da1a        ..      BGE      0x762 ; SCO_PRINT + 86
        0x0000072c:    f9b01064    ..d.    LDRSH    r1,[r0,#0x64]
        0x00000730:    6ac3        .j      LDR      r3,[r0,#0x2c]
        0x00000732:    440b        .D      ADD      r3,r3,r1
        0x00000734:    1c49        I.      ADDS     r1,r1,#1
        0x00000736:    f8a01064    ..d.    STRH     r1,[r0,#0x64]
        0x0000073a:    7819        .x      LDRB     r1,[r3,#0]
        0x0000073c:    6b83        .k      LDR      r3,[r0,#0x38]
        0x0000073e:    7019        .p      STRB     r1,[r3,#0]
        0x00000740:    f9b01064    ..d.    LDRSH    r1,[r0,#0x64]
        0x00000744:    f9b03062    ..b0    LDRSH    r3,[r0,#0x62]
        0x00000748:    4299        .B      CMP      r1,r3
        0x0000074a:    da11        ..      BGE      0x770 ; SCO_PRINT + 100
        0x0000074c:    f9b01064    ..d.    LDRSH    r1,[r0,#0x64]
        0x00000750:    6ac2        .j      LDR      r2,[r0,#0x2c]
        0x00000752:    440a        .D      ADD      r2,r2,r1
        0x00000754:    1c49        I.      ADDS     r1,r1,#1
        0x00000756:    f8a01064    ..d.    STRH     r1,[r0,#0x64]
        0x0000075a:    7811        .x      LDRB     r1,[r2,#0]
        0x0000075c:    6b82        .k      LDR      r2,[r0,#0x38]
        0x0000075e:    7051        Qp      STRB     r1,[r2,#1]
        0x00000760:    e008        ..      B        0x774 ; SCO_PRINT + 104
        0x00000762:    f8a02064    ..d     STRH     r2,[r0,#0x64]
        0x00000766:    f8a02062    ..b     STRH     r2,[r0,#0x62]
        0x0000076a:    f44f7080    O..p    MOV      r0,#0x100
        0x0000076e:    4770        pG      BX       lr
        0x00000770:    6b81        .k      LDR      r1,[r0,#0x38]
        0x00000772:    704a        Jp      STRB     r2,[r1,#1]
        0x00000774:    f9b01066    ..f.    LDRSH    r1,[r0,#0x66]
        0x00000778:    f8502f38    P.8/    LDR      r2,[r0,#0x38]!
        0x0000077c:    440a        .D      ADD      r2,r2,r1
        0x0000077e:    1c49        I.      ADDS     r1,r1,#1
        0x00000780:    85c1        ..      STRH     r1,[r0,#0x2e]
        0x00000782:    7810        .x      LDRB     r0,[r2,#0]
        0x00000784:    4770        pG      BX       lr
        0x00000786:    0000        ..      MOVS     r0,r0
    i.SCO_VAR
    SCO_VAR
        0x00000788:    b5f8        ..      PUSH     {r3-r7,lr}
        0x0000078a:    4604        .F      MOV      r4,r0
        0x0000078c:    2000        .       MOVS     r0,#0
        0x0000078e:    9000        ..      STR      r0,[sp,#0]
        0x00000790:    f8b41054    ..T.    LDRH     r1,[r4,#0x54]
        0x00000794:    4e44        DN      LDR      r6,[pc,#272] ; [0x8a8] = 0x20000020
        0x00000796:    b191        ..      CBZ      r1,0x7be ; SCO_VAR + 54
        0x00000798:    f9b41054    ..T.    LDRSH    r1,[r4,#0x54]
        0x0000079c:    f9b42044    ..D     LDRSH    r2,[r4,#0x44]
        0x000007a0:    4291        .B      CMP      r1,r2
        0x000007a2:    f9b41052    ..R.    LDRSH    r1,[r4,#0x52]
        0x000007a6:    dd2b        +.      BLE      0x800 ; SCO_VAR + 120
        0x000007a8:    2904        .)      CMP      r1,#4
        0x000007aa:    da1c        ..      BGE      0x7e6 ; SCO_VAR + 94
        0x000007ac:    f9b40052    ..R.    LDRSH    r0,[r4,#0x52]
        0x000007b0:    f8541f30    T.0.    LDR      r1,[r4,#0x30]!
        0x000007b4:    4401        .D      ADD      r1,r1,r0
        0x000007b6:    1c40        @.      ADDS     r0,r0,#1
        0x000007b8:    8460        `.      STRH     r0,[r4,#0x22]
        0x000007ba:    7808        .x      LDRB     r0,[r1,#0]
        0x000007bc:    bdf8        ..      POP      {r3-r7,pc}
        0x000007be:    f9b41052    ..R.    LDRSH    r1,[r4,#0x52]
        0x000007c2:    2900        .)      CMP      r1,#0
        0x000007c4:    da06        ..      BGE      0x7d4 ; SCO_VAR + 76
        0x000007c6:    f9340f52    4.R.    LDRSH    r0,[r4,#0x52]!
        0x000007ca:    eb0d0100    ....    ADD      r1,sp,r0
        0x000007ce:    1c40        @.      ADDS     r0,r0,#1
        0x000007d0:    8020         .      STRH     r0,[r4,#0]
        0x000007d2:    e7f2        ..      B        0x7ba ; SCO_VAR + 50
        0x000007d4:    f8a40052    ..R.    STRH     r0,[r4,#0x52]
        0x000007d8:    f8b41054    ..T.    LDRH     r1,[r4,#0x54]
        0x000007dc:    1c49        I.      ADDS     r1,r1,#1
        0x000007de:    f8a41054    ..T.    STRH     r1,[r4,#0x54]
        0x000007e2:    8030        0.      STRH     r0,[r6,#0]
        0x000007e4:    e05b        [.      B        0x89e ; SCO_VAR + 278
        0x000007e6:    f8a40052    ..R.    STRH     r0,[r4,#0x52]
        0x000007ea:    f8a40054    ..T.    STRH     r0,[r4,#0x54]
        0x000007ee:    f8b41050    ..P.    LDRH     r1,[r4,#0x50]
        0x000007f2:    2901        .)      CMP      r1,#1
        0x000007f4:    d101        ..      BNE      0x7fa ; SCO_VAR + 114
        0x000007f6:    f8a40050    ..P.    STRH     r0,[r4,#0x50]
        0x000007fa:    f44f7080    O..p    MOV      r0,#0x100
        0x000007fe:    bdf8        ..      POP      {r3-r7,pc}
        0x00000800:    4a29        )J      LDR      r2,[pc,#164] ; [0x8a8] = 0x20000020
        0x00000802:    2904        .)      CMP      r1,#4
        0x00000804:    8815        ..      LDRH     r5,[r2,#0]
        0x00000806:    da3e        >.      BGE      0x886 ; SCO_VAR + 254
        0x00000808:    f8b40052    ..R.    LDRH     r0,[r4,#0x52]
        0x0000080c:    bb18        ..      CBNZ     r0,0x856 ; SCO_VAR + 206
        0x0000080e:    f9b41054    ..T.    LDRSH    r1,[r4,#0x54]
        0x00000812:    6be0        .k      LDR      r0,[r4,#0x3c]
        0x00000814:    f06f0203    o...    MVN      r2,#3
        0x00000818:    eb0201c1    ....    ADD      r1,r2,r1,LSL #3
        0x0000081c:    f9b42054    ..T     LDRSH    r2,[r4,#0x54]
        0x00000820:    5c41        A\      LDRB     r1,[r0,r1]
        0x00000822:    f06f0307    o...    MVN      r3,#7
        0x00000826:    eb0302c2    ....    ADD      r2,r3,r2,LSL #3
        0x0000082a:    2902        .)      CMP      r1,#2
        0x0000082c:    5880        .X      LDR      r0,[r0,r2]
        0x0000082e:    d00c        ..      BEQ      0x84a ; SCO_VAR + 194
        0x00000830:    2904        .)      CMP      r1,#4
        0x00000832:    d00c        ..      BEQ      0x84e ; SCO_VAR + 198
        0x00000834:    2914        .)      CMP      r1,#0x14
        0x00000836:    d01e        ..      BEQ      0x876 ; SCO_VAR + 238
        0x00000838:    2924        $)      CMP      r1,#0x24
        0x0000083a:    d01e        ..      BEQ      0x87a ; SCO_VAR + 242
        0x0000083c:    2932        2)      CMP      r1,#0x32
        0x0000083e:    d007        ..      BEQ      0x850 ; SCO_VAR + 200
        0x00000840:    f9b00000    ....    LDRSH    r0,[r0,#0]
        0x00000844:    f000fc4a    ..J.    BL       __aeabi_i2f ; 0x10dc
        0x00000848:    e004        ..      B        0x854 ; SCO_VAR + 204
        0x0000084a:    8800        ..      LDRH     r0,[r0,#0]
        0x0000084c:    e000        ..      B        0x850 ; SCO_VAR + 200
        0x0000084e:    6800        .h      LDR      r0,[r0,#0]
        0x00000850:    f000fc5c    ..\.    BL       __aeabi_ui2f ; 0x110c
        0x00000854:    6420         d      STR      r0,[r4,#0x40]
        0x00000856:    f1040040    ..@.    ADD      r0,r4,#0x40
        0x0000085a:    f9341f52    4.R.    LDRSH    r1,[r4,#0x52]!
        0x0000085e:    f0210101    !...    BIC      r1,r1,#1
        0x00000862:    4401        .D      ADD      r1,r1,r0
        0x00000864:    8820         .      LDRH     r0,[r4,#0]
        0x00000866:    07c2        ..      LSLS     r2,r0,#31
        0x00000868:    f1000001    ....    ADD      r0,r0,#1
        0x0000086c:    8020         .      STRH     r0,[r4,#0]
        0x0000086e:    8808        ..      LDRH     r0,[r1,#0]
        0x00000870:    d005        ..      BEQ      0x87e ; SCO_VAR + 246
        0x00000872:    0a00        ..      LSRS     r0,r0,#8
        0x00000874:    bdf8        ..      POP      {r3-r7,pc}
        0x00000876:    6800        .h      LDR      r0,[r0,#0]
        0x00000878:    e7e4        ..      B        0x844 ; SCO_VAR + 188
        0x0000087a:    6800        .h      LDR      r0,[r0,#0]
        0x0000087c:    e7ea        ..      B        0x854 ; SCO_VAR + 204
        0x0000087e:    1941        A.      ADDS     r1,r0,r5
        0x00000880:    8031        1.      STRH     r1,[r6,#0]
        0x00000882:    b2c0        ..      UXTB     r0,r0
        0x00000884:    bdf8        ..      POP      {r3-r7,pc}
        0x00000886:    f8a40052    ..R.    STRH     r0,[r4,#0x52]
        0x0000088a:    f8b40054    ..T.    LDRH     r0,[r4,#0x54]
        0x0000088e:    1c40        @.      ADDS     r0,r0,#1
        0x00000890:    f8a40054    ..T.    STRH     r0,[r4,#0x54]
        0x00000894:    6b20         k      LDR      r0,[r4,#0x30]
        0x00000896:    7005        .p      STRB     r5,[r0,#0]
        0x00000898:    6b21        !k      LDR      r1,[r4,#0x30]
        0x0000089a:    0a28        (.      LSRS     r0,r5,#8
        0x0000089c:    7048        Hp      STRB     r0,[r1,#1]
        0x0000089e:    4620         F      MOV      r0,r4
        0x000008a0:    f7ffff72    ..r.    BL       SCO_VAR ; 0x788
        0x000008a4:    bdf8        ..      POP      {r3-r7,pc}
    $d
        0x000008a6:    0000        ..      DCW    0
        0x000008a8:    20000020     ..     DCD    536870944
    $t
    i.SCO_get
    SCO_get
        0x000008ac:    b53e        >.      PUSH     {r1-r5,lr}
        0x000008ae:    4604        .F      MOV      r4,r0
        0x000008b0:    483d        =H      LDR      r0,[pc,#244] ; [0x9a8] = 0x13b8
        0x000008b2:    2100        .!      MOVS     r1,#0
        0x000008b4:    9102        ..      STR      r1,[sp,#8]
        0x000008b6:    e9d02000    ...     LDRD     r2,r0,[r0,#0]
        0x000008ba:    e9cd2000    ...     STRD     r2,r0,[sp,#0]
        0x000008be:    f8b4004c    ..L.    LDRH     r0,[r4,#0x4c]
        0x000008c2:    b1a8        ..      CBZ      r0,0x8f0 ; SCO_get + 68
        0x000008c4:    f9b4004c    ..L.    LDRSH    r0,[r4,#0x4c]
        0x000008c8:    eb040040    ..@.    ADD      r0,r4,r0,LSL #1
        0x000008cc:    f9300c02    0...    LDRSH    r0,[r0,#-2]
        0x000008d0:    f9b42044    ..D     LDRSH    r2,[r4,#0x44]
        0x000008d4:    4290        .B      CMP      r0,r2
        0x000008d6:    f9b4004a    ..J.    LDRSH    r0,[r4,#0x4a]
        0x000008da:    dd17        ..      BLE      0x90c ; SCO_get + 96
        0x000008dc:    2804        .(      CMP      r0,#4
        0x000008de:    da0f        ..      BGE      0x900 ; SCO_get + 84
        0x000008e0:    f9340f4a    4.J.    LDRSH    r0,[r4,#0x4a]!
        0x000008e4:    4669        iF      MOV      r1,sp
        0x000008e6:    4401        .D      ADD      r1,r1,r0
        0x000008e8:    1c40        @.      ADDS     r0,r0,#1
        0x000008ea:    8020         .      STRH     r0,[r4,#0]
        0x000008ec:    7808        .x      LDRB     r0,[r1,#0]
        0x000008ee:    bd3e        >.      POP      {r1-r5,pc}
        0x000008f0:    f9b4004a    ..J.    LDRSH    r0,[r4,#0x4a]
        0x000008f4:    2800        .(      CMP      r0,#0
        0x000008f6:    da4c        L.      BGE      0x992 ; SCO_get + 230
        0x000008f8:    f9340f4a    4.J.    LDRSH    r0,[r4,#0x4a]!
        0x000008fc:    a902        ..      ADD      r1,sp,#8
        0x000008fe:    e7f2        ..      B        0x8e6 ; SCO_get + 58
        0x00000900:    f8241f4a    $.J.    STRH     r1,[r4,#0x4a]!
        0x00000904:    8061        a.      STRH     r1,[r4,#2]
        0x00000906:    f44f7080    O..p    MOV      r0,#0x100
        0x0000090a:    bd3e        >.      POP      {r1-r5,pc}
        0x0000090c:    2804        .(      CMP      r0,#4
        0x0000090e:    da40        @.      BGE      0x992 ; SCO_get + 230
        0x00000910:    f8b4004a    ..J.    LDRH     r0,[r4,#0x4a]
        0x00000914:    bb38        8.      CBNZ     r0,0x966 ; SCO_get + 186
        0x00000916:    f9b4104c    ..L.    LDRSH    r1,[r4,#0x4c]
        0x0000091a:    6be0        .k      LDR      r0,[r4,#0x3c]
        0x0000091c:    eb040141    ..A.    ADD      r1,r4,r1,LSL #1
        0x00000920:    f9311c02    1...    LDRSH    r1,[r1,#-2]
        0x00000924:    2204        ."      MOVS     r2,#4
        0x00000926:    eb0201c1    ....    ADD      r1,r2,r1,LSL #3
        0x0000092a:    f9b4204c    ..L     LDRSH    r2,[r4,#0x4c]
        0x0000092e:    5c41        A\      LDRB     r1,[r0,r1]
        0x00000930:    eb040242    ..B.    ADD      r2,r4,r2,LSL #1
        0x00000934:    f9322c02    2..,    LDRSH    r2,[r2,#-2]
        0x00000938:    2902        .)      CMP      r1,#2
        0x0000093a:    f8500032    P.2.    LDR      r0,[r0,r2,LSL #3]
        0x0000093e:    d00c        ..      BEQ      0x95a ; SCO_get + 174
        0x00000940:    2904        .)      CMP      r1,#4
        0x00000942:    d00c        ..      BEQ      0x95e ; SCO_get + 178
        0x00000944:    2914        .)      CMP      r1,#0x14
        0x00000946:    d01e        ..      BEQ      0x986 ; SCO_get + 218
        0x00000948:    2924        $)      CMP      r1,#0x24
        0x0000094a:    d01e        ..      BEQ      0x98a ; SCO_get + 222
        0x0000094c:    2932        2)      CMP      r1,#0x32
        0x0000094e:    d007        ..      BEQ      0x960 ; SCO_get + 180
        0x00000950:    f9b00000    ....    LDRSH    r0,[r0,#0]
        0x00000954:    f000fbc2    ....    BL       __aeabi_i2f ; 0x10dc
        0x00000958:    e004        ..      B        0x964 ; SCO_get + 184
        0x0000095a:    8800        ..      LDRH     r0,[r0,#0]
        0x0000095c:    e000        ..      B        0x960 ; SCO_get + 180
        0x0000095e:    6800        .h      LDR      r0,[r0,#0]
        0x00000960:    f000fbd4    ....    BL       __aeabi_ui2f ; 0x110c
        0x00000964:    6420         d      STR      r0,[r4,#0x40]
        0x00000966:    f1040040    ..@.    ADD      r0,r4,#0x40
        0x0000096a:    f9341f4a    4.J.    LDRSH    r1,[r4,#0x4a]!
        0x0000096e:    f0210101    !...    BIC      r1,r1,#1
        0x00000972:    4401        .D      ADD      r1,r1,r0
        0x00000974:    8820         .      LDRH     r0,[r4,#0]
        0x00000976:    07c2        ..      LSLS     r2,r0,#31
        0x00000978:    f1000001    ....    ADD      r0,r0,#1
        0x0000097c:    8020         .      STRH     r0,[r4,#0]
        0x0000097e:    d006        ..      BEQ      0x98e ; SCO_get + 226
        0x00000980:    8808        ..      LDRH     r0,[r1,#0]
        0x00000982:    0a00        ..      LSRS     r0,r0,#8
        0x00000984:    bd3e        >.      POP      {r1-r5,pc}
        0x00000986:    6800        .h      LDR      r0,[r0,#0]
        0x00000988:    e7e4        ..      B        0x954 ; SCO_get + 168
        0x0000098a:    6800        .h      LDR      r0,[r0,#0]
        0x0000098c:    e7ea        ..      B        0x964 ; SCO_get + 184
        0x0000098e:    7808        .x      LDRB     r0,[r1,#0]
        0x00000990:    bd3e        >.      POP      {r1-r5,pc}
        0x00000992:    f8a4104a    ..J.    STRH     r1,[r4,#0x4a]
        0x00000996:    f8b4004c    ..L.    LDRH     r0,[r4,#0x4c]
        0x0000099a:    1c40        @.      ADDS     r0,r0,#1
        0x0000099c:    f8a4004c    ..L.    STRH     r0,[r4,#0x4c]
        0x000009a0:    4620         F      MOV      r0,r4
        0x000009a2:    f7ffff83    ....    BL       SCO_get ; 0x8ac
        0x000009a6:    bd3e        >.      POP      {r1-r5,pc}
    $d
        0x000009a8:    000013b8    ....    DCD    5048
    $t
    i.SysTick_Handler
    SysTick_Handler
        0x000009ac:    4802        .H      LDR      r0,[pc,#8] ; [0x9b8] = 0x2000001c
        0x000009ae:    6801        .h      LDR      r1,[r0,#0]
        0x000009b0:    1c49        I.      ADDS     r1,r1,#1
        0x000009b2:    6001        .`      STR      r1,[r0,#0]
        0x000009b4:    4770        pG      BX       lr
    $d
        0x000009b6:    0000        ..      DCW    0
        0x000009b8:    2000001c    ...     DCD    536870940
    $t
    i.SystemInit
    SystemInit
        0x000009bc:    4902        .I      LDR      r1,[pc,#8] ; [0x9c8] = 0x20000000
        0x000009be:    4801        .H      LDR      r0,[pc,#4] ; [0x9c4] = 0x5f5e100
        0x000009c0:    6008        .`      STR      r0,[r1,#0]
        0x000009c2:    4770        pG      BX       lr
    $d
        0x000009c4:    05f5e100    ....    DCD    100000000
        0x000009c8:    20000000    ...     DCD    536870912
    $t
    i.UART0_Handler
    UART0_Handler
        0x000009cc:    b510        ..      PUSH     {r4,lr}
        0x000009ce:    f04f2440    O.@$    MOV      r4,#0x40004000
        0x000009d2:    4620         F      MOV      r0,r4
        0x000009d4:    f000f82c    ..,.    BL       UART_ReceiveData ; 0xa30
        0x000009d8:    4601        .F      MOV      r1,r0
        0x000009da:    4804        .H      LDR      r0,[pc,#16] ; [0x9ec] = 0x200001f8
        0x000009dc:    f7fffd10    ....    BL       SCD_Rev1Byte ; 0x400
        0x000009e0:    4620         F      MOV      r0,r4
        0x000009e2:    e8bd4010    ...@    POP      {r4,lr}
        0x000009e6:    2102        .!      MOVS     r1,#2
        0x000009e8:    f000b809    ....    B.W      UART_ITCLEAR ; 0x9fe
    $d
        0x000009ec:    200001f8    ...     DCD    536871416
    $t
    i.UART_GetFlagStatus
    UART_GetFlagStatus
        0x000009f0:    4602        .F      MOV      r2,r0
        0x000009f2:    2000        .       MOVS     r0,#0
        0x000009f4:    6852        Rh      LDR      r2,[r2,#4]
        0x000009f6:    420a        .B      TST      r2,r1
        0x000009f8:    d000        ..      BEQ      0x9fc ; UART_GetFlagStatus + 12
        0x000009fa:    2001        .       MOVS     r0,#1
        0x000009fc:    4770        pG      BX       lr
    i.UART_ITCLEAR
    UART_ITCLEAR
        0x000009fe:    68c2        .h      LDR      r2,[r0,#0xc]
        0x00000a00:    430a        .C      ORRS     r2,r2,r1
        0x00000a02:    60c2        .`      STR      r2,[r0,#0xc]
        0x00000a04:    4770        pG      BX       lr
    i.UART_ITConfig
    UART_ITConfig
        0x00000a06:    2a00        .*      CMP      r2,#0
        0x00000a08:    6882        .h      LDR      r2,[r0,#8]
        0x00000a0a:    d001        ..      BEQ      0xa10 ; UART_ITConfig + 10
        0x00000a0c:    430a        .C      ORRS     r2,r2,r1
        0x00000a0e:    e000        ..      B        0xa12 ; UART_ITConfig + 12
        0x00000a10:    438a        .C      BICS     r2,r2,r1
        0x00000a12:    6082        .`      STR      r2,[r0,#8]
        0x00000a14:    4770        pG      BX       lr
        0x00000a16:    0000        ..      MOVS     r0,r0
    i.UART_Init
    UART_Init
        0x00000a18:    4b04        .K      LDR      r3,[pc,#16] ; [0xa2c] = 0x20000000
        0x00000a1a:    680a        .h      LDR      r2,[r1,#0]
        0x00000a1c:    681b        .h      LDR      r3,[r3,#0]
        0x00000a1e:    fbb3f2f2    ....    UDIV     r2,r3,r2
        0x00000a22:    6102        .a      STR      r2,[r0,#0x10]
        0x00000a24:    7909        .y      LDRB     r1,[r1,#4]
        0x00000a26:    6081        .`      STR      r1,[r0,#8]
        0x00000a28:    4770        pG      BX       lr
    $d
        0x00000a2a:    0000        ..      DCW    0
        0x00000a2c:    20000000    ...     DCD    536870912
    $t
    i.UART_ReceiveData
    UART_ReceiveData
        0x00000a30:    6841        Ah      LDR      r1,[r0,#4]
        0x00000a32:    0789        ..      LSLS     r1,r1,#30
        0x00000a34:    d5fc        ..      BPL      UART_ReceiveData ; 0xa30
        0x00000a36:    6800        .h      LDR      r0,[r0,#0]
        0x00000a38:    b2c0        ..      UXTB     r0,r0
        0x00000a3a:    4770        pG      BX       lr
    i.UART_SendData
    UART_SendData
        0x00000a3c:    6842        Bh      LDR      r2,[r0,#4]
        0x00000a3e:    07d2        ..      LSLS     r2,r2,#31
        0x00000a40:    d1fc        ..      BNE      UART_SendData ; 0xa3c
        0x00000a42:    6001        .`      STR      r1,[r0,#0]
        0x00000a44:    4770        pG      BX       lr
        0x00000a46:    0000        ..      MOVS     r0,r0
    i._atof_pow10
    _atof_pow10
        0x00000a48:    b570        p.      PUSH     {r4-r6,lr}
        0x00000a4a:    460c        .F      MOV      r4,r1
        0x00000a4c:    4d08        .M      LDR      r5,[pc,#32] ; [0xa70] = 0x41200000
        0x00000a4e:    e003        ..      B        0xa58 ; _atof_pow10 + 16
        0x00000a50:    4629        )F      MOV      r1,r5
        0x00000a52:    f000fb6f    ..o.    BL       __aeabi_fmul ; 0x1134
        0x00000a56:    1e64        d.      SUBS     r4,r4,#1
        0x00000a58:    2c00        .,      CMP      r4,#0
        0x00000a5a:    dcf9        ..      BGT      0xa50 ; _atof_pow10 + 8
        0x00000a5c:    4d05        .M      LDR      r5,[pc,#20] ; [0xa74] = 0x3dcccccd
        0x00000a5e:    2c00        .,      CMP      r4,#0
        0x00000a60:    da04        ..      BGE      0xa6c ; _atof_pow10 + 36
        0x00000a62:    4629        )F      MOV      r1,r5
        0x00000a64:    f000fb66    ..f.    BL       __aeabi_fmul ; 0x1134
        0x00000a68:    1c64        d.      ADDS     r4,r4,#1
        0x00000a6a:    e7f8        ..      B        0xa5e ; _atof_pow10 + 22
        0x00000a6c:    bd70        p.      POP      {r4-r6,pc}
    $d
        0x00000a6e:    0000        ..      DCW    0
        0x00000a70:    41200000    .. A    DCD    1092616192
        0x00000a74:    3dcccccd    ...=    DCD    1036831949
    $t
    i._cz_strtoxl
    _cz_strtoxl
        0x00000a78:    e92d47f0    -..G    PUSH     {r4-r10,lr}
        0x00000a7c:    4684        .F      MOV      r12,r0
        0x00000a7e:    b109        ..      CBZ      r1,0xa84 ; _cz_strtoxl + 12
        0x00000a80:    f8c1c000    ....    STR      r12,[r1,#0]
        0x00000a84:    2500        .%      MOVS     r5,#0
        0x00000a86:    f89c4000    ...@    LDRB     r4,[r12,#0]
        0x00000a8a:    f10c0001    ....    ADD      r0,r12,#1
        0x00000a8e:    4e4e        NN      LDR      r6,[pc,#312] ; [0xbc8] = 0x13c0
        0x00000a90:    e001        ..      B        0xa96 ; _cz_strtoxl + 30
        0x00000a92:    f8104b01    ...K    LDRB     r4,[r0],#1
        0x00000a96:    f8167024    ..$p    LDRB     r7,[r6,r4,LSL #2]
        0x00000a9a:    073f        ?.      LSLS     r7,r7,#28
        0x00000a9c:    d4f9        ..      BMI      0xa92 ; _cz_strtoxl + 26
        0x00000a9e:    2c2b        +,      CMP      r4,#0x2b
        0x00000aa0:    d101        ..      BNE      0xaa6 ; _cz_strtoxl + 46
        0x00000aa2:    f8104b01    ...K    LDRB     r4,[r0],#1
        0x00000aa6:    2c2d        -,      CMP      r4,#0x2d
        0x00000aa8:    d103        ..      BNE      0xab2 ; _cz_strtoxl + 58
        0x00000aaa:    f8104b01    ...K    LDRB     r4,[r0],#1
        0x00000aae:    f0430301    C...    ORR      r3,r3,#1
        0x00000ab2:    2c2b        +,      CMP      r4,#0x2b
        0x00000ab4:    d101        ..      BNE      0xaba ; _cz_strtoxl + 66
        0x00000ab6:    f8104b01    ...K    LDRB     r4,[r0],#1
        0x00000aba:    2a00        .*      CMP      r2,#0
        0x00000abc:    db03        ..      BLT      0xac6 ; _cz_strtoxl + 78
        0x00000abe:    2a01        .*      CMP      r2,#1
        0x00000ac0:    d001        ..      BEQ      0xac6 ; _cz_strtoxl + 78
        0x00000ac2:    2a24        $*      CMP      r2,#0x24
        0x00000ac4:    dd05        ..      BLE      0xad2 ; _cz_strtoxl + 90
        0x00000ac6:    b109        ..      CBZ      r1,0xacc ; _cz_strtoxl + 84
        0x00000ac8:    f8c1c000    ....    STR      r12,[r1,#0]
        0x00000acc:    2000        .       MOVS     r0,#0
        0x00000ace:    e8bd87f0    ....    POP      {r4-r10,pc}
        0x00000ad2:    b122        ".      CBZ      r2,0xade ; _cz_strtoxl + 102
        0x00000ad4:    2a10        .*      CMP      r2,#0x10
        0x00000ad6:    d015        ..      BEQ      0xb04 ; _cz_strtoxl + 140
        0x00000ad8:    2a02        .*      CMP      r2,#2
        0x00000ada:    d01b        ..      BEQ      0xb14 ; _cz_strtoxl + 156
        0x00000adc:    e023        #.      B        0xb26 ; _cz_strtoxl + 174
        0x00000ade:    2c30        0,      CMP      r4,#0x30
        0x00000ae0:    d001        ..      BEQ      0xae6 ; _cz_strtoxl + 110
        0x00000ae2:    220a        ."      MOVS     r2,#0xa
        0x00000ae4:    e01f        ..      B        0xb26 ; _cz_strtoxl + 174
        0x00000ae6:    7802        .x      LDRB     r2,[r0,#0]
        0x00000ae8:    2a78        x*      CMP      r2,#0x78
        0x00000aea:    d007        ..      BEQ      0xafc ; _cz_strtoxl + 132
        0x00000aec:    2a58        X*      CMP      r2,#0x58
        0x00000aee:    d005        ..      BEQ      0xafc ; _cz_strtoxl + 132
        0x00000af0:    2a62        b*      CMP      r2,#0x62
        0x00000af2:    d005        ..      BEQ      0xb00 ; _cz_strtoxl + 136
        0x00000af4:    2a42        B*      CMP      r2,#0x42
        0x00000af6:    d003        ..      BEQ      0xb00 ; _cz_strtoxl + 136
        0x00000af8:    2208        ."      MOVS     r2,#8
        0x00000afa:    e014        ..      B        0xb26 ; _cz_strtoxl + 174
        0x00000afc:    2210        ."      MOVS     r2,#0x10
        0x00000afe:    e003        ..      B        0xb08 ; _cz_strtoxl + 144
        0x00000b00:    2202        ."      MOVS     r2,#2
        0x00000b02:    e009        ..      B        0xb18 ; _cz_strtoxl + 160
        0x00000b04:    2c30        0,      CMP      r4,#0x30
        0x00000b06:    d10e        ..      BNE      0xb26 ; _cz_strtoxl + 174
        0x00000b08:    7807        .x      LDRB     r7,[r0,#0]
        0x00000b0a:    2f78        x/      CMP      r7,#0x78
        0x00000b0c:    d009        ..      BEQ      0xb22 ; _cz_strtoxl + 170
        0x00000b0e:    2f58        X/      CMP      r7,#0x58
        0x00000b10:    d007        ..      BEQ      0xb22 ; _cz_strtoxl + 170
        0x00000b12:    e008        ..      B        0xb26 ; _cz_strtoxl + 174
        0x00000b14:    2c30        0,      CMP      r4,#0x30
        0x00000b16:    d106        ..      BNE      0xb26 ; _cz_strtoxl + 174
        0x00000b18:    7807        .x      LDRB     r7,[r0,#0]
        0x00000b1a:    2f62        b/      CMP      r7,#0x62
        0x00000b1c:    d001        ..      BEQ      0xb22 ; _cz_strtoxl + 170
        0x00000b1e:    2f42        B/      CMP      r7,#0x42
        0x00000b20:    d101        ..      BNE      0xb26 ; _cz_strtoxl + 174
        0x00000b22:    7844        Dx      LDRB     r4,[r0,#1]
        0x00000b24:    1c80        ..      ADDS     r0,r0,#2
        0x00000b26:    f04f39ff    O..9    MOV      r9,#0xffffffff
        0x00000b2a:    fbb9f7f2    ....    UDIV     r7,r9,r2
        0x00000b2e:    46b2        .F      MOV      r10,r6
        0x00000b30:    f85a6024    Z.$`    LDR      r6,[r10,r4,LSL #2]
        0x00000b34:    ea5f7846    _.Fx    LSLS     r8,r6,#29
        0x00000b38:    d501        ..      BPL      0xb3e ; _cz_strtoxl + 198
        0x00000b3a:    3c30        0<      SUBS     r4,r4,#0x30
        0x00000b3c:    e004        ..      B        0xb48 ; _cz_strtoxl + 208
        0x00000b3e:    07b4        ..      LSLS     r4,r6,#30
        0x00000b40:    d014        ..      BEQ      0xb6c ; _cz_strtoxl + 244
        0x00000b42:    f3c62407    ...$    UBFX     r4,r6,#8,#8
        0x00000b46:    3c37        7<      SUBS     r4,r4,#0x37
        0x00000b48:    4294        .B      CMP      r4,r2
        0x00000b4a:    d20f        ..      BCS      0xb6c ; _cz_strtoxl + 244
        0x00000b4c:    f0430302    C...    ORR      r3,r3,#2
        0x00000b50:    42bd        .B      CMP      r5,r7
        0x00000b52:    d302        ..      BCC      0xb5a ; _cz_strtoxl + 226
        0x00000b54:    d104        ..      BNE      0xb60 ; _cz_strtoxl + 232
        0x00000b56:    42bc        .B      CMP      r4,r7
        0x00000b58:    d802        ..      BHI      0xb60 ; _cz_strtoxl + 232
        0x00000b5a:    fb054502    ...E    MLA      r5,r5,r2,r4
        0x00000b5e:    e002        ..      B        0xb66 ; _cz_strtoxl + 238
        0x00000b60:    f0430304    C...    ORR      r3,r3,#4
        0x00000b64:    b111        ..      CBZ      r1,0xb6c ; _cz_strtoxl + 244
        0x00000b66:    f8104b01    ...K    LDRB     r4,[r0],#1
        0x00000b6a:    e7e1        ..      B        0xb30 ; _cz_strtoxl + 184
        0x00000b6c:    1e40        @.      SUBS     r0,r0,#1
        0x00000b6e:    f04f4400    O..D    MOV      r4,#0x80000000
        0x00000b72:    079a        ..      LSLS     r2,r3,#30
        0x00000b74:    d403        ..      BMI      0xb7e ; _cz_strtoxl + 262
        0x00000b76:    b131        1.      CBZ      r1,0xb86 ; _cz_strtoxl + 270
        0x00000b78:    f8c1c000    ....    STR      r12,[r1,#0]
        0x00000b7c:    e003        ..      B        0xb86 ; _cz_strtoxl + 270
        0x00000b7e:    071a        ..      LSLS     r2,r3,#28
        0x00000b80:    d503        ..      BPL      0xb8a ; _cz_strtoxl + 274
        0x00000b82:    07da        ..      LSLS     r2,r3,#31
        0x00000b84:    d001        ..      BEQ      0xb8a ; _cz_strtoxl + 274
        0x00000b86:    2500        .%      MOVS     r5,#0
        0x00000b88:    e016        ..      B        0xbb8 ; _cz_strtoxl + 320
        0x00000b8a:    075e        ^.      LSLS     r6,r3,#29
        0x00000b8c:    f06f4200    o..B    MVN      r2,#0x80000000
        0x00000b90:    d409        ..      BMI      0xba6 ; _cz_strtoxl + 302
        0x00000b92:    071e        ..      LSLS     r6,r3,#28
        0x00000b94:    d410        ..      BMI      0xbb8 ; _cz_strtoxl + 320
        0x00000b96:    07de        ..      LSLS     r6,r3,#31
        0x00000b98:    d002        ..      BEQ      0xba0 ; _cz_strtoxl + 296
        0x00000b9a:    42a5        .B      CMP      r5,r4
        0x00000b9c:    d809        ..      BHI      0xbb2 ; _cz_strtoxl + 314
        0x00000b9e:    e00b        ..      B        0xbb8 ; _cz_strtoxl + 320
        0x00000ba0:    4295        .B      CMP      r5,r2
        0x00000ba2:    d808        ..      BHI      0xbb6 ; _cz_strtoxl + 318
        0x00000ba4:    e008        ..      B        0xbb8 ; _cz_strtoxl + 320
        0x00000ba6:    071d        ..      LSLS     r5,r3,#28
        0x00000ba8:    d501        ..      BPL      0xbae ; _cz_strtoxl + 310
        0x00000baa:    464d        MF      MOV      r5,r9
        0x00000bac:    e004        ..      B        0xbb8 ; _cz_strtoxl + 320
        0x00000bae:    07dd        ..      LSLS     r5,r3,#31
        0x00000bb0:    d001        ..      BEQ      0xbb6 ; _cz_strtoxl + 318
        0x00000bb2:    4625        %F      MOV      r5,r4
        0x00000bb4:    e000        ..      B        0xbb8 ; _cz_strtoxl + 320
        0x00000bb6:    4615        .F      MOV      r5,r2
        0x00000bb8:    b101        ..      CBZ      r1,0xbbc ; _cz_strtoxl + 324
        0x00000bba:    6008        .`      STR      r0,[r1,#0]
        0x00000bbc:    07d8        ..      LSLS     r0,r3,#31
        0x00000bbe:    d000        ..      BEQ      0xbc2 ; _cz_strtoxl + 330
        0x00000bc0:    426d        mB      RSBS     r5,r5,#0
        0x00000bc2:    4628        (F      MOV      r0,r5
        0x00000bc4:    e783        ..      B        0xace ; _cz_strtoxl + 86
    $d
        0x00000bc6:    0000        ..      DCW    0
        0x00000bc8:    000013c0    ....    DCD    5056
    $t
    i.atof_tyj
    atof_tyj
        0x00000bcc:    b5f8        ..      PUSH     {r3-r7,lr}
        0x00000bce:    2100        .!      MOVS     r1,#0
        0x00000bd0:    460d        .F      MOV      r5,r1
        0x00000bd2:    460e        .F      MOV      r6,r1
        0x00000bd4:    2401        .$      MOVS     r4,#1
        0x00000bd6:    4b27        'K      LDR      r3,[pc,#156] ; [0xc74] = 0x13c0
        0x00000bd8:    9100        ..      STR      r1,[sp,#0]
        0x00000bda:    e009        ..      B        0xbf0 ; atof_tyj + 36
        0x00000bdc:    06d2        ..      LSLS     r2,r2,#27
        0x00000bde:    d506        ..      BPL      0xbee ; atof_tyj + 34
        0x00000be0:    292d        -)      CMP      r1,#0x2d
        0x00000be2:    d003        ..      BEQ      0xbec ; atof_tyj + 32
        0x00000be4:    292b        +)      CMP      r1,#0x2b
        0x00000be6:    d002        ..      BEQ      0xbee ; atof_tyj + 34
        0x00000be8:    2000        .       MOVS     r0,#0
        0x00000bea:    bdf8        ..      POP      {r3-r7,pc}
        0x00000bec:    4264        dB      RSBS     r4,r4,#0
        0x00000bee:    1c40        @.      ADDS     r0,r0,#1
        0x00000bf0:    7801        .x      LDRB     r1,[r0,#0]
        0x00000bf2:    f8532021    S.!     LDR      r2,[r3,r1,LSL #2]
        0x00000bf6:    0757        W.      LSLS     r7,r2,#29
        0x00000bf8:    d0f0        ..      BEQ      0xbdc ; atof_tyj + 16
        0x00000bfa:    2300        .#      MOVS     r3,#0
        0x00000bfc:    220a        ."      MOVS     r2,#0xa
        0x00000bfe:    4669        iF      MOV      r1,sp
        0x00000c00:    f7ffff3a    ..:.    BL       _cz_strtoxl ; 0xa78
        0x00000c04:    4607        .F      MOV      r7,r0
        0x00000c06:    9800        ..      LDR      r0,[sp,#0]
        0x00000c08:    7801        .x      LDRB     r1,[r0,#0]
        0x00000c0a:    292e        .)      CMP      r1,#0x2e
        0x00000c0c:    d110        ..      BNE      0xc30 ; atof_tyj + 100
        0x00000c0e:    1c45        E.      ADDS     r5,r0,#1
        0x00000c10:    2300        .#      MOVS     r3,#0
        0x00000c12:    220a        ."      MOVS     r2,#0xa
        0x00000c14:    4669        iF      MOV      r1,sp
        0x00000c16:    4628        (F      MOV      r0,r5
        0x00000c18:    f7ffff2e    ....    BL       _cz_strtoxl ; 0xa78
        0x00000c1c:    4601        .F      MOV      r1,r0
        0x00000c1e:    9800        ..      LDR      r0,[sp,#0]
        0x00000c20:    1b45        E.      SUBS     r5,r0,r5
        0x00000c22:    4608        .F      MOV      r0,r1
        0x00000c24:    f000fa5a    ..Z.    BL       __aeabi_i2f ; 0x10dc
        0x00000c28:    4269        iB      RSBS     r1,r5,#0
        0x00000c2a:    f7ffff0d    ....    BL       _atof_pow10 ; 0xa48
        0x00000c2e:    4605        .F      MOV      r5,r0
        0x00000c30:    9800        ..      LDR      r0,[sp,#0]
        0x00000c32:    7801        .x      LDRB     r1,[r0,#0]
        0x00000c34:    2965        e)      CMP      r1,#0x65
        0x00000c36:    d001        ..      BEQ      0xc3c ; atof_tyj + 112
        0x00000c38:    2945        E)      CMP      r1,#0x45
        0x00000c3a:    d106        ..      BNE      0xc4a ; atof_tyj + 126
        0x00000c3c:    2300        .#      MOVS     r3,#0
        0x00000c3e:    220a        ."      MOVS     r2,#0xa
        0x00000c40:    4669        iF      MOV      r1,sp
        0x00000c42:    1c40        @.      ADDS     r0,r0,#1
        0x00000c44:    f7ffff18    ....    BL       _cz_strtoxl ; 0xa78
        0x00000c48:    4606        .F      MOV      r6,r0
        0x00000c4a:    2c01        .,      CMP      r4,#1
        0x00000c4c:    4638        8F      MOV      r0,r7
        0x00000c4e:    d00a        ..      BEQ      0xc66 ; atof_tyj + 154
        0x00000c50:    f000fa44    ..D.    BL       __aeabi_i2f ; 0x10dc
        0x00000c54:    4601        .F      MOV      r1,r0
        0x00000c56:    f0854000    ...@    EOR      r0,r5,#0x80000000
        0x00000c5a:    f000fb37    ..7.    BL       __aeabi_fsub ; 0x12cc
        0x00000c5e:    4631        1F      MOV      r1,r6
        0x00000c60:    f7fffef2    ....    BL       _atof_pow10 ; 0xa48
        0x00000c64:    bdf8        ..      POP      {r3-r7,pc}
        0x00000c66:    f000fa39    ..9.    BL       __aeabi_i2f ; 0x10dc
        0x00000c6a:    4629        )F      MOV      r1,r5
        0x00000c6c:    f000f9d4    ....    BL       __aeabi_fadd ; 0x1018
        0x00000c70:    e7f5        ..      B        0xc5e ; atof_tyj + 146
    $d
        0x00000c72:    0000        ..      DCW    0
        0x00000c74:    000013c0    ....    DCD    5056
    $t
    i.cz_atol
    cz_atol
        0x00000c78:    2300        .#      MOVS     r3,#0
        0x00000c7a:    220a        ."      MOVS     r2,#0xa
        0x00000c7c:    4619        .F      MOV      r1,r3
        0x00000c7e:    f7ffbefb    ....    B.W      _cz_strtoxl ; 0xa78
        0x00000c82:    0000        ..      MOVS     r0,r0
    i.main
    main
        0x00000c84:    f000f8f6    ....    BL       nvicInit ; 0xe74
        0x00000c88:    4873        sH      LDR      r0,[pc,#460] ; [0xe58] = 0x20000000
        0x00000c8a:    f44f717a    O.zq    MOV      r1,#0x3e8
        0x00000c8e:    6800        .h      LDR      r0,[r0,#0]
        0x00000c90:    fbb0f0f1    ....    UDIV     r0,r0,r1
        0x00000c94:    1e41        A.      SUBS     r1,r0,#1
        0x00000c96:    1e80        ..      SUBS     r0,r0,#2
        0x00000c98:    f1b07f80    ....    CMP      r0,#0x1000000
        0x00000c9c:    d20b        ..      BCS      0xcb6 ; main + 50
        0x00000c9e:    f04f20e0    O..     MOV      r0,#0xe000e000
        0x00000ca2:    1e49        I.      SUBS     r1,r1,#1
        0x00000ca4:    6141        Aa      STR      r1,[r0,#0x14]
        0x00000ca6:    4a6d        mJ      LDR      r2,[pc,#436] ; [0xe5c] = 0xe000e00f
        0x00000ca8:    21e0        .!      MOVS     r1,#0xe0
        0x00000caa:    f8821d14    ....    STRB     r1,[r2,#0xd14]
        0x00000cae:    2100        .!      MOVS     r1,#0
        0x00000cb0:    6181        .a      STR      r1,[r0,#0x18]
        0x00000cb2:    2107        .!      MOVS     r1,#7
        0x00000cb4:    6101        .a      STR      r1,[r0,#0x10]
        0x00000cb6:    f000f97b    ..{.    BL       uart0_init ; 0xfb0
        0x00000cba:    f000f8fb    ....    BL       scd_init_1 ; 0xeb4
        0x00000cbe:    f000f929    ..).    BL       scd_init_2 ; 0xf14
        0x00000cc2:    f000f99f    ....    BL       uart_ahb_init ; 0x1004
        0x00000cc6:    4d66        fM      LDR      r5,[pc,#408] ; [0xe60] = 0x20000004
        0x00000cc8:    f04f2740    O.@'    MOV      r7,#0x40004000
        0x00000ccc:    f04f4420    O. D    MOV      r4,#0xa0000000
        0x00000cd0:    f04f4640    O.@F    MOV      r6,#0xc0000000
        0x00000cd4:    2101        .!      MOVS     r1,#1
        0x00000cd6:    4638        8F      MOV      r0,r7
        0x00000cd8:    f7fffe8a    ....    BL       UART_GetFlagStatus ; 0x9f0
        0x00000cdc:    b930        0.      CBNZ     r0,0xcec ; main + 104
        0x00000cde:    4861        aH      LDR      r0,[pc,#388] ; [0xe64] = 0x200001f8
        0x00000ce0:    f000f948    ..H.    BL       scd_send1Byte ; 0xf74
        0x00000ce4:    b2c1        ..      UXTB     r1,r0
        0x00000ce6:    4638        8F      MOV      r0,r7
        0x00000ce8:    f7fffea8    ....    BL       UART_SendData ; 0xa3c
        0x00000cec:    88a8        ..      LDRH     r0,[r5,#4]
        0x00000cee:    2803        .(      CMP      r0,#3
        0x00000cf0:    d03b        ;.      BEQ      0xd6a ; main + 230
        0x00000cf2:    2804        .(      CMP      r0,#4
        0x00000cf4:    d02d        -.      BEQ      0xd52 ; main + 206
        0x00000cf6:    7820         x      LDRB     r0,[r4,#0]
        0x00000cf8:    0780        ..      LSLS     r0,r0,#30
        0x00000cfa:    d401        ..      BMI      0xd00 ; main + 124
        0x00000cfc:    79a8        .y      LDRB     r0,[r5,#6]
        0x00000cfe:    7060        `p      STRB     r0,[r4,#1]
        0x00000d00:    7820         x      LDRB     r0,[r4,#0]
        0x00000d02:    06c0        ..      LSLS     r0,r0,#27
        0x00000d04:    d401        ..      BMI      0xd0a ; main + 134
        0x00000d06:    7860        `x      LDRB     r0,[r4,#1]
        0x00000d08:    7068        hp      STRB     r0,[r5,#1]
        0x00000d0a:    88a8        ..      LDRH     r0,[r5,#4]
        0x00000d0c:    b390        ..      CBZ      r0,0xd74 ; main + 240
        0x00000d0e:    2801        .(      CMP      r0,#1
        0x00000d10:    d077        w.      BEQ      0xe02 ; main + 382
        0x00000d12:    2802        .(      CMP      r0,#2
        0x00000d14:    d074        t.      BEQ      0xe00 ; main + 380
        0x00000d16:    2803        .(      CMP      r0,#3
        0x00000d18:    69a8        .i      LDR      r0,[r5,#0x18]
        0x00000d1a:    f000010f    ....    AND      r1,r0,#0xf
        0x00000d1e:    7031        1p      STRB     r1,[r6,#0]
        0x00000d20:    f3c01103    ....    UBFX     r1,r0,#4,#4
        0x00000d24:    7071        qp      STRB     r1,[r6,#1]
        0x00000d26:    f3c02103    ...!    UBFX     r1,r0,#8,#4
        0x00000d2a:    70b1        .p      STRB     r1,[r6,#2]
        0x00000d2c:    f3c03103    ...1    UBFX     r1,r0,#12,#4
        0x00000d30:    70f1        .p      STRB     r1,[r6,#3]
        0x00000d32:    f3c04103    ...A    UBFX     r1,r0,#16,#4
        0x00000d36:    7131        1q      STRB     r1,[r6,#4]
        0x00000d38:    d074        t.      BEQ      0xe24 ; main + 416
        0x00000d3a:    f3c05103    ...Q    UBFX     r1,r0,#20,#4
        0x00000d3e:    7171        qq      STRB     r1,[r6,#5]
        0x00000d40:    f3c06103    ...a    UBFX     r1,r0,#24,#4
        0x00000d44:    71b1        .q      STRB     r1,[r6,#6]
        0x00000d46:    0f00        ..      LSRS     r0,r0,#28
        0x00000d48:    e057        W.      B        0xdfa ; main + 374
        0x00000d4a:    4847        GH      LDR      r0,[pc,#284] ; [0xe68] = 0x200002d8
        0x00000d4c:    f000f912    ....    BL       scd_send1Byte ; 0xf74
        0x00000d50:    7060        `p      STRB     r0,[r4,#1]
        0x00000d52:    7820         x      LDRB     r0,[r4,#0]
        0x00000d54:    0780        ..      LSLS     r0,r0,#30
        0x00000d56:    d5f8        ..      BPL      0xd4a ; main + 198
        0x00000d58:    e003        ..      B        0xd62 ; main + 222
        0x00000d5a:    7861        ax      LDRB     r1,[r4,#1]
        0x00000d5c:    4842        BH      LDR      r0,[pc,#264] ; [0xe68] = 0x200002d8
        0x00000d5e:    f7fffb4f    ..O.    BL       SCD_Rev1Byte ; 0x400
        0x00000d62:    7820         x      LDRB     r0,[r4,#0]
        0x00000d64:    06c0        ..      LSLS     r0,r0,#27
        0x00000d66:    d5f8        ..      BPL      0xd5a ; main + 214
        0x00000d68:    e7cf        ..      B        0xd0a ; main + 134
        0x00000d6a:    4840        @H      LDR      r0,[pc,#256] ; [0xe6c] = 0x40010000
        0x00000d6c:    6800        .h      LDR      r0,[r0,#0]
        0x00000d6e:    0780        ..      LSLS     r0,r0,#30
        0x00000d70:    d505        ..      BPL      0xd7e ; main + 250
        0x00000d72:    e7ca        ..      B        0xd0a ; main + 134
        0x00000d74:    e010        ..      B        0xd98 ; main + 276
        0x00000d76:    7828        (x      LDRB     r0,[r5,#0]
        0x00000d78:    1c40        @.      ADDS     r0,r0,#1
        0x00000d7a:    7028        (p      STRB     r0,[r5,#0]
        0x00000d7c:    7060        `p      STRB     r0,[r4,#1]
        0x00000d7e:    7820         x      LDRB     r0,[r4,#0]
        0x00000d80:    0780        ..      LSLS     r0,r0,#30
        0x00000d82:    d5f8        ..      BPL      0xd76 ; main + 242
        0x00000d84:    493a        :I      LDR      r1,[pc,#232] ; [0xe70] = 0x20000080
        0x00000d86:    7820         x      LDRB     r0,[r4,#0]
        0x00000d88:    06c0        ..      LSLS     r0,r0,#27
        0x00000d8a:    d4be        ..      BMI      0xd0a ; main + 134
        0x00000d8c:    7862        bx      LDRB     r2,[r4,#1]
        0x00000d8e:    78a8        .x      LDRB     r0,[r5,#2]
        0x00000d90:    540a        .T      STRB     r2,[r1,r0]
        0x00000d92:    1c40        @.      ADDS     r0,r0,#1
        0x00000d94:    70a8        .p      STRB     r0,[r5,#2]
        0x00000d96:    e7f6        ..      B        0xd86 ; main + 258
        0x00000d98:    7870        px      LDRB     r0,[r6,#1]
        0x00000d9a:    81e8        ..      STRH     r0,[r5,#0xe]
        0x00000d9c:    7ba9        .{      LDRB     r1,[r5,#0xe]
        0x00000d9e:    f64f70ff    O..p    MOV      r0,#0xffff
        0x00000da2:    7832        2x      LDRB     r2,[r6,#0]
        0x00000da4:    ea002101    ...!    AND      r1,r0,r1,LSL #8
        0x00000da8:    430a        .C      ORRS     r2,r2,r1
        0x00000daa:    81ea        ..      STRH     r2,[r5,#0xe]
        0x00000dac:    78f1        .x      LDRB     r1,[r6,#3]
        0x00000dae:    8229        ).      STRH     r1,[r5,#0x10]
        0x00000db0:    7c29        )|      LDRB     r1,[r5,#0x10]
        0x00000db2:    78b2        .x      LDRB     r2,[r6,#2]
        0x00000db4:    ea002101    ...!    AND      r1,r0,r1,LSL #8
        0x00000db8:    430a        .C      ORRS     r2,r2,r1
        0x00000dba:    822a        *.      STRH     r2,[r5,#0x10]
        0x00000dbc:    7971        qy      LDRB     r1,[r6,#5]
        0x00000dbe:    8269        i.      STRH     r1,[r5,#0x12]
        0x00000dc0:    7ca9        .|      LDRB     r1,[r5,#0x12]
        0x00000dc2:    7932        2y      LDRB     r2,[r6,#4]
        0x00000dc4:    ea002101    ...!    AND      r1,r0,r1,LSL #8
        0x00000dc8:    430a        .C      ORRS     r2,r2,r1
        0x00000dca:    826a        j.      STRH     r2,[r5,#0x12]
        0x00000dcc:    79f1        .y      LDRB     r1,[r6,#7]
        0x00000dce:    82a9        ..      STRH     r1,[r5,#0x14]
        0x00000dd0:    7d29        )}      LDRB     r1,[r5,#0x14]
        0x00000dd2:    ea002001    ...     AND      r0,r0,r1,LSL #8
        0x00000dd6:    79b1        .y      LDRB     r1,[r6,#6]
        0x00000dd8:    4301        .C      ORRS     r1,r1,r0
        0x00000dda:    82a9        ..      STRH     r1,[r5,#0x14]
        0x00000ddc:    88e8        ..      LDRH     r0,[r5,#6]
        0x00000dde:    7030        0p      STRB     r0,[r6,#0]
        0x00000de0:    0a00        ..      LSRS     r0,r0,#8
        0x00000de2:    7070        pp      STRB     r0,[r6,#1]
        0x00000de4:    8928        (.      LDRH     r0,[r5,#8]
        0x00000de6:    70b0        .p      STRB     r0,[r6,#2]
        0x00000de8:    0a00        ..      LSRS     r0,r0,#8
        0x00000dea:    70f0        .p      STRB     r0,[r6,#3]
        0x00000dec:    8968        h.      LDRH     r0,[r5,#0xa]
        0x00000dee:    7130        0q      STRB     r0,[r6,#4]
        0x00000df0:    0a00        ..      LSRS     r0,r0,#8
        0x00000df2:    7170        pq      STRB     r0,[r6,#5]
        0x00000df4:    89a8        ..      LDRH     r0,[r5,#0xc]
        0x00000df6:    71b0        .q      STRB     r0,[r6,#6]
        0x00000df8:    0a00        ..      LSRS     r0,r0,#8
        0x00000dfa:    71f0        .q      STRB     r0,[r6,#7]
        0x00000dfc:    e76a        j.      B        0xcd4 ; main + 80
        0x00000dfe:    e000        ..      B        0xe02 ; main + 382
        0x00000e00:    e011        ..      B        0xe26 ; main + 418
        0x00000e02:    8830        0.      LDRH     r0,[r6,#0]
        0x00000e04:    81e8        ..      STRH     r0,[r5,#0xe]
        0x00000e06:    8870        p.      LDRH     r0,[r6,#2]
        0x00000e08:    8228        (.      STRH     r0,[r5,#0x10]
        0x00000e0a:    88b0        ..      LDRH     r0,[r6,#4]
        0x00000e0c:    8268        h.      STRH     r0,[r5,#0x12]
        0x00000e0e:    88f0        ..      LDRH     r0,[r6,#6]
        0x00000e10:    82a8        ..      STRH     r0,[r5,#0x14]
        0x00000e12:    88e8        ..      LDRH     r0,[r5,#6]
        0x00000e14:    8030        0.      STRH     r0,[r6,#0]
        0x00000e16:    8928        (.      LDRH     r0,[r5,#8]
        0x00000e18:    8070        p.      STRH     r0,[r6,#2]
        0x00000e1a:    8968        h.      LDRH     r0,[r5,#0xa]
        0x00000e1c:    80b0        ..      STRH     r0,[r6,#4]
        0x00000e1e:    89a8        ..      LDRH     r0,[r5,#0xc]
        0x00000e20:    80f0        ..      STRH     r0,[r6,#6]
        0x00000e22:    e757        W.      B        0xcd4 ; main + 80
        0x00000e24:    e014        ..      B        0xe50 ; main + 460
        0x00000e26:    6830        0h      LDR      r0,[r6,#0]
        0x00000e28:    81e8        ..      STRH     r0,[r5,#0xe]
        0x00000e2a:    6830        0h      LDR      r0,[r6,#0]
        0x00000e2c:    0c00        ..      LSRS     r0,r0,#16
        0x00000e2e:    8228        (.      STRH     r0,[r5,#0x10]
        0x00000e30:    6870        ph      LDR      r0,[r6,#4]
        0x00000e32:    8268        h.      STRH     r0,[r5,#0x12]
        0x00000e34:    6870        ph      LDR      r0,[r6,#4]
        0x00000e36:    0c00        ..      LSRS     r0,r0,#16
        0x00000e38:    82a8        ..      STRH     r0,[r5,#0x14]
        0x00000e3a:    88e8        ..      LDRH     r0,[r5,#6]
        0x00000e3c:    8929        ).      LDRH     r1,[r5,#8]
        0x00000e3e:    ea404001    @..@    ORR      r0,r0,r1,LSL #16
        0x00000e42:    6030        0`      STR      r0,[r6,#0]
        0x00000e44:    8968        h.      LDRH     r0,[r5,#0xa]
        0x00000e46:    89a9        ..      LDRH     r1,[r5,#0xc]
        0x00000e48:    ea404001    @..@    ORR      r0,r0,r1,LSL #16
        0x00000e4c:    6070        p`      STR      r0,[r6,#4]
        0x00000e4e:    e741        A.      B        0xcd4 ; main + 80
        0x00000e50:    f3c05003    ...P    UBFX     r0,r0,#20,#4
        0x00000e54:    7170        pq      STRB     r0,[r6,#5]
        0x00000e56:    e73d        =.      B        0xcd4 ; main + 80
    $d
        0x00000e58:    20000000    ...     DCD    536870912
        0x00000e5c:    e000e00f    ....    DCD    3758153743
        0x00000e60:    20000004    ...     DCD    536870916
        0x00000e64:    200001f8    ...     DCD    536871416
        0x00000e68:    200002d8    ...     DCD    536871640
        0x00000e6c:    40010000    ...@    DCD    1073807360
        0x00000e70:    20000080    ...     DCD    536871040
    $t
    i.nvicInit
    nvicInit
        0x00000e74:    b538        8.      PUSH     {r3-r5,lr}
        0x00000e76:    490d        .I      LDR      r1,[pc,#52] ; [0xeac] = 0xe000ed0c
        0x00000e78:    6808        .h      LDR      r0,[r1,#0]
        0x00000e7a:    f64f02ff    O...    MOV      r2,#0xf8ff
        0x00000e7e:    4010        .@      ANDS     r0,r0,r2
        0x00000e80:    4a0b        .J      LDR      r2,[pc,#44] ; [0xeb0] = 0x5fa0000
        0x00000e82:    4310        .C      ORRS     r0,r0,r2
        0x00000e84:    6008        .`      STR      r0,[r1,#0]
        0x00000e86:    2000        .       MOVS     r0,#0
        0x00000e88:    f88d0000    ....    STRB     r0,[sp,#0]
        0x00000e8c:    2102        .!      MOVS     r1,#2
        0x00000e8e:    f88d1001    ....    STRB     r1,[sp,#1]
        0x00000e92:    f88d0002    ....    STRB     r0,[sp,#2]
        0x00000e96:    2401        .$      MOVS     r4,#1
        0x00000e98:    f88d4003    ...@    STRB     r4,[sp,#3]
        0x00000e9c:    4668        hF      MOV      r0,sp
        0x00000e9e:    f7fff9ff    ....    BL       NVIC_Init ; 0x2a0
        0x00000ea2:    f04f20e0    O..     MOV      r0,#0xe000e000
        0x00000ea6:    f8c04280    ...B    STR      r4,[r0,#0x280]
        0x00000eaa:    bd38        8.      POP      {r3-r5,pc}
    $d
        0x00000eac:    e000ed0c    ....    DCD    3758157068
        0x00000eb0:    05fa0000    ....    DCD    100270080
    $t
    i.scd_init_1
    scd_init_1
        0x00000eb4:    4815        .H      LDR      r0,[pc,#84] ; [0xf0c] = 0x200001f8
        0x00000eb6:    4914        .I      LDR      r1,[pc,#80] ; [0xf08] = 0x17c0
        0x00000eb8:    63c1        .c      STR      r1,[r0,#0x3c]
        0x00000eba:    2100        .!      MOVS     r1,#0
        0x00000ebc:    f8201b02     ...    STRH     r1,[r0],#2
        0x00000ec0:    f242720f    B..r    MOV      r2,#0x270f
        0x00000ec4:    f8202b26     .&+    STRH     r2,[r0],#0x26
        0x00000ec8:    4a10        .J      LDR      r2,[pc,#64] ; [0xf0c] = 0x200001f8
        0x00000eca:    3a78        x:      SUBS     r2,r2,#0x78
        0x00000ecc:    6002        .`      STR      r2,[r0,#0]
        0x00000ece:    3250        P2      ADDS     r2,r2,#0x50
        0x00000ed0:    6042        B`      STR      r2,[r0,#4]
        0x00000ed2:    4a0f        .J      LDR      r2,[pc,#60] ; [0xf10] = 0x20000060
        0x00000ed4:    6082        .`      STR      r2,[r0,#8]
        0x00000ed6:    3210        .2      ADDS     r2,r2,#0x10
        0x00000ed8:    60c2        .`      STR      r2,[r0,#0xc]
        0x00000eda:    3a0c        .:      SUBS     r2,r2,#0xc
        0x00000edc:    6102        .a      STR      r2,[r0,#0x10]
        0x00000ede:    220a        ."      MOVS     r2,#0xa
        0x00000ee0:    8382        ..      STRH     r2,[r0,#0x1c]
        0x00000ee2:    83c1        ..      STRH     r1,[r0,#0x1e]
        0x00000ee4:    8401        ..      STRH     r1,[r0,#0x20]
        0x00000ee6:    8481        ..      STRH     r1,[r0,#0x24]
        0x00000ee8:    8441        A.      STRH     r1,[r0,#0x22]
        0x00000eea:    6181        .a      STR      r1,[r0,#0x18]
        0x00000eec:    84c1        ..      STRH     r1,[r0,#0x26]
        0x00000eee:    8501        ..      STRH     r1,[r0,#0x28]
        0x00000ef0:    8581        ..      STRH     r1,[r0,#0x2c]
        0x00000ef2:    8541        A.      STRH     r1,[r0,#0x2a]
        0x00000ef4:    85c1        ..      STRH     r1,[r0,#0x2e]
        0x00000ef6:    8601        ..      STRH     r1,[r0,#0x30]
        0x00000ef8:    8641        A.      STRH     r1,[r0,#0x32]
        0x00000efa:    8681        ..      STRH     r1,[r0,#0x34]
        0x00000efc:    86c1        ..      STRH     r1,[r0,#0x36]
        0x00000efe:    8701        ..      STRH     r1,[r0,#0x38]
        0x00000f00:    8741        A.      STRH     r1,[r0,#0x3a]
        0x00000f02:    8781        ..      STRH     r1,[r0,#0x3c]
        0x00000f04:    87c1        ..      STRH     r1,[r0,#0x3e]
        0x00000f06:    4770        pG      BX       lr
    $d
        0x00000f08:    000017c0    ....    DCD    6080
        0x00000f0c:    200001f8    ...     DCD    536871416
        0x00000f10:    20000060    `..     DCD    536871008
    $t
    i.scd_init_2
    scd_init_2
        0x00000f14:    4815        .H      LDR      r0,[pc,#84] ; [0xf6c] = 0x200002d8
        0x00000f16:    4914        .I      LDR      r1,[pc,#80] ; [0xf68] = 0x1810
        0x00000f18:    63c1        .c      STR      r1,[r0,#0x3c]
        0x00000f1a:    2100        .!      MOVS     r1,#0
        0x00000f1c:    f8201b02     ...    STRH     r1,[r0],#2
        0x00000f20:    f242720f    B..r    MOV      r2,#0x270f
        0x00000f24:    f8202b26     .&+    STRH     r2,[r0],#0x26
        0x00000f28:    4a10        .J      LDR      r2,[pc,#64] ; [0xf6c] = 0x200002d8
        0x00000f2a:    3a78        x:      SUBS     r2,r2,#0x78
        0x00000f2c:    6002        .`      STR      r2,[r0,#0]
        0x00000f2e:    3250        P2      ADDS     r2,r2,#0x50
        0x00000f30:    6042        B`      STR      r2,[r0,#4]
        0x00000f32:    4a0f        .J      LDR      r2,[pc,#60] ; [0xf70] = 0x20000068
        0x00000f34:    6082        .`      STR      r2,[r0,#8]
        0x00000f36:    3210        .2      ADDS     r2,r2,#0x10
        0x00000f38:    60c2        .`      STR      r2,[r0,#0xc]
        0x00000f3a:    3a0c        .:      SUBS     r2,r2,#0xc
        0x00000f3c:    6102        .a      STR      r2,[r0,#0x10]
        0x00000f3e:    220a        ."      MOVS     r2,#0xa
        0x00000f40:    8382        ..      STRH     r2,[r0,#0x1c]
        0x00000f42:    83c1        ..      STRH     r1,[r0,#0x1e]
        0x00000f44:    8401        ..      STRH     r1,[r0,#0x20]
        0x00000f46:    8481        ..      STRH     r1,[r0,#0x24]
        0x00000f48:    8441        A.      STRH     r1,[r0,#0x22]
        0x00000f4a:    6181        .a      STR      r1,[r0,#0x18]
        0x00000f4c:    84c1        ..      STRH     r1,[r0,#0x26]
        0x00000f4e:    8501        ..      STRH     r1,[r0,#0x28]
        0x00000f50:    8581        ..      STRH     r1,[r0,#0x2c]
        0x00000f52:    8541        A.      STRH     r1,[r0,#0x2a]
        0x00000f54:    85c1        ..      STRH     r1,[r0,#0x2e]
        0x00000f56:    8601        ..      STRH     r1,[r0,#0x30]
        0x00000f58:    8641        A.      STRH     r1,[r0,#0x32]
        0x00000f5a:    8681        ..      STRH     r1,[r0,#0x34]
        0x00000f5c:    86c1        ..      STRH     r1,[r0,#0x36]
        0x00000f5e:    8701        ..      STRH     r1,[r0,#0x38]
        0x00000f60:    8741        A.      STRH     r1,[r0,#0x3a]
        0x00000f62:    8781        ..      STRH     r1,[r0,#0x3c]
        0x00000f64:    87c1        ..      STRH     r1,[r0,#0x3e]
        0x00000f66:    4770        pG      BX       lr
    $d
        0x00000f68:    00001810    ....    DCD    6160
        0x00000f6c:    200002d8    ...     DCD    536871640
        0x00000f70:    20000068    h..     DCD    536871016
    $t
    i.scd_send1Byte
    scd_send1Byte
        0x00000f74:    b570        p.      PUSH     {r4-r6,lr}
        0x00000f76:    4604        .F      MOV      r4,r0
        0x00000f78:    f9b0004e    ..N.    LDRSH    r0,[r0,#0x4e]
        0x00000f7c:    4d0b        .M      LDR      r5,[pc,#44] ; [0xfac] = 0x2000004c
        0x00000f7e:    f8551020    U. .    LDR      r1,[r5,r0,LSL #2]
        0x00000f82:    4620         F      MOV      r0,r4
        0x00000f84:    4788        .G      BLX      r1
        0x00000f86:    0a01        ..      LSRS     r1,r0,#8
        0x00000f88:    d00e        ..      BEQ      0xfa8 ; scd_send1Byte + 52
        0x00000f8a:    f8b40062    ..b.    LDRH     r0,[r4,#0x62]
        0x00000f8e:    b108        ..      CBZ      r0,0xf94 ; scd_send1Byte + 32
        0x00000f90:    2004        .       MOVS     r0,#4
        0x00000f92:    e001        ..      B        0xf98 ; scd_send1Byte + 36
        0x00000f94:    f8b40050    ..P.    LDRH     r0,[r4,#0x50]
        0x00000f98:    f8a4004e    ..N.    STRH     r0,[r4,#0x4e]
        0x00000f9c:    f9b4004e    ..N.    LDRSH    r0,[r4,#0x4e]
        0x00000fa0:    f8551020    U. .    LDR      r1,[r5,r0,LSL #2]
        0x00000fa4:    4620         F      MOV      r0,r4
        0x00000fa6:    4788        .G      BLX      r1
        0x00000fa8:    b2c0        ..      UXTB     r0,r0
        0x00000faa:    bd70        p.      POP      {r4-r6,pc}
    $d
        0x00000fac:    2000004c    L..     DCD    536870988
    $t
    i.uart0_init
    uart0_init
        0x00000fb0:    b51c        ..      PUSH     {r2-r4,lr}
        0x00000fb2:    2100        .!      MOVS     r1,#0
        0x00000fb4:    2008        .       MOVS     r0,#8
        0x00000fb6:    f7fff9a5    ....    BL       RCC_APB1PeriphResetCmd ; 0x304
        0x00000fba:    4c11        .L      LDR      r4,[pc,#68] ; [0x1000] = 0x40010000
        0x00000fbc:    2201        ."      MOVS     r2,#1
        0x00000fbe:    2104        .!      MOVS     r1,#4
        0x00000fc0:    4620         F      MOV      r0,r4
        0x00000fc2:    f7fff968    ..h.    BL       GPIO_PinRemapConfig ; 0x296
        0x00000fc6:    2201        ."      MOVS     r2,#1
        0x00000fc8:    2108        .!      MOVS     r1,#8
        0x00000fca:    4620         F      MOV      r0,r4
        0x00000fcc:    f7fff963    ..c.    BL       GPIO_PinRemapConfig ; 0x296
        0x00000fd0:    f44f30e1    O..0    MOV      r0,#0x1c200
        0x00000fd4:    9000        ..      STR      r0,[sp,#0]
        0x00000fd6:    2003        .       MOVS     r0,#3
        0x00000fd8:    f88d0004    ....    STRB     r0,[sp,#4]
        0x00000fdc:    f04f2440    O.@$    MOV      r4,#0x40004000
        0x00000fe0:    4669        iF      MOV      r1,sp
        0x00000fe2:    4620         F      MOV      r0,r4
        0x00000fe4:    f7fffd18    ....    BL       UART_Init ; 0xa18
        0x00000fe8:    2201        ."      MOVS     r2,#1
        0x00000fea:    2108        .!      MOVS     r1,#8
        0x00000fec:    4620         F      MOV      r0,r4
        0x00000fee:    f7fffd0a    ....    BL       UART_ITConfig ; 0xa06
        0x00000ff2:    f04f21e0    O..!    MOV      r1,#0xe000e000
        0x00000ff6:    2001        .       MOVS     r0,#1
        0x00000ff8:    f8c10100    ....    STR      r0,[r1,#0x100]
        0x00000ffc:    bd1c        ..      POP      {r2-r4,pc}
    $d
        0x00000ffe:    0000        ..      DCW    0
        0x00001000:    40010000    ...@    DCD    1073807360
    $t
    i.uart_ahb_init
    uart_ahb_init
        0x00001004:    f04f4020    O. @    MOV      r0,#0xa0000000
        0x00001008:    2100        .!      MOVS     r1,#0
        0x0000100a:    7001        .p      STRB     r1,[r0,#0]
        0x0000100c:    f24011b1    @...    MOV      r1,#0x1b1
        0x00001010:    8041        A.      STRH     r1,[r0,#2]
        0x00001012:    2101        .!      MOVS     r1,#1
        0x00001014:    7001        .p      STRB     r1,[r0,#0]
        0x00001016:    4770        pG      BX       lr
    x$fpl$fadd
    __aeabi_fadd
    _fadd
        0x00001018:    ea900f01    ....    TEQ      r0,r1
        0x0000101c:    bf48        H.      IT       MI
        0x0000101e:    f0814100    ...A    EORMI    r1,r1,#0x80000000
        0x00001022:    f100815a    ..Z.    BMI.W    _fsub1 ; 0x12da
    _fadd1
        0x00001026:    1a42        B.      SUBS     r2,r0,r1
        0x00001028:    bf3c        <.      ITT      CC
        0x0000102a:    1a80        ..      SUBCC    r0,r0,r2
        0x0000102c:    1889        ..      ADDCC    r1,r1,r2
        0x0000102e:    ea4f52d0    O..R    LSR      r2,r0,#23
        0x00001032:    f04f4c7f    O..L    MOV      r12,#0xff000000
        0x00001036:    ea1c0f41    ..A.    TST      r12,r1,LSL #1
        0x0000103a:    eba253d1    ...S    SUB      r3,r2,r1,LSR #23
        0x0000103e:    bf18        ..      IT       NE
        0x00001040:    ea9c6f02    ...o    TEQNE    r12,r2,LSL #24
        0x00001044:    f000803b    ..;.    BEQ.W    0x10be ; _fadd1 + 152
        0x00001048:    f04f4c00    O..L    MOV      r12,#0x80000000
        0x0000104c:    ea4c2000    L..     ORR      r0,r12,r0,LSL #8
        0x00001050:    ea4c2101    L..!    ORR      r1,r12,r1,LSL #8
        0x00001054:    fa21fc03    !...    LSR      r12,r1,r3
        0x00001058:    eb100c0c    ....    ADDS     r12,r0,r12
        0x0000105c:    d21e        ..      BCS      0x109c ; _fadd1 + 118
        0x0000105e:    f10232ff    ...2    ADD      r2,r2,#0xffffffff
        0x00001062:    ea5f201c    _..     LSRS     r0,r12,#8
        0x00001066:    eb4050c2    @..P    ADC      r0,r0,r2,LSL #23
        0x0000106a:    bf38        8.      IT       CC
        0x0000106c:    4770        pG      BXCC     lr
        0x0000106e:    f01c0f7f    ....    TST      r12,#0x7f
        0x00001072:    ea4f0c40    O.@.    LSL      r12,r0,#1
        0x00001076:    bf18        ..      IT       NE
        0x00001078:    f1bc4f7f    ...O    CMPNE    r12,#0xff000000
        0x0000107c:    bf38        8.      IT       CC
        0x0000107e:    4770        pG      BXCC     lr
        0x00001080:    f1c30320    .. .    RSB      r3,r3,#0x20
        0x00001084:    4099        .@      LSLS     r1,r1,r3
        0x00001086:    bf08        ..      IT       EQ
        0x00001088:    f0200001     ...    BICEQ    r0,r0,#1
        0x0000108c:    f1bc4f7f    ...O    CMP      r12,#0xff000000
        0x00001090:    bf38        8.      IT       CC
        0x00001092:    4770        pG      BXCC     lr
        0x00001094:    f1a040c0    ...@    SUB      r0,r0,#0x60000000
        0x00001098:    f000b913    ....    B.W      __fpl_fretinf ; 0x12c2
        0x0000109c:    ea4f003c    O.<.    RRX      r0,r12
        0x000010a0:    0a00        ..      LSRS     r0,r0,#8
        0x000010a2:    eb4050c2    @..P    ADC      r0,r0,r2,LSL #23
        0x000010a6:    bf28        (.      IT       CS
        0x000010a8:    f01c0fff    ....    TSTCS    r12,#0xff
        0x000010ac:    ea4f0c40    O.@.    LSL      r12,r0,#1
        0x000010b0:    d0e6        ..      BEQ      0x1080 ; _fadd1 + 90
        0x000010b2:    bf18        ..      IT       NE
        0x000010b4:    f1bc4f7f    ...O    CMPNE    r12,#0xff000000
        0x000010b8:    bf38        8.      IT       CC
        0x000010ba:    4770        pG      BXCC     lr
        0x000010bc:    e7ea        ..      B        0x1094 ; _fadd1 + 110
        0x000010be:    ea9c6f02    ...o    TEQ      r12,r2,LSL #24
        0x000010c2:    d005        ..      BEQ      0x10d0 ; _fadd1 + 170
        0x000010c4:    ea100f5c    ..\.    TST      r0,r12,LSR #1
        0x000010c8:    bf08        ..      IT       EQ
        0x000010ca:    f0004000    ...@    ANDEQ    r0,r0,#0x80000000
        0x000010ce:    4770        pG      BX       lr
        0x000010d0:    b510        ..      PUSH     {r4,lr}
        0x000010d2:    f000f8b0    ....    BL       __fpl_fnaninf ; 0x1236
        0x000010d6:    bf00        ..      NOP      
    $d
        0x000010d8:    3ebefb64    d..>    DCD    1052703588
    $t
    x$fpl$fflt
    __aeabi_i2f
    _fflt
        0x000010dc:    f0104100    ...A    ANDS     r1,r0,#0x80000000
        0x000010e0:    bf48        H.      IT       MI
        0x000010e2:    4240        @B      RSBMI    r0,r0,#0
        0x000010e4:    fab0f380    ....    CLZ      r3,r0
        0x000010e8:    fa10f203    ....    LSLS     r2,r0,r3
        0x000010ec:    f1c3039d    ....    RSB      r3,r3,#0x9d
        0x000010f0:    d00b        ..      BEQ      0x110a ; __aeabi_i2f + 46
        0x000010f2:    ea5151c3    Q..Q    ORRS     r1,r1,r3,LSL #23
        0x000010f6:    eb012012    ...     ADD      r0,r1,r2,LSR #8
        0x000010fa:    0653        S.      LSLS     r3,r2,#25
        0x000010fc:    bf38        8.      IT       CC
        0x000010fe:    4770        pG      BXCC     lr
        0x00001100:    f1000001    ....    ADD      r0,r0,#1
        0x00001104:    bf08        ..      IT       EQ
        0x00001106:    f0200001     ...    BICEQ    r0,r0,#1
        0x0000110a:    4770        pG      BX       lr
    x$fpl$ffltu
    __aeabi_ui2f
    _ffltu
        0x0000110c:    fab0f380    ....    CLZ      r3,r0
        0x00001110:    fa10f203    ....    LSLS     r2,r0,r3
        0x00001114:    f1c3039d    ....    RSB      r3,r3,#0x9d
        0x00001118:    d00a        ..      BEQ      0x1130 ; __aeabi_ui2f + 36
        0x0000111a:    05d9        ..      LSLS     r1,r3,#23
        0x0000111c:    eb012012    ...     ADD      r0,r1,r2,LSR #8
        0x00001120:    0653        S.      LSLS     r3,r2,#25
        0x00001122:    bf38        8.      IT       CC
        0x00001124:    4770        pG      BXCC     lr
        0x00001126:    f1000001    ....    ADD      r0,r0,#1
        0x0000112a:    bf08        ..      IT       EQ
        0x0000112c:    f0200001     ...    BICEQ    r0,r0,#1
        0x00001130:    4770        pG      BX       lr
        0x00001132:    0000        ..      MOVS     r0,r0
    x$fpl$fmul
    __aeabi_fmul
    _fmul
        0x00001134:    f44f0c7f    O...    MOV      r12,#0xff0000
        0x00001138:    ea1c12d0    ....    ANDS     r2,r12,r0,LSR #7
        0x0000113c:    bf1e        ..      ITTT     NE
        0x0000113e:    ea1c13d1    ....    ANDSNE   r3,r12,r1,LSR #7
        0x00001142:    ea920f0c    ....    TEQNE    r2,r12
        0x00001146:    ea930f0c    ....    TEQNE    r3,r12
        0x0000114a:    f0008047    ..G.    BEQ.W    0x11dc ; __aeabi_fmul + 168
        0x0000114e:    ea900f01    ....    TEQ      r0,r1
        0x00001152:    bf48        H.      IT       MI
        0x00001154:    f4427280    B..r    ORRMI    r2,r2,#0x100
        0x00001158:    f04f4c00    O..L    MOV      r12,#0x80000000
        0x0000115c:    ea4c2000    L..     ORR      r0,r12,r0,LSL #8
        0x00001160:    ea4c2101    L..!    ORR      r1,r12,r1,LSL #8
        0x00001164:    eb020203    ....    ADD.W    r2,r2,r3
        0x00001168:    fba01301    ....    UMULL    r1,r3,r0,r1
        0x0000116c:    f5a20200    ....    SUB      r2,r2,#0x800000
        0x00001170:    2900        .)      CMP      r1,#0
        0x00001172:    bf18        ..      IT       NE
        0x00001174:    f0430301    C...    ORRNE    r3,r3,#1
        0x00001178:    005b        [.      LSLS     r3,r3,#1
        0x0000117a:    bf28        (.      IT       CS
        0x0000117c:    ea4f0333    O.3.    RRXCS    r3,r3
        0x00001180:    eb424222    B."B    ADC      r2,r2,r2,ASR #16
        0x00001184:    ea5f2c13    _..,    LSRS     r12,r3,#8
        0x00001188:    eb4c50c2    L..P    ADC      r0,r12,r2,LSL #23
        0x0000118c:    bf2e        ..      ITEE     CS
        0x0000118e:    ebbc6f43    ..Co    CMPCS    r12,r3,LSL #25
        0x00001192:    f5b20f7c    ..|.    CMPCC    r2,#0xfc0000
        0x00001196:    4770        pG      BXCC     lr
        0x00001198:    ea4f6c03    O..l    LSL      r12,r3,#24
        0x0000119c:    f1bc4f00    ...O    CMP      r12,#0x80000000
        0x000011a0:    bf08        ..      IT       EQ
        0x000011a2:    f0200001     ...    BICEQ    r0,r0,#1
        0x000011a6:    f5b20f7c    ..|.    CMP      r2,#0xfc0000
        0x000011aa:    bf38        8.      IT       CC
        0x000011ac:    4770        pG      BXCC     lr
        0x000011ae:    d50b        ..      BPL      0x11c8 ; __aeabi_fmul + 148
        0x000011b0:    f08202ff    ....    EOR      r2,r2,#0xff
        0x000011b4:    f5123f80    ...?    CMN      r2,#0x10000
        0x000011b8:    bfc8        ..      IT       GT
        0x000011ba:    4770        pG      BXGT     lr
        0x000011bc:    f10040c0    ...@    ADD      r0,r0,#0x60000000
        0x000011c0:    bfd8        ..      IT       LE
        0x000011c2:    f0004000    ...@    ANDLE    r0,r0,#0x80000000
        0x000011c6:    4770        pG      BX       lr
        0x000011c8:    f5000c00    ....    ADD      r12,r0,#0x800000
        0x000011cc:    ea5f0c4c    _.L.    LSLS     r12,r12,#1
        0x000011d0:    bf48        H.      IT       MI
        0x000011d2:    4770        pG      BXMI     lr
        0x000011d4:    f1b040c0    ...@    SUBS     r0,r0,#0x60000000
        0x000011d8:    f000b873    ..s.    B.W      __fpl_fretinf ; 0x12c2
        0x000011dc:    ea900f01    ....    TEQ      r0,r1
        0x000011e0:    ea0c13d1    ....    AND      r3,r12,r1,LSR #7
        0x000011e4:    bf48        H.      IT       MI
        0x000011e6:    f4427280    B..r    ORRMI    r2,r2,#0x100
        0x000011ea:    4562        bE      CMP      r2,r12
        0x000011ec:    bf38        8.      IT       CC
        0x000011ee:    4563        cE      CMPCC    r3,r12
        0x000011f0:    d204        ..      BCS      0x11fc ; __aeabi_fmul + 200
        0x000011f2:    ea800001    ....    EOR      r0,r0,r1
        0x000011f6:    f0004000    ...@    AND      r0,r0,#0x80000000
        0x000011fa:    4770        pG      BX       lr
        0x000011fc:    b510        ..      PUSH     {r4,lr}
        0x000011fe:    f000f81a    ....    BL       __fpl_fnaninf ; 0x1236
        0x00001202:    bf00        ..      NOP      
    $d
        0x00001204:    3e010089    ...>    DCD    1040253065
    $t
        0x00001208:    f000b807    ....    B.W      0x121a ; __aeabi_fmul + 230
        0x0000120c:    f000b809    ....    B.W      0x1222 ; __aeabi_fmul + 238
        0x00001210:    ea5f0c41    _.A.    LSLS     r12,r1,#1
        0x00001214:    ea5f6c1c    _..l    LSRS     r12,r12,#24
        0x00001218:    d008        ..      BEQ      0x122c ; __aeabi_fmul + 248
        0x0000121a:    ea800001    ....    EOR      r0,r0,r1
        0x0000121e:    f000b850    ..P.    B.W      __fpl_fretinf ; 0x12c2
        0x00001222:    ea5f0c40    _.@.    LSLS     r12,r0,#1
        0x00001226:    ea5f6c1c    _..l    LSRS     r12,r12,#24
        0x0000122a:    d1f6        ..      BNE      0x121a ; __aeabi_fmul + 230
        0x0000122c:    f04f4000    O..@    MOV      r0,#0x80000000
        0x00001230:    f5a00080    ....    SUB      r0,r0,#0x400000
        0x00001234:    4770        pG      BX       lr
    x$fpl$fnaninf
    __fpl_fnaninf
        0x00001236:    f10e0e02    ....    ADD      lr,lr,#2
        0x0000123a:    f02e0e03    ....    BIC      lr,lr,#3
        0x0000123e:    f85e4b04    ^..K    LDR      r4,[lr],#4
        0x00001242:    4224        $B      TST      r4,r4
        0x00001244:    d404        ..      BMI      0x1250 ; __fpl_fnaninf + 26
        0x00001246:    ea4f0241    O.A.    LSL      r2,r1,#1
        0x0000124a:    f1b24f7f    ...O    CMP      r2,#0xff000000
        0x0000124e:    d811        ..      BHI      0x1274 ; __fpl_fnaninf + 62
        0x00001250:    ea4f0340    O.@.    LSL      r3,r0,#1
        0x00001254:    f1b34f7f    ...O    CMP      r3,#0xff000000
        0x00001258:    d80c        ..      BHI      0x1274 ; __fpl_fnaninf + 62
        0x0000125a:    d10e        ..      BNE      0x127a ; __fpl_fnaninf + 68
        0x0000125c:    ea4f7cd0    O..|    LSR      r12,r0,#31
        0x00001260:    f1b24f7f    ...O    CMP      r2,#0xff000000
        0x00001264:    eb0c0c4c    ..L.    ADD      r12,r12,r12,LSL #1
        0x00001268:    f10c0c02    ....    ADD      r12,r12,#2
        0x0000126c:    bf08        ..      IT       EQ
        0x0000126e:    eb4c7cd1    L..|    ADCEQ    r12,r12,r1,LSR #31
        0x00001272:    e004        ..      B        0x127e ; __fpl_fnaninf + 72
        0x00001274:    f04f0c08    O...    MOV      r12,#8
        0x00001278:    e001        ..      B        0x127e ; __fpl_fnaninf + 72
        0x0000127a:    ea4f7cd1    O..|    LSR      r12,r1,#31
        0x0000127e:    eb0c034c    ..L.    ADD      r3,r12,r12,LSL #1
        0x00001282:    fa24f403    $...    LSR      r4,r4,r3
        0x00001286:    f0040407    ....    AND      r4,r4,#7
        0x0000128a:    f1b40c04    ....    SUBS     r12,r4,#4
        0x0000128e:    d206        ..      BCS      0x129e ; __fpl_fnaninf + 104
        0x00001290:    eb0e0c84    ....    ADD      r12,lr,r4,LSL #2
        0x00001294:    e8bd4010    ...@    POP      {r4,lr}
        0x00001298:    f04c0c01    L...    ORR      r12,r12,#1
        0x0000129c:    4760        `G      BX       r12
        0x0000129e:    e8dff00c    ....    TBB      [pc,r12]
    $d
        0x000012a2:    0807        ..      DCW    2055
        0x000012a4:    0202        ..      DCW    514
    $t
        0x000012a6:    f04f4000    O..@    MOV      r0,#0x80000000
        0x000012aa:    f5a00080    ....    SUB      r0,r0,#0x400000
        0x000012ae:    bd10        ..      POP      {r4,pc}
        0x000012b0:    4608        .F      MOV      r0,r1
        0x000012b2:    0042        B.      LSLS     r2,r0,#1
        0x000012b4:    bf18        ..      IT       NE
        0x000012b6:    f1d27280    ...r    RSBSNE   r2,r2,#0x1000000
        0x000012ba:    bf88        ..      IT       HI
        0x000012bc:    f0004000    ...@    ANDHI    r0,r0,#0x80000000
        0x000012c0:    bd10        ..      POP      {r4,pc}
    x$fpl$fretinf
    __fpl_fretinf
        0x000012c2:    21ff        .!      MOVS     r1,#0xff
        0x000012c4:    ea4150d0    A..P    ORR      r0,r1,r0,LSR #23
        0x000012c8:    05c0        ..      LSLS     r0,r0,#23
        0x000012ca:    4770        pG      BX       lr
    x$fpl$fsub
    __aeabi_fsub
    _fsub
        0x000012cc:    ea900f01    ....    TEQ      r0,r1
        0x000012d0:    bf48        H.      IT       MI
        0x000012d2:    f0814100    ...A    EORMI    r1,r1,#0x80000000
        0x000012d6:    f53faea6    ?...    BMI      _fadd1 ; 0x1026
    _fsub1
        0x000012da:    1a42        B.      SUBS     r2,r0,r1
        0x000012dc:    d804        ..      BHI      0x12e8 ; _fsub1 + 14
        0x000012de:    f0824200    ...B    EOR      r2,r2,#0x80000000
        0x000012e2:    eba00002    ....    SUB      r0,r0,r2
        0x000012e6:    4411        .D      ADD      r1,r1,r2
        0x000012e8:    ea4f52d0    O..R    LSR      r2,r0,#23
        0x000012ec:    f04f4c7f    O..L    MOV      r12,#0xff000000
        0x000012f0:    ea1c0f41    ..A.    TST      r12,r1,LSL #1
        0x000012f4:    eba253d1    ...S    SUB      r3,r2,r1,LSR #23
        0x000012f8:    bf18        ..      IT       NE
        0x000012fa:    ea9c6f02    ...o    TEQNE    r12,r2,LSL #24
        0x000012fe:    d04a        J.      BEQ      0x1396 ; _fsub1 + 188
        0x00001300:    f04f4c00    O..L    MOV      r12,#0x80000000
        0x00001304:    ea4c2000    L..     ORR      r0,r12,r0,LSL #8
        0x00001308:    ea4c2101    L..!    ORR      r1,r12,r1,LSL #8
        0x0000130c:    fa21fc03    !...    LSR      r12,r1,r3
        0x00001310:    ebb00c0c    ....    SUBS     r12,r0,r12
        0x00001314:    d40f        ..      BMI      0x1336 ; _fsub1 + 92
        0x00001316:    f0120ffe    ....    TST      r2,#0xfe
        0x0000131a:    d036        6.      BEQ      0x138a ; _fsub1 + 176
        0x0000131c:    ea5f004c    _.L.    LSLS     r0,r12,#1
        0x00001320:    d51d        ..      BPL      0x135e ; _fsub1 + 132
        0x00001322:    1200        ..      ASRS     r0,r0,#8
        0x00001324:    eb4050c2    @..P    ADC      r0,r0,r2,LSL #23
        0x00001328:    bf38        8.      IT       CC
        0x0000132a:    4770        pG      BXCC     lr
        0x0000132c:    f01c0f3f    ..?.    TST      r12,#0x3f
        0x00001330:    bf18        ..      IT       NE
        0x00001332:    4770        pG      BXNE     lr
        0x00001334:    e00b        ..      B        0x134e ; _fsub1 + 116
        0x00001336:    f1a20201    ....    SUB      r2,r2,#1
        0x0000133a:    ea5f201c    _..     LSRS     r0,r12,#8
        0x0000133e:    eb4050c2    @..P    ADC      r0,r0,r2,LSL #23
        0x00001342:    bf38        8.      IT       CC
        0x00001344:    4770        pG      BXCC     lr
        0x00001346:    f01c0f7f    ....    TST      r12,#0x7f
        0x0000134a:    bf18        ..      IT       NE
        0x0000134c:    4770        pG      BXNE     lr
        0x0000134e:    f1c30320    .. .    RSB      r3,r3,#0x20
        0x00001352:    4099        .@      LSLS     r1,r1,r3
        0x00001354:    bf14        ..      ITE      NE
        0x00001356:    1e40        @.      SUBNE    r0,r0,#1
        0x00001358:    f0200001     ...    BICEQ    r0,r0,#1
        0x0000135c:    4770        pG      BX       lr
        0x0000135e:    0880        ..      LSRS     r0,r0,#2
        0x00001360:    ea4f2312    O..#    LSR      r3,r2,#8
        0x00001364:    bf08        ..      IT       EQ
        0x00001366:    4770        pG      BXEQ     lr
        0x00001368:    fab0fc80    ....    CLZ      r12,r0
        0x0000136c:    eba2020c    ....    SUB      r2,r2,r12
        0x00001370:    f1cc0c28    ..(.    RSB      r12,r12,#0x28
        0x00001374:    fa60f00c    `...    ROR      r0,r0,r12
        0x00001378:    ea932f12    .../    TEQ      r3,r2,LSR #8
        0x0000137c:    bf04        ..      ITT      EQ
        0x0000137e:    eb0050c2    ...P    ADDEQ    r0,r0,r2,LSL #23
        0x00001382:    4770        pG      BXEQ     lr
        0x00001384:    ea4f70c3    O..p    LSL      r0,r3,#31
        0x00001388:    4770        pG      BX       lr
        0x0000138a:    0a13        ..      LSRS     r3,r2,#8
        0x0000138c:    ea5f10dc    _...    LSRS     r0,r12,#7
        0x00001390:    bf08        ..      IT       EQ
        0x00001392:    4770        pG      BXEQ     lr
        0x00001394:    e7f6        ..      B        0x1384 ; _fsub1 + 170
        0x00001396:    ea9c6f02    ...o    TEQ      r12,r2,LSL #24
        0x0000139a:    d004        ..      BEQ      0x13a6 ; _fsub1 + 204
        0x0000139c:    ea100f5c    ..\.    TST      r0,r12,LSR #1
        0x000013a0:    bf08        ..      IT       EQ
        0x000013a2:    2000        .       MOVEQ    r0,#0
        0x000013a4:    4770        pG      BX       lr
        0x000013a6:    b510        ..      PUSH     {r4,lr}
        0x000013a8:    f7ffff45    ..E.    BL       __fpl_fnaninf ; 0x1236
    $d
        0x000013ac:    3ef6df40    @..>    DCD    1056366400
    $t
        0x000013b0:    f0814000    ...@    EOR      r0,r1,#0x80000000
        0x000013b4:    4770        pG      BX       lr
    x$fpl$usenofp
    __I$use$fp
        0x000013b6:    0000        ..      MOVS     r0,r0
    $d.realdata
    .constdata
        0x000013b8:    7f800000    ....    DCD    2139095040
        0x000013bc:    00000000    ....    DCD    0
    cz_ctype
        0x000013c0:    00000020     ...    DCD    32
        0x000013c4:    00010120     ...    DCD    65824
        0x000013c8:    00020220     ...    DCD    131616
        0x000013cc:    00030320     ...    DCD    197408
        0x000013d0:    00040420     ...    DCD    263200
        0x000013d4:    00050520     ...    DCD    328992
        0x000013d8:    00060620     ...    DCD    394784
        0x000013dc:    00070720     ...    DCD    460576
        0x000013e0:    00080820     ...    DCD    526368
        0x000013e4:    00090968    h...    DCD    592232
        0x000013e8:    000a0a28    (...    DCD    657960
        0x000013ec:    000b0b28    (...    DCD    723752
        0x000013f0:    000c0c28    (...    DCD    789544
        0x000013f4:    000d0d28    (...    DCD    855336
        0x000013f8:    000e0e20     ...    DCD    921120
        0x000013fc:    000f0f20     ...    DCD    986912
        0x00001400:    00101020     ...    DCD    1052704
        0x00001404:    00111120     ...    DCD    1118496
        0x00001408:    00121220     ...    DCD    1184288
        0x0000140c:    00131320     ...    DCD    1250080
        0x00001410:    00141420     ...    DCD    1315872
        0x00001414:    00151520     ...    DCD    1381664
        0x00001418:    00161620     ...    DCD    1447456
        0x0000141c:    00171720     ...    DCD    1513248
        0x00001420:    00181820     ...    DCD    1579040
        0x00001424:    00191920     ...    DCD    1644832
        0x00001428:    001a1a20     ...    DCD    1710624
        0x0000142c:    001b1b20     ...    DCD    1776416
        0x00001430:    001c1c20     ...    DCD    1842208
        0x00001434:    001d1d20     ...    DCD    1908000
        0x00001438:    001e1e20     ...    DCD    1973792
        0x0000143c:    001f1f20     ...    DCD    2039584
        0x00001440:    00202048    H  .    DCD    2105416
        0x00001444:    00212110    .!!.    DCD    2171152
        0x00001448:    00222210    ."".    DCD    2236944
        0x0000144c:    00232310    .##.    DCD    2302736
        0x00001450:    00242410    .$$.    DCD    2368528
        0x00001454:    00252510    .%%.    DCD    2434320
        0x00001458:    00262610    .&&.    DCD    2500112
        0x0000145c:    00272710    .''.    DCD    2565904
        0x00001460:    00282810    .((.    DCD    2631696
        0x00001464:    00292910    .)).    DCD    2697488
        0x00001468:    002a2a10    .**.    DCD    2763280
        0x0000146c:    002b2b10    .++.    DCD    2829072
        0x00001470:    002c2c10    .,,.    DCD    2894864
        0x00001474:    002d2d10    .--.    DCD    2960656
        0x00001478:    002e2e10    ....    DCD    3026448
        0x0000147c:    002f2f10    .//.    DCD    3092240
        0x00001480:    00303004    .00.    DCD    3158020
        0x00001484:    00313104    .11.    DCD    3223812
        0x00001488:    00323204    .22.    DCD    3289604
        0x0000148c:    00333304    .33.    DCD    3355396
        0x00001490:    00343404    .44.    DCD    3421188
        0x00001494:    00353504    .55.    DCD    3486980
        0x00001498:    00363604    .66.    DCD    3552772
        0x0000149c:    00373704    .77.    DCD    3618564
        0x000014a0:    00383804    .88.    DCD    3684356
        0x000014a4:    00393904    .99.    DCD    3750148
        0x000014a8:    003a3a10    .::.    DCD    3815952
        0x000014ac:    003b3b10    .;;.    DCD    3881744
        0x000014b0:    003c3c10    .<<.    DCD    3947536
        0x000014b4:    003d3d10    .==.    DCD    4013328
        0x000014b8:    003e3e10    .>>.    DCD    4079120
        0x000014bc:    003f3f10    .??.    DCD    4144912
        0x000014c0:    00404010    .@@.    DCD    4210704
        0x000014c4:    00614181    .Aa.    DCD    6373761
        0x000014c8:    00624281    .Bb.    DCD    6439553
        0x000014cc:    00634381    .Cc.    DCD    6505345
        0x000014d0:    00644481    .Dd.    DCD    6571137
        0x000014d4:    00654581    .Ee.    DCD    6636929
        0x000014d8:    00664681    .Ff.    DCD    6702721
        0x000014dc:    00674701    .Gg.    DCD    6768385
        0x000014e0:    00684801    .Hh.    DCD    6834177
        0x000014e4:    00694901    .Ii.    DCD    6899969
        0x000014e8:    006a4a01    .Jj.    DCD    6965761
        0x000014ec:    006b4b01    .Kk.    DCD    7031553
        0x000014f0:    006c4c01    .Ll.    DCD    7097345
        0x000014f4:    006d4d01    .Mm.    DCD    7163137
        0x000014f8:    006e4e01    .Nn.    DCD    7228929
        0x000014fc:    006f4f01    .Oo.    DCD    7294721
        0x00001500:    00705001    .Pp.    DCD    7360513
        0x00001504:    00715101    .Qq.    DCD    7426305
        0x00001508:    00725201    .Rr.    DCD    7492097
        0x0000150c:    00735301    .Ss.    DCD    7557889
        0x00001510:    00745401    .Tt.    DCD    7623681
        0x00001514:    00755501    .Uu.    DCD    7689473
        0x00001518:    00765601    .Vv.    DCD    7755265
        0x0000151c:    00775701    .Ww.    DCD    7821057
        0x00001520:    00785801    .Xx.    DCD    7886849
        0x00001524:    00795901    .Yy.    DCD    7952641
        0x00001528:    007a5a01    .Zz.    DCD    8018433
        0x0000152c:    005b5b10    .[[.    DCD    5987088
        0x00001530:    005c5c10    .\\.    DCD    6052880
        0x00001534:    005d5d10    .]].    DCD    6118672
        0x00001538:    005e5e10    .^^.    DCD    6184464
        0x0000153c:    005f5f10    .__.    DCD    6250256
        0x00001540:    00606010    .``.    DCD    6316048
        0x00001544:    00614182    .Aa.    DCD    6373762
        0x00001548:    00624282    .Bb.    DCD    6439554
        0x0000154c:    00634382    .Cc.    DCD    6505346
        0x00001550:    00644482    .Dd.    DCD    6571138
        0x00001554:    00654582    .Ee.    DCD    6636930
        0x00001558:    00664682    .Ff.    DCD    6702722
        0x0000155c:    00674702    .Gg.    DCD    6768386
        0x00001560:    00684802    .Hh.    DCD    6834178
        0x00001564:    00694902    .Ii.    DCD    6899970
        0x00001568:    006a4a02    .Jj.    DCD    6965762
        0x0000156c:    006b4b02    .Kk.    DCD    7031554
        0x00001570:    006c4c02    .Ll.    DCD    7097346
        0x00001574:    006d4d02    .Mm.    DCD    7163138
        0x00001578:    006e4e02    .Nn.    DCD    7228930
        0x0000157c:    006f4f02    .Oo.    DCD    7294722
        0x00001580:    00705002    .Pp.    DCD    7360514
        0x00001584:    00715102    .Qq.    DCD    7426306
        0x00001588:    00725202    .Rr.    DCD    7492098
        0x0000158c:    00735302    .Ss.    DCD    7557890
        0x00001590:    00745402    .Tt.    DCD    7623682
        0x00001594:    00755502    .Uu.    DCD    7689474
        0x00001598:    00765602    .Vv.    DCD    7755266
        0x0000159c:    00775702    .Ww.    DCD    7821058
        0x000015a0:    00785802    .Xx.    DCD    7886850
        0x000015a4:    00795902    .Yy.    DCD    7952642
        0x000015a8:    007a5a02    .Zz.    DCD    8018434
        0x000015ac:    007b7b10    .{{.    DCD    8092432
        0x000015b0:    007c7c10    .||.    DCD    8158224
        0x000015b4:    007d7d10    .}}.    DCD    8224016
        0x000015b8:    007e7e10    .~~.    DCD    8289808
        0x000015bc:    007f7f20     ...    DCD    8355616
        0x000015c0:    00808000    ....    DCD    8421376
        0x000015c4:    00818100    ....    DCD    8487168
        0x000015c8:    00828200    ....    DCD    8552960
        0x000015cc:    00838300    ....    DCD    8618752
        0x000015d0:    00848400    ....    DCD    8684544
        0x000015d4:    00858500    ....    DCD    8750336
        0x000015d8:    00868600    ....    DCD    8816128
        0x000015dc:    00878700    ....    DCD    8881920
        0x000015e0:    00888800    ....    DCD    8947712
        0x000015e4:    00898900    ....    DCD    9013504
        0x000015e8:    008a8a00    ....    DCD    9079296
        0x000015ec:    008b8b00    ....    DCD    9145088
        0x000015f0:    008c8c00    ....    DCD    9210880
        0x000015f4:    008d8d00    ....    DCD    9276672
        0x000015f8:    008e8e00    ....    DCD    9342464
        0x000015fc:    008f8f00    ....    DCD    9408256
        0x00001600:    00909000    ....    DCD    9474048
        0x00001604:    00919100    ....    DCD    9539840
        0x00001608:    00929200    ....    DCD    9605632
        0x0000160c:    00939300    ....    DCD    9671424
        0x00001610:    00949400    ....    DCD    9737216
        0x00001614:    00959500    ....    DCD    9803008
        0x00001618:    00969600    ....    DCD    9868800
        0x0000161c:    00979700    ....    DCD    9934592
        0x00001620:    00989800    ....    DCD    10000384
        0x00001624:    00999900    ....    DCD    10066176
        0x00001628:    009a9a00    ....    DCD    10131968
        0x0000162c:    009b9b00    ....    DCD    10197760
        0x00001630:    009c9c00    ....    DCD    10263552
        0x00001634:    009d9d00    ....    DCD    10329344
        0x00001638:    009e9e00    ....    DCD    10395136
        0x0000163c:    009f9f00    ....    DCD    10460928
        0x00001640:    00a0a000    ....    DCD    10526720
        0x00001644:    00a1a100    ....    DCD    10592512
        0x00001648:    00a2a200    ....    DCD    10658304
        0x0000164c:    00a3a300    ....    DCD    10724096
        0x00001650:    00a4a400    ....    DCD    10789888
        0x00001654:    00a5a500    ....    DCD    10855680
        0x00001658:    00a6a600    ....    DCD    10921472
        0x0000165c:    00a7a700    ....    DCD    10987264
        0x00001660:    00a8a800    ....    DCD    11053056
        0x00001664:    00a9a900    ....    DCD    11118848
        0x00001668:    00aaaa00    ....    DCD    11184640
        0x0000166c:    00abab00    ....    DCD    11250432
        0x00001670:    00acac00    ....    DCD    11316224
        0x00001674:    00adad00    ....    DCD    11382016
        0x00001678:    00aeae00    ....    DCD    11447808
        0x0000167c:    00afaf00    ....    DCD    11513600
        0x00001680:    00b0b000    ....    DCD    11579392
        0x00001684:    00b1b100    ....    DCD    11645184
        0x00001688:    00b2b200    ....    DCD    11710976
        0x0000168c:    00b3b300    ....    DCD    11776768
        0x00001690:    00b4b400    ....    DCD    11842560
        0x00001694:    00b5b500    ....    DCD    11908352
        0x00001698:    00b6b600    ....    DCD    11974144
        0x0000169c:    00b7b700    ....    DCD    12039936
        0x000016a0:    00b8b800    ....    DCD    12105728
        0x000016a4:    00b9b900    ....    DCD    12171520
        0x000016a8:    00baba00    ....    DCD    12237312
        0x000016ac:    00bbbb00    ....    DCD    12303104
        0x000016b0:    00bcbc00    ....    DCD    12368896
        0x000016b4:    00bdbd00    ....    DCD    12434688
        0x000016b8:    00bebe00    ....    DCD    12500480
        0x000016bc:    00bfbf00    ....    DCD    12566272
        0x000016c0:    00c0c000    ....    DCD    12632064
        0x000016c4:    00c1c100    ....    DCD    12697856
        0x000016c8:    00c2c200    ....    DCD    12763648
        0x000016cc:    00c3c300    ....    DCD    12829440
        0x000016d0:    00c4c400    ....    DCD    12895232
        0x000016d4:    00c5c500    ....    DCD    12961024
        0x000016d8:    00c6c600    ....    DCD    13026816
        0x000016dc:    00c7c700    ....    DCD    13092608
        0x000016e0:    00c8c800    ....    DCD    13158400
        0x000016e4:    00c9c900    ....    DCD    13224192
        0x000016e8:    00caca00    ....    DCD    13289984
        0x000016ec:    00cbcb00    ....    DCD    13355776
        0x000016f0:    00cccc00    ....    DCD    13421568
        0x000016f4:    00cdcd00    ....    DCD    13487360
        0x000016f8:    00cece00    ....    DCD    13553152
        0x000016fc:    00cfcf00    ....    DCD    13618944
        0x00001700:    00d0d000    ....    DCD    13684736
        0x00001704:    00d1d100    ....    DCD    13750528
        0x00001708:    00d2d200    ....    DCD    13816320
        0x0000170c:    00d3d300    ....    DCD    13882112
        0x00001710:    00d4d400    ....    DCD    13947904
        0x00001714:    00d5d500    ....    DCD    14013696
        0x00001718:    00d6d600    ....    DCD    14079488
        0x0000171c:    00d7d700    ....    DCD    14145280
        0x00001720:    00d8d800    ....    DCD    14211072
        0x00001724:    00d9d900    ....    DCD    14276864
        0x00001728:    00dada00    ....    DCD    14342656
        0x0000172c:    00dbdb00    ....    DCD    14408448
        0x00001730:    00dcdc00    ....    DCD    14474240
        0x00001734:    00dddd00    ....    DCD    14540032
        0x00001738:    00dede00    ....    DCD    14605824
        0x0000173c:    00dfdf00    ....    DCD    14671616
        0x00001740:    00e0e000    ....    DCD    14737408
        0x00001744:    00e1e100    ....    DCD    14803200
        0x00001748:    00e2e200    ....    DCD    14868992
        0x0000174c:    00e3e300    ....    DCD    14934784
        0x00001750:    00e4e400    ....    DCD    15000576
        0x00001754:    00e5e500    ....    DCD    15066368
        0x00001758:    00e6e600    ....    DCD    15132160
        0x0000175c:    00e7e700    ....    DCD    15197952
        0x00001760:    00e8e800    ....    DCD    15263744
        0x00001764:    00e9e900    ....    DCD    15329536
        0x00001768:    00eaea00    ....    DCD    15395328
        0x0000176c:    00ebeb00    ....    DCD    15461120
        0x00001770:    00ecec00    ....    DCD    15526912
        0x00001774:    00eded00    ....    DCD    15592704
        0x00001778:    00eeee00    ....    DCD    15658496
        0x0000177c:    00efef00    ....    DCD    15724288
        0x00001780:    00f0f000    ....    DCD    15790080
        0x00001784:    00f1f100    ....    DCD    15855872
        0x00001788:    00f2f200    ....    DCD    15921664
        0x0000178c:    00f3f300    ....    DCD    15987456
        0x00001790:    00f4f400    ....    DCD    16053248
        0x00001794:    00f5f500    ....    DCD    16119040
        0x00001798:    00f6f600    ....    DCD    16184832
        0x0000179c:    00f7f700    ....    DCD    16250624
        0x000017a0:    00f8f800    ....    DCD    16316416
        0x000017a4:    00f9f900    ....    DCD    16382208
        0x000017a8:    00fafa00    ....    DCD    16448000
        0x000017ac:    00fbfb00    ....    DCD    16513792
        0x000017b0:    00fcfc00    ....    DCD    16579584
        0x000017b4:    00fdfd00    ....    DCD    16645376
        0x000017b8:    00fefe00    ....    DCD    16711168
        0x000017bc:    00ffff00    ....    DCD    16776960
    .constdata
    tyj_unit_struct_1
        0x000017c0:    2000001c    ...     DCD    536870940
        0x000017c4:    00000004    ....    DCD    4
        0x000017c8:    20000008    ...     DCD    536870920
        0x000017cc:    00000002    ....    DCD    2
        0x000017d0:    2000000a    ...     DCD    536870922
        0x000017d4:    00000002    ....    DCD    2
        0x000017d8:    2000000c    ...     DCD    536870924
        0x000017dc:    00000002    ....    DCD    2
        0x000017e0:    2000000e    ...     DCD    536870926
        0x000017e4:    00000002    ....    DCD    2
        0x000017e8:    20000010    ...     DCD    536870928
        0x000017ec:    00000002    ....    DCD    2
        0x000017f0:    20000012    ...     DCD    536870930
        0x000017f4:    00000002    ....    DCD    2
        0x000017f8:    20000014    ...     DCD    536870932
        0x000017fc:    00000002    ....    DCD    2
        0x00001800:    20000016    ...     DCD    536870934
        0x00001804:    00000002    ....    DCD    2
        0x00001808:    20000018    ...     DCD    536870936
        0x0000180c:    00000002    ....    DCD    2
    tyj_unit_struct_2
        0x00001810:    2000001c    ...     DCD    536870940
        0x00001814:    00000004    ....    DCD    4
        0x00001818:    20000008    ...     DCD    536870920
        0x0000181c:    00000002    ....    DCD    2
        0x00001820:    2000000a    ...     DCD    536870922
        0x00001824:    00000002    ....    DCD    2
        0x00001828:    2000000c    ...     DCD    536870924
        0x0000182c:    00000002    ....    DCD    2
        0x00001830:    2000000e    ...     DCD    536870926
        0x00001834:    00000002    ....    DCD    2
        0x00001838:    20000010    ...     DCD    536870928
        0x0000183c:    00000002    ....    DCD    2
        0x00001840:    20000012    ...     DCD    536870930
        0x00001844:    00000002    ....    DCD    2
        0x00001848:    20000014    ...     DCD    536870932
        0x0000184c:    00000002    ....    DCD    2
        0x00001850:    20000016    ...     DCD    536870934
        0x00001854:    00000002    ....    DCD    2
        0x00001858:    20000018    ...     DCD    536870936
        0x0000185c:    00000002    ....    DCD    2
    .conststring
        0x00001860:    666e6f63    conf    DCD    1718513507
        0x00001864:    00000000    ....    DCD    0
        0x00001868:    00676863    chg.    DCD    6776931
        0x0000186c:    6c6c6163    call    DCD    1819042147
        0x00001870:    00000000    ....    DCD    0
        0x00001874:    706d7564    dump    DCD    1886221668
        0x00001878:    00000000    ....    DCD    0
        0x0000187c:    00746573    set.    DCD    7628147
    Region$$Table$$Base
        0x00001880:    000018a0    ....    DCD    6304
        0x00001884:    20000000    ...     DCD    536870912
        0x00001888:    00000080    ....    DCD    128
        0x0000188c:    0000017c    |...    DCD    380
        0x00001890:    00001920     ...    DCD    6432
        0x00001894:    20000080    ...     DCD    536871040
        0x00001898:    00001320     ...    DCD    4896
        0x0000189c:    00000198    ....    DCD    408
    Region$$Table$$Limit

** Section #2 'RW_IRAM1' (SHT_PROGBITS) [SHF_ALLOC + SHF_WRITE]
    Size   : 128 bytes (alignment 4)
    Address: 0x20000000

    0x20000000:   00 e1 f5 05 00 00 00 00 04 00 00 00 00 00 00 00    ................
    0x20000010:   00 00 00 00 00 00 00 00 00 00 00 00 00 00 00 00    ................
    0x20000020:   00 00 00 00 7c 18 00 00 60 18 00 00 68 18 00 00    ....|...`...h...
    0x20000030:   74 18 00 00 6c 18 00 00 95 03 00 00 59 03 00 00    t...l.......Y...
    0x20000040:   45 03 00 00 6f 03 00 00 1d 03 00 00 ad 08 00 00    E...o...........
    0x20000050:   89 07 00 00 65 05 00 00 79 05 00 00 0d 07 00 00    ....e...y.......
    0x20000060:   00 00 81 7f 00 00 83 7f 00 00 81 7f 00 00 83 7f    ................
    0x20000070:   00 00 00 00 00 00 82 7f 00 00 00 00 00 00 82 7f    ................


** Section #3 'RW_IRAM1' (SHT_NOBITS) [SHF_ALLOC + SHF_WRITE]
    Size   : 4896 bytes (alignment 8)
    Address: 0x20000080


** Section #4 '.debug_abbrev' (SHT_PROGBITS)
    Size   : 1476 bytes


** Section #5 '.debug_frame' (SHT_PROGBITS)
    Size   : 1892 bytes


** Section #6 '.debug_info' (SHT_PROGBITS)
    Size   : 27128 bytes


** Section #7 '.debug_line' (SHT_PROGBITS)
    Size   : 7852 bytes


** Section #8 '.debug_loc' (SHT_PROGBITS)
    Size   : 3676 bytes


** Section #9 '.debug_macinfo' (SHT_PROGBITS)
    Size   : 53976 bytes


** Section #10 '.debug_pubnames' (SHT_PROGBITS)
    Size   : 1253 bytes


** Section #11 '.symtab' (SHT_SYMTAB)
    Size   : 8112 bytes (alignment 4)
    String table #12 '.strtab'
    Last local symbol no. 284

    Symbol table .symtab (506 symbols, 284 local)

      #  Symbol Name                Value      Bind  Sec  Type  Vis  Size
    ========================================================================

      1  $d.realdata                0x00000000   Lc    1   --   De 
      2  $t                         0x00000140   Lc    1   --   De 
      3  $d                         0x00000174   Lc    1   --   De 
      4  $t                         0x0000017c   Lc    1   --   De 
      5  $d                         0x00000202   Lc    1   --   De 
      6  $t                         0x0000021c   Lc    1   --   De 
      7  $d                         0x00000284   Lc    1   --   De 
      8  $t                         0x00000288   Lc    1   --   De 
      9  $d                         0x00000290   Lc    1   --   De 
     10  $t                         0x00000294   Lc    1   --   De 
     11  $d                         0x000002fe   Lc    1   --   De 
     12  $t                         0x00000304   Lc    1   --   De 
     13  $d                         0x00000316   Lc    1   --   De 
     14  $t                         0x0000031c   Lc    1   --   De 
     15  $d                         0x0000055a   Lc    1   --   De 
     16  $t                         0x00000564   Lc    1   --   De 
     17  $d                         0x00000708   Lc    1   --   De 
     18  $t                         0x0000070c   Lc    1   --   De 
     19  $d                         0x000008a6   Lc    1   --   De 
     20  $t                         0x000008ac   Lc    1   --   De 
     21  $d                         0x000009a8   Lc    1   --   De 
     22  $t                         0x000009ac   Lc    1   --   De 
     23  $d                         0x000009b6   Lc    1   --   De 
     24  $t                         0x000009bc   Lc    1   --   De 
     25  $d                         0x000009c4   Lc    1   --   De 
     26  $t                         0x000009cc   Lc    1   --   De 
     27  $d                         0x000009ec   Lc    1   --   De 
     28  $t                         0x000009f0   Lc    1   --   De 
     29  $d                         0x00000a2a   Lc    1   --   De 
     30  $t                         0x00000a30   Lc    1   --   De 
     31  $d                         0x00000a6e   Lc    1   --   De 
     32  $t                         0x00000a78   Lc    1   --   De 
     33  $d                         0x00000bc6   Lc    1   --   De 
     34  $t                         0x00000bcc   Lc    1   --   De 
     35  $d                         0x00000c72   Lc    1   --   De 
     36  $t                         0x00000c78   Lc    1   --   De 
     37  $d                         0x00000e58   Lc    1   --   De 
     38  $t                         0x00000e74   Lc    1   --   De 
     39  $d                         0x00000eac   Lc    1   --   De 
     40  $t                         0x00000eb4   Lc    1   --   De 
     41  $d                         0x00000f08   Lc    1   --   De 
     42  $t                         0x00000f14   Lc    1   --   De 
     43  $d                         0x00000f68   Lc    1   --   De 
     44  $t                         0x00000f74   Lc    1   --   De 
     45  $d                         0x00000fac   Lc    1   --   De 
     46  $t                         0x00000fb0   Lc    1   --   De 
     47  $d                         0x00000ffe   Lc    1   --   De 
     48  $t                         0x00001004   Lc    1   --   De 
     49  $d                         0x000010d8   Lc    1   --   De 
     50  $t                         0x000010dc   Lc    1   --   De 
     51  $d                         0x00001204   Lc    1   --   De 
     52  $t                         0x00001208   Lc    1   --   De 
     53  $d                         0x000012a2   Lc    1   --   De 
     54  $t                         0x000012a6   Lc    1   --   De 
     55  $d                         0x000013ac   Lc    1   --   De 
     56  $t                         0x000013b0   Lc    1   --   De 
     57  $d.realdata                0x000013b8   Lc    1   --   De 
     58  $d.realdata                0x20000000   Lc    2   --   De 
     59  CMSIS\Device\Source\ARM\startup_CM3DS.s
                                    0x00000000   Lc  Abs  File  De 
     60  STACK                      0x20000fa0   Lc    3  Sect  De   0x400
     61  Stack_Mem                  0x20000fa0   Lc    3  Data  De   0x400
     62  __initial_sp               0x200013a0   Lc    3  Data  De 
     63  HEAP                       0x200003a0   Lc    3  Sect  De   0xc00
     64  Heap_Mem                   0x200003a0   Lc    3  Data  De   0xc00
     65  RESET                      0x00000000   Lc    1  Sect  De   0x140
     66  .text                      0x000001dc   Lc    1  Sect  De   0x40
     67  CMSIS\\Device\\Source\\system_CM3DS.c
                                    0x00000000   Lc  Abs  File  De 
     68  CMSIS\Device\Source\system_CM3DS.c
                                    0x00000000   Lc  Abs  File  De 
     69  i.SystemInit               0x000009bc   Lc    1  Sect  De 
     70  .data                      0x20000000   Lc    2  Sect  De   0x4
     71  CMSIS\\Device\\StdPeriph_Driver\\src\\CM3DS_gpio.c
                                    0x00000000   Lc  Abs  File  De 
     72  CMSIS\Device\StdPeriph_Driver\src\CM3DS_gpio.c
                                    0x00000000   Lc  Abs  File  De 
     73  i.GPIO_PinRemapConfig      0x00000296   Lc    1  Sect  De 
     74  CMSIS\\Device\\StdPeriph_Driver\\src\\CM3DS_rcc.c
                                    0x00000000   Lc  Abs  File  De 
     75  CMSIS\Device\StdPeriph_Driver\src\CM3DS_rcc.c
                                    0x00000000   Lc  Abs  File  De 
     76  i.RCC_APB1PeriphResetCmd   0x00000304   Lc    1  Sect  De 
     77  CMSIS\\Device\\StdPeriph_Driver\\src\\CM3DS_adc.c
                                    0x00000000   Lc  Abs  File  De 
     78  CMSIS\Device\StdPeriph_Driver\src\CM3DS_adc.c
                                    0x00000000   Lc  Abs  File  De 
     79  CMSIS\\Device\\StdPeriph_Driver\\src\\CM3DS_dma.c
                                    0x00000000   Lc  Abs  File  De 
     80  CMSIS\Device\StdPeriph_Driver\src\CM3DS_dma.c
                                    0x00000000   Lc  Abs  File  De 
     81  CMSIS\\Device\\StdPeriph_Driver\\src\\CM3DS_dualtimer.c
                                    0x00000000   Lc  Abs  File  De 
     82  CMSIS\Device\StdPeriph_Driver\src\CM3DS_dualtimer.c
                                    0x00000000   Lc  Abs  File  De 
     83  CMSIS\\Device\\StdPeriph_Driver\\src\\CM3DS_exti.c
                                    0x00000000   Lc  Abs  File  De 
     84  CMSIS\Device\StdPeriph_Driver\src\CM3DS_exti.c
                                    0x00000000   Lc  Abs  File  De 
     85  CMSIS\\Device\\StdPeriph_Driver\\src\\CM3DS_i2c.c
                                    0x00000000   Lc  Abs  File  De 
     86  CMSIS\Device\StdPeriph_Driver\src\CM3DS_i2c.c
                                    0x00000000   Lc  Abs  File  De 
     87  CMSIS\\Device\\StdPeriph_Driver\\src\\CM3DS_spi.c
                                    0x00000000   Lc  Abs  File  De 
     88  CMSIS\Device\StdPeriph_Driver\src\CM3DS_spi.c
                                    0x00000000   Lc  Abs  File  De 
     89  CMSIS\\Device\\StdPeriph_Driver\\src\\CM3DS_timer.c
                                    0x00000000   Lc  Abs  File  De 
     90  CMSIS\Device\StdPeriph_Driver\src\CM3DS_timer.c
                                    0x00000000   Lc  Abs  File  De 
     91  CMSIS\\Device\\StdPeriph_Driver\\src\\CM3DS_uart.c
                                    0x00000000   Lc  Abs  File  De 
     92  CMSIS\Device\StdPeriph_Driver\src\CM3DS_uart.c
                                    0x00000000   Lc  Abs  File  De 
     93  i.UART_GetFlagStatus       0x000009f0   Lc    1  Sect  De 
     94  i.UART_ITCLEAR             0x000009fe   Lc    1  Sect  De 
     95  i.UART_ITConfig            0x00000a06   Lc    1  Sect  De 
     96  i.UART_Init                0x00000a18   Lc    1  Sect  De 
     97  i.UART_ReceiveData         0x00000a30   Lc    1  Sect  De 
     98  i.UART_SendData            0x00000a3c   Lc    1  Sect  De 
     99  CMSIS\\Device\\StdPeriph_Driver\\src\\CM3DS_watchdog.c
                                    0x00000000   Lc  Abs  File  De 
    100  CMSIS\Device\StdPeriph_Driver\src\CM3DS_watchdog.c
                                    0x00000000   Lc  Abs  File  De 
    101  CMSIS\\Device\\StdPeriph_Driver\\src\\CM3DS_misc.c
                                    0x00000000   Lc  Abs  File  De 
    102  CMSIS\Device\StdPeriph_Driver\src\CM3DS_misc.c
                                    0x00000000   Lc  Abs  File  De 
    103  i.NVIC_Init                0x000002a0   Lc    1  Sect  De 
    104  src\\main.c                0x00000000   Lc  Abs  File  De 
    105  src\main.c                 0x00000000   Lc  Abs  File  De 
    106  i.main                     0x00000c84   Lc    1  Sect  De 
    107  i.nvicInit                 0x00000e74   Lc    1  Sect  De 
    108  i.uart0_init               0x00000fb0   Lc    1  Sect  De 
    109  i.uart_ahb_init            0x00001004   Lc    1  Sect  De 
    110  .bss                       0x20000080   Lc    3  Sect  De   0x100
    111  .data                      0x20000004   Lc    2  Sect  De   0x1c
    112  src\\delay.c               0x00000000   Lc  Abs  File  De 
    113  src\delay.c                0x00000000   Lc  Abs  File  De 
    114  src\scd.c                  0x00000000   Lc  Abs  File  De 
    115  i.SCD_CMD_CALL             0x0000031c   Lc    1  Sect  De 
    116  SCD_CMD_CALL               0x0000031d   Lc    1  Code  De   0x28
    117  i.SCD_CMD_CHG              0x00000344   Lc    1  Sect  De 
    118  SCD_CMD_CHG                0x00000345   Lc    1  Code  De   0x14
    119  i.SCD_CMD_CONF             0x00000358   Lc    1  Sect  De 
    120  SCD_CMD_CONF               0x00000359   Lc    1  Code  De   0x16
    121  i.SCD_CMD_DUMP             0x0000036e   Lc    1  Sect  De 
    122  SCD_CMD_DUMP               0x0000036f   Lc    1  Code  De   0x26
    123  i.SCD_CMD_SET              0x00000394   Lc    1  Sect  De 
    124  SCD_CMD_SET                0x00000395   Lc    1  Code  De   0x6c
    125  i.SCD_Rev1Byte             0x00000400   Lc    1  Sect  De 
    126  i.SCD_cmd_handle           0x0000047c   Lc    1  Sect  De 
    127  SCD_cmd_handle             0x0000047d   Lc    1  Code  De   0xde
    128  i.SCO_DEBUG                0x00000564   Lc    1  Sect  De 
    129  SCO_DEBUG                  0x00000565   Lc    1  Code  De   0x12
    130  i.SCO_DUMP                 0x00000578   Lc    1  Sect  De 
    131  SCO_DUMP                   0x00000579   Lc    1  Code  De   0x190
    132  i.SCO_PRINT                0x0000070c   Lc    1  Sect  De 
    133  SCO_PRINT                  0x0000070d   Lc    1  Code  De   0x7a
    134  i.SCO_VAR                  0x00000788   Lc    1  Sect  De 
    135  SCO_VAR                    0x00000789   Lc    1  Code  De   0x11e
    136  i.SCO_get                  0x000008ac   Lc    1  Sect  De 
    137  SCO_get                    0x000008ad   Lc    1  Code  De   0xfc
    138  i._atof_pow10              0x00000a48   Lc    1  Sect  De 
    139  _atof_pow10                0x00000a49   Lc    1  Code  De   0x26
    140  i._cz_strtoxl              0x00000a78   Lc    1  Sect  De 
    141  _cz_strtoxl                0x00000a79   Lc    1  Code  De   0x14e
    142  i.atof_tyj                 0x00000bcc   Lc    1  Sect  De 
    143  atof_tyj                   0x00000bcd   Lc    1  Code  De   0xa6
    144  i.cz_atol                  0x00000c78   Lc    1  Sect  De 
    145  cz_atol                    0x00000c79   Lc    1  Code  De   0xa
    146  i.scd_send1Byte            0x00000f74   Lc    1  Sect  De 
    147  .constdata                 0x000013b8   Lc    1  Sect  De   0x408
    148  .conststring               0x00001860   Lc    1  Sect  De   0x20
    149  .data                      0x20000020   Lc    2  Sect  De   0x40
    150  checkUint16Sum             0x20000020   Lc    2  Data  De   0x2
    151  checkUint16Sum             0x20000022   Lc    2  Data  De   0x2
    152  SCD_CMD_TAB                0x20000024   Lc    2  Data  De   0x14
    153  SCD_CMD_FCNS               0x20000038   Lc    2  Data  De   0x14
    154  SCD_PROTOCOL_FCNS          0x2000004c   Lc    2  Data  De   0x14
    155  src\scd_reg.c              0x00000000   Lc  Abs  File  De 
    156  i.scd_init_1               0x00000eb4   Lc    1  Sect  De 
    157  i.scd_init_2               0x00000f14   Lc    1  Sect  De 
    158  .bss                       0x20000180   Lc    3  Sect  De   0x1c0
    159  .constdata                 0x000017c0   Lc    1  Sect  De   0xa0
    160  .data                      0x20000060   Lc    2  Sect  De   0x20
    161  src\\int_handlers.c        0x00000000   Lc  Abs  File  De 
    162  src\int_handlers.c         0x00000000   Lc  Abs  File  De 
    163  i.SysTick_Handler          0x000009ac   Lc    1  Sect  De 
    164  i.UART0_Handler            0x000009cc   Lc    1  Sect  De 
    165  dc.s                       0x00000000   Lc  Abs  File  De 
    166  ../clib/memcpset.s         0x00000000   Lc  Abs  File  De 
    167  ../clib/heapaux.c          0x00000000   Lc  Abs  File  De 
    168  .text                      0x0000021c   Lc    1  Sect  De 
    169  ../clib/angel/startup.s    0x00000000   Lc  Abs  File  De 
    170  !!!main                    0x00000140   Lc    1  Sect  De   0x8
    171  ../fplib/faddsub.s         0x00000000   Lc  Abs  File  De 
    172  x$fpl$fadd                 0x00001018   Lc    1  Sect  De   0xc4
    173  _fadd1                     0x00001027   Lc    1  Code  De 
    174  x$fpl$fsub                 0x000012cc   Lc    1  Sect  De   0xea
    175  _fsub1                     0x000012db   Lc    1  Code  De 
    176  ../fplib/fflt.s            0x00000000   Lc  Abs  File  De 
    177  x$fpl$ffltu                0x0000110c   Lc    1  Sect  De   0x26
    178  x$fpl$fflt                 0x000010dc   Lc    1  Sect  De   0x30
    179  ../fplib/fmul.s            0x00000000   Lc  Abs  File  De 
    180  x$fpl$fmul                 0x00001134   Lc    1  Sect  De   0x102
    181  ../clib/angel/kernel.s     0x00000000   Lc  Abs  File  De 
    182  .ARM.Collect$$rtentry$$00000000
                                    0x000001bc   Lc    1  Sect  De 
    183  ../fplib/fnaninf.s         0x00000000   Lc  Abs  File  De 
    184  x$fpl$fnaninf              0x00001236   Lc    1  Sect  De   0x8c
    185  ../fplib/fretinf.s         0x00000000   Lc  Abs  File  De 
    186  x$fpl$fretinf              0x000012c2   Lc    1  Sect  De   0xa
    187  ../fplib/usenofp.s         0x00000000   Lc  Abs  File  De 
    188  x$fpl$usenofp              0x000013b6   Lc    1  Sect  De 
    189  ../clib/angel/kernel.s     0x00000000   Lc  Abs  File  De 
    190  .ARM.Collect$$rtentry$$00000002
                                    0x000001bc   Lc    1  Sect  De 
    191  .ARM.Collect$$rtentry$$00000009
                                    0x000001c2   Lc    1  Sect  De 
    192  .ARM.Collect$$rtentry$$0000000A
                                    0x000001c2   Lc    1  Sect  De   0x4
    193  .ARM.Collect$$rtentry$$0000000C
                                    0x000001c6   Lc    1  Sect  De 
    194  .ARM.Collect$$rtentry$$0000000D
                                    0x000001c6   Lc    1  Sect  De   0x8
    195  ../clib/angel/kernel.s     0x00000000   Lc  Abs  File  De 
    196  .ARM.Collect$$rtentry$$00000004
                                    0x000001bc   Lc    1  Sect  De   0x6
    197  ../clib/angel/sys.s        0x00000000   Lc  Abs  File  De 
    198  .text                      0x00000222   Lc    1  Sect  De   0x4a
    199  ../clib/stdlib.c           0x00000000   Lc  Abs  File  De 
    200  .text                      0x0000026c   Lc    1  Sect  De 
    201  ../clib/angel/boardlib.s   0x00000000   Lc  Abs  File  De 
    202  ../clib/angel/boardlib.s   0x00000000   Lc  Abs  File  De 
    203  ../clib/angel/boardlib.s   0x00000000   Lc  Abs  File  De 
    204  ../clib/libinit.s          0x00000000   Lc  Abs  File  De 
    205  .ARM.Collect$$libinit$$00000000
                                    0x000001b4   Lc    1  Sect  De   0x2
    206  ../clib/angel/sys.s        0x00000000   Lc  Abs  File  De 
    207  .text                      0x00000280   Lc    1  Sect  De   0x8
    208  .bss                       0x20000340   Lc    3  Sect  De   0x60
    209  ../clib/angel/kernel.s     0x00000000   Lc  Abs  File  De 
    210  .ARM.Collect$$rtexit$$00000000
                                    0x000001ce   Lc    1  Sect  De   0x2
    211  ../clib/libinit.s          0x00000000   Lc  Abs  File  De 
    212  .ARM.Collect$$libinit$$00000002
                                    0x000001b6   Lc    1  Sect  De 
    213  .ARM.Collect$$libinit$$00000004
                                    0x000001b6   Lc    1  Sect  De 
    214  .ARM.Collect$$libinit$$0000000A
                                    0x000001b6   Lc    1  Sect  De 
    215  .ARM.Collect$$libinit$$0000000C
                                    0x000001b6   Lc    1  Sect  De 
    216  .ARM.Collect$$libinit$$0000000E
                                    0x000001b6   Lc    1  Sect  De 
    217  .ARM.Collect$$libinit$$00000011
                                    0x000001b6   Lc    1  Sect  De 
    218  .ARM.Collect$$libinit$$00000013
                                    0x000001b6   Lc    1  Sect  De 
    219  .ARM.Collect$$libinit$$00000015
                                    0x000001b6   Lc    1  Sect  De 
    220  .ARM.Collect$$libinit$$00000017
                                    0x000001b6   Lc    1  Sect  De 
    221  .ARM.Collect$$libinit$$00000019
                                    0x000001b6   Lc    1  Sect  De 
    222  .ARM.Collect$$libinit$$0000001B
                                    0x000001b6   Lc    1  Sect  De 
    223  .ARM.Collect$$libinit$$0000001D
                                    0x000001b6   Lc    1  Sect  De 
    224  .ARM.Collect$$libinit$$0000001F
                                    0x000001b6   Lc    1  Sect  De 
    225  .ARM.Collect$$libinit$$00000021
                                    0x000001b6   Lc    1  Sect  De 
    226  .ARM.Collect$$libinit$$00000023
                                    0x000001b6   Lc    1  Sect  De 
    227  .ARM.Collect$$libinit$$00000025
                                    0x000001b6   Lc    1  Sect  De 
    228  .ARM.Collect$$libinit$$0000002C
                                    0x000001b6   Lc    1  Sect  De 
    229  .ARM.Collect$$libinit$$0000002E
                                    0x000001b6   Lc    1  Sect  De 
    230  .ARM.Collect$$libinit$$00000030
                                    0x000001b6   Lc    1  Sect  De 
    231  .ARM.Collect$$libinit$$00000032
                                    0x000001b6   Lc    1  Sect  De 
    232  .ARM.Collect$$libinit$$00000033
                                    0x000001b6   Lc    1  Sect  De   0x2
    233  ../clib/angel/kernel.s     0x00000000   Lc  Abs  File  De 
    234  .ARM.Collect$$rtexit$$00000002
                                    0x000001d0   Lc    1  Sect  De 
    235  .ARM.Collect$$rtexit$$00000003
                                    0x000001d0   Lc    1  Sect  De   0x4
    236  .ARM.Collect$$rtexit$$00000004
                                    0x000001d4   Lc    1  Sect  De   0x6
    237  ../clib/armsys.c           0x00000000   Lc  Abs  File  De 
    238  ../clib/armsys.c           0x00000000   Lc  Abs  File  De 
    239  ../fplib/fpinit.s          0x00000000   Lc  Abs  File  De 
    240  ../clib/angel/sysapp.c     0x00000000   Lc  Abs  File  De 
    241  .text                      0x00000288   Lc    1  Sect  De 
    242  ../clib/angel/boardlib.s   0x00000000   Lc  Abs  File  De 
    243  ../clib/armsys.c           0x00000000   Lc  Abs  File  De 
    244  ../clib/armsys.c           0x00000000   Lc  Abs  File  De 
    245  ../clib/libinit.s          0x00000000   Lc  Abs  File  De 
    246  .ARM.Collect$$libshutdown$$00000000
                                    0x000001b8   Lc    1  Sect  De   0x2
    247  ../clib/angel/sysapp.c     0x00000000   Lc  Abs  File  De 
    248  ../clib/angel/sys.s        0x00000000   Lc  Abs  File  De 
    249  .text                      0x00000294   Lc    1  Sect  De   0x2
    250  ../clib/angel/sys.s        0x00000000   Lc  Abs  File  De 
    251  .text                      0x00000296   Lc    1  Sect  De 
    252  ../clib/heapalloc.c        0x00000000   Lc  Abs  File  De 
    253  ../clib/signal.c           0x00000000   Lc  Abs  File  De 
    254  ../clib/signal.c           0x00000000   Lc  Abs  File  De 
    255  ../clib/libinit.s          0x00000000   Lc  Abs  File  De 
    256  .ARM.Collect$$libshutdown$$00000002
                                    0x000001ba   Lc    1  Sect  De 
    257  .ARM.Collect$$libshutdown$$00000004
                                    0x000001ba   Lc    1  Sect  De 
    258  .ARM.Collect$$libshutdown$$00000006
                                    0x000001ba   Lc    1  Sect  De 
    259  .ARM.Collect$$libshutdown$$00000009
                                    0x000001ba   Lc    1  Sect  De 
    260  .ARM.Collect$$libshutdown$$0000000C
                                    0x000001ba   Lc    1  Sect  De 
    261  .ARM.Collect$$libshutdown$$0000000E
                                    0x000001ba   Lc    1  Sect  De 
    262  .ARM.Collect$$libshutdown$$00000011
                                    0x000001ba   Lc    1  Sect  De 
    263  .ARM.Collect$$libshutdown$$00000012
                                    0x000001ba   Lc    1  Sect  De   0x2
    264  ../clib/angel/rt.s         0x00000000   Lc  Abs  File  De 
    265  ../clib/signal.c           0x00000000   Lc  Abs  File  De 
    266  ../clib/signal.c           0x00000000   Lc  Abs  File  De 
    267  ../clib/signal.c           0x00000000   Lc  Abs  File  De 
    268  ../clib/signal.c           0x00000000   Lc  Abs  File  De 
    269  ../clib/angel/sysapp.c     0x00000000   Lc  Abs  File  De 
    270  ../clib/signal.s           0x00000000   Lc  Abs  File  De 
    271  ../clib/signal.c           0x00000000   Lc  Abs  File  De 
    272  ../clib/signal.c           0x00000000   Lc  Abs  File  De 
    273  ../clib/signal.c           0x00000000   Lc  Abs  File  De 
    274  ../clib/signal.c           0x00000000   Lc  Abs  File  De 
    275  ../clib/signal.c           0x00000000   Lc  Abs  File  De 
    276  ../clib/signal.c           0x00000000   Lc  Abs  File  De 
    277  ../clib/signal.c           0x00000000   Lc  Abs  File  De 
    278  ../clib/signal.c           0x00000000   Lc  Abs  File  De 
    279  ../clib/angel/scatter.s    0x00000000   Lc  Abs  File  De 
    280  !!!scatter                 0x00000148   Lc    1  Sect  De   0x34
    281  ../clib/angel/handlers.s   0x00000000   Lc  Abs  File  De 
    282  !!handler_copy             0x0000017c   Lc    1  Sect  De   0x1a
    283  ../clib/angel/handlers.s   0x00000000   Lc  Abs  File  De 
    284  !!handler_zi               0x00000198   Lc    1  Sect  De   0x1c
    285  BuildAttributes$$THM_ISAv4$P$D$K$B$S$PE$A:L22UL41UL21$X:L11$S22US41US21$IEEE1$IW$USESV6$~STKCKD$USESV7$~SHL$OSPACE$ROPI$EBA8$UX$STANDARDLIB$REQ8$PRES8$EABIv2
                                    0x00000000   Gb  Abs   --   Hi 
    286  __ARM_use_no_argv          0x00000000   Gb  Abs   --   Hi 
    287  __Vectors                  0x00000000   Gb    1  Data  Hi   0x4
    288  __Vectors_End              0x00000140   Gb    1  Data  Hi 
    289  __Vectors_Size             0x00000140   Gb  Abs   --   Hi 
    290  __main                     0x00000141   Gb    1  Code  Hi   0x8
    291  __scatterload              0x00000149   Gb    1  Code  Hi 
    292  __scatterload_rt2          0x00000149   Gb    1  Code  Hi   0x2c
    293  __scatterload_rt2_thumb_only
                                    0x00000149   Gb    1  Code  Hi 
    294  __scatterload_null         0x00000157   Gb    1  Code  Hi 
    295  __scatterload_copy         0x0000017d   Gb    1  Code  Hi   0x1a
    296  __scatterload_zeroinit     0x00000199   Gb    1  Code  Hi   0x1c
    297  __rt_lib_init              0x000001b5   Gb    1  Code  De 
    298  __rt_lib_init_alloca_1     0x000001b7   Gb    1  Code  Hi 
    299  __rt_lib_init_argv_1       0x000001b7   Gb    1  Code  Hi 
    300  __rt_lib_init_atexit_1     0x000001b7   Gb    1  Code  Hi 
    301  __rt_lib_init_clock_1      0x000001b7   Gb    1  Code  Hi 
    302  __rt_lib_init_cpp_1        0x000001b7   Gb    1  Code  Hi 
    303  __rt_lib_init_exceptions_1 0x000001b7   Gb    1  Code  Hi 
    304  __rt_lib_init_fp_1         0x000001b7   Gb    1  Code  Hi 
    305  __rt_lib_init_fp_trap_1    0x000001b7   Gb    1  Code  Hi 
    306  __rt_lib_init_getenv_1     0x000001b7   Gb    1  Code  Hi 
    307  __rt_lib_init_heap_1       0x000001b7   Gb    1  Code  Hi 
    308  __rt_lib_init_lc_collate_1 0x000001b7   Gb    1  Code  Hi 
    309  __rt_lib_init_lc_ctype_1   0x000001b7   Gb    1  Code  Hi 
    310  __rt_lib_init_lc_monetary_1
                                    0x000001b7   Gb    1  Code  Hi 
    311  __rt_lib_init_lc_numeric_1 0x000001b7   Gb    1  Code  Hi 
    312  __rt_lib_init_lc_time_1    0x000001b7   Gb    1  Code  Hi 
    313  __rt_lib_init_preinit_1    0x000001b7   Gb    1  Code  Hi 
    314  __rt_lib_init_rand_1       0x000001b7   Gb    1  Code  Hi 
    315  __rt_lib_init_return       0x000001b7   Gb    1  Code  Hi 
    316  __rt_lib_init_signal_1     0x000001b7   Gb    1  Code  Hi 
    317  __rt_lib_init_stdio_1      0x000001b7   Gb    1  Code  Hi 
    318  __rt_lib_init_user_alloc_1 0x000001b7   Gb    1  Code  Hi 
    319  __rt_lib_shutdown          0x000001b9   Gb    1  Code  De 
    320  __rt_lib_shutdown_cpp_1    0x000001bb   Gb    1  Code  Hi 
    321  __rt_lib_shutdown_fini_1   0x000001bb   Gb    1  Code  Hi 
    322  __rt_lib_shutdown_fp_trap_1
                                    0x000001bb   Gb    1  Code  Hi 
    323  __rt_lib_shutdown_heap_1   0x000001bb   Gb    1  Code  Hi 
    324  __rt_lib_shutdown_return   0x000001bb   Gb    1  Code  Hi 
    325  __rt_lib_shutdown_signal_1 0x000001bb   Gb    1  Code  Hi 
    326  __rt_lib_shutdown_stdio_1  0x000001bb   Gb    1  Code  Hi 
    327  __rt_lib_shutdown_user_alloc_1
                                    0x000001bb   Gb    1  Code  Hi 
    328  __rt_entry                 0x000001bd   Gb    1  Code  Hi 
    329  __rt_entry_presh_1         0x000001bd   Gb    1  Code  Hi 
    330  __rt_entry_sh              0x000001bd   Gb    1  Code  Hi 
    331  __rt_entry_li              0x000001c3   Gb    1  Code  Hi 
    332  __rt_entry_postsh_1        0x000001c3   Gb    1  Code  Hi 
    333  __rt_entry_main            0x000001c7   Gb    1  Code  Hi 
    334  __rt_entry_postli_1        0x000001c7   Gb    1  Code  Hi 
    335  __rt_exit                  0x000001cf   Gb    1  Code  De 
    336  __rt_exit_ls               0x000001d1   Gb    1  Code  Hi 
    337  __rt_exit_prels_1          0x000001d1   Gb    1  Code  Hi 
    338  __rt_exit_exit             0x000001d5   Gb    1  Code  Hi 
    339  Reset_Handler              0x000001dd   Wk    1  Code  Hi   0x8
    340  NMI_Handler                0x000001e5   Wk    1  Code  Hi   0x2
    341  HardFault_Handler          0x000001e7   Wk    1  Code  Hi   0x2
    342  MemManage_Handler          0x000001e9   Wk    1  Code  Hi   0x2
    343  BusFault_Handler           0x000001eb   Wk    1  Code  Hi   0x2
    344  UsageFault_Handler         0x000001ed   Wk    1  Code  Hi   0x2
    345  SVC_Handler                0x000001ef   Wk    1  Code  Hi   0x2
    346  DebugMon_Handler           0x000001f1   Wk    1  Code  Hi   0x2
    347  PendSV_Handler             0x000001f3   Wk    1  Code  Hi   0x2
    348  ADC_Handler                0x000001f7   Wk    1  Code  Hi 
    349  DMACINTERR_Handler         0x000001f7   Wk    1  Code  Hi 
    350  DMACINTR_Handler           0x000001f7   Wk    1  Code  Hi 
    351  DMACINTTC_Handler          0x000001f7   Wk    1  Code  Hi 
    352  DUALTIMER_HANDLER          0x000001f7   Wk    1  Code  Hi 
    353  EXT0_Handler               0x000001f7   Wk    1  Code  Hi 
    354  EXT10_Handler              0x000001f7   Wk    1  Code  Hi 
    355  EXT11_Handler              0x000001f7   Wk    1  Code  Hi 
    356  EXT12_Handler              0x000001f7   Wk    1  Code  Hi 
    357  EXT13_Handler              0x000001f7   Wk    1  Code  Hi 
    358  EXT14_Handler              0x000001f7   Wk    1  Code  Hi 
    359  EXT15_Handler              0x000001f7   Wk    1  Code  Hi 
    360  EXT1_Handler               0x000001f7   Wk    1  Code  Hi 
    361  EXT2_Handler               0x000001f7   Wk    1  Code  Hi 
    362  EXT3_Handler               0x000001f7   Wk    1  Code  Hi 
    363  EXT4_Handler               0x000001f7   Wk    1  Code  Hi 
    364  EXT5_Handler               0x000001f7   Wk    1  Code  Hi 
    365  EXT6_Handler               0x000001f7   Wk    1  Code  Hi 
    366  EXT7_Handler               0x000001f7   Wk    1  Code  Hi 
    367  EXT8_Handler               0x000001f7   Wk    1  Code  Hi 
    368  EXT9_Handler               0x000001f7   Wk    1  Code  Hi 
    369  I2C_Handler                0x000001f7   Wk    1  Code  Hi 
    370  MPS2_SSP0_Handler          0x000001f7   Wk    1  Code  Hi 
    371  MPS2_SSP1_Handler          0x000001f7   Wk    1  Code  Hi 
    372  PORT0_0_Handler            0x000001f7   Wk    1  Code  Hi 
    373  PORT0_10_Handler           0x000001f7   Wk    1  Code  Hi 
    374  PORT0_11_Handler           0x000001f7   Wk    1  Code  Hi 
    375  PORT0_12_Handler           0x000001f7   Wk    1  Code  Hi 
    376  PORT0_13_Handler           0x000001f7   Wk    1  Code  Hi 
    377  PORT0_14_Handler           0x000001f7   Wk    1  Code  Hi 
    378  PORT0_15_Handler           0x000001f7   Wk    1  Code  Hi 
    379  PORT0_16_Handler           0x000001f7   Wk    1  Code  Hi 
    380  PORT0_17_Handler           0x000001f7   Wk    1  Code  Hi 
    381  PORT0_18_Handler           0x000001f7   Wk    1  Code  Hi 
    382  PORT0_19_Handler           0x000001f7   Wk    1  Code  Hi 
    383  PORT0_1_Handler            0x000001f7   Wk    1  Code  Hi 
    384  PORT0_20_Handler           0x000001f7   Wk    1  Code  Hi 
    385  PORT0_21_Handler           0x000001f7   Wk    1  Code  Hi 
    386  PORT0_22_Handler           0x000001f7   Wk    1  Code  Hi 
    387  PORT0_23_Handler           0x000001f7   Wk    1  Code  Hi 
    388  PORT0_24_Handler           0x000001f7   Wk    1  Code  Hi 
    389  PORT0_25_Handler           0x000001f7   Wk    1  Code  Hi 
    390  PORT0_26_Handler           0x000001f7   Wk    1  Code  Hi 
    391  PORT0_27_Handler           0x000001f7   Wk    1  Code  Hi 
    392  PORT0_28_Handler           0x000001f7   Wk    1  Code  Hi 
    393  PORT0_29_Handler           0x000001f7   Wk    1  Code  Hi 
    394  PORT0_2_Handler            0x000001f7   Wk    1  Code  Hi 
    395  PORT0_30_Handler           0x000001f7   Wk    1  Code  Hi 
    396  PORT0_31_Handler           0x000001f7   Wk    1  Code  Hi 
    397  PORT0_3_Handler            0x000001f7   Wk    1  Code  Hi 
    398  PORT0_4_Handler            0x000001f7   Wk    1  Code  Hi 
    399  PORT0_5_Handler            0x000001f7   Wk    1  Code  Hi 
    400  PORT0_6_Handler            0x000001f7   Wk    1  Code  Hi 
    401  PORT0_7_Handler            0x000001f7   Wk    1  Code  Hi 
    402  PORT0_8_Handler            0x000001f7   Wk    1  Code  Hi 
    403  PORT0_9_Handler            0x000001f7   Wk    1  Code  Hi 
    404  PORT0_COMB_Handler         0x000001f7   Wk    1  Code  Hi 
    405  Spare11_Handler            0x000001f7   Wk    1  Code  Hi 
    406  Spare13_Handler            0x000001f7   Wk    1  Code  Hi 
    407  Spare14_Handler            0x000001f7   Wk    1  Code  Hi 
    408  Spare15_Handler            0x000001f7   Wk    1  Code  Hi 
    409  Spare51_Handler            0x000001f7   Wk    1  Code  Hi 
    410  Spare52_Handler            0x000001f7   Wk    1  Code  Hi 
    411  Spare53_Handler            0x000001f7   Wk    1  Code  Hi 
    412  Spare54_Handler            0x000001f7   Wk    1  Code  Hi 
    413  Spare55_Handler            0x000001f7   Wk    1  Code  Hi 
    414  Spare56_Handler            0x000001f7   Wk    1  Code  Hi 
    415  Spare57_Handler            0x000001f7   Wk    1  Code  Hi 
    416  Spare58_Handler            0x000001f7   Wk    1  Code  Hi 
    417  Spare59_Handler            0x000001f7   Wk    1  Code  Hi 
    418  Spare60_Handler            0x000001f7   Wk    1  Code  Hi 
    419  Spare61_Handler            0x000001f7   Wk    1  Code  Hi 
    420  Spare62_Handler            0x000001f7   Wk    1  Code  Hi 
    421  Spare63_Handler            0x000001f7   Wk    1  Code  Hi 
    422  Spare7_Handler             0x000001f7   Wk    1  Code  Hi 
    423  TIMER0_Handler             0x000001f7   Wk    1  Code  Hi 
    424  TIMER1_Handler             0x000001f7   Wk    1  Code  Hi 
    425  UART1_Handler              0x000001f7   Wk    1  Code  Hi 
    426  UARTOVF_Handler            0x000001f7   Wk    1  Code  Hi 
    427  __user_initial_stackheap   0x000001f9   Gb    1  Code  Hi   0xa
    428  __use_two_region_memory    0x0000021d   Gb    1  Code  Hi   0x2
    429  __rt_heap_escrow$2region   0x0000021f   Gb    1  Code  De   0x2
    430  __rt_heap_expand$2region   0x00000221   Gb    1  Code  De   0x2
    431  __user_setup_stackheap     0x00000223   Gb    1  Code  De   0x4a
    432  exit                       0x0000026d   Gb    1  Code  De   0x12
    433  __user_libspace            0x00000281   Wk    1  Code  De   0x8
    434  __user_perproc_libspace    0x00000281   Wk    1  Code  De 
    435  __user_perthread_libspace  0x00000281   Wk    1  Code  De 
    436  _sys_exit                  0x00000289   Gb    1  Code  De   0x8
    437  __I$use$semihosting        0x00000295   Gb    1  Code  Hi 
    438  __use_no_semihosting_swi   0x00000295   Gb    1  Code  Hi   0x2
    439  GPIO_PinRemapConfig        0x00000297   Gb    1  Code  Hi   0xa
    440  __semihosting_library_function
                                    0x00000297   Gb    1  Code  Hi 
    441  NVIC_Init                  0x000002a1   Gb    1  Code  Hi   0x5e
    442  RCC_APB1PeriphResetCmd     0x00000305   Gb    1  Code  Hi   0x12
    443  SCD_Rev1Byte               0x00000401   Gb    1  Code  Hi   0x7a
    444  SysTick_Handler            0x000009ad   Gb    1  Code  Hi   0xa
    445  SystemInit                 0x000009bd   Gb    1  Code  Hi   0x8
    446  UART0_Handler              0x000009cd   Gb    1  Code  Hi   0x20
    447  UART_GetFlagStatus         0x000009f1   Gb    1  Code  Hi   0xe
    448  UART_ITCLEAR               0x000009ff   Gb    1  Code  Hi   0x8
    449  UART_ITConfig              0x00000a07   Gb    1  Code  Hi   0x10
    450  UART_Init                  0x00000a19   Gb    1  Code  Hi   0x12
    451  UART_ReceiveData           0x00000a31   Gb    1  Code  Hi   0xc
    452  UART_SendData              0x00000a3d   Gb    1  Code  Hi   0xa
    453  main                       0x00000c85   Gb    1  Code  Hi   0x1d4
    454  nvicInit                   0x00000e75   Gb    1  Code  Hi   0x38
    455  scd_init_1                 0x00000eb5   Gb    1  Code  Hi   0x54
    456  scd_init_2                 0x00000f15   Gb    1  Code  Hi   0x54
    457  scd_send1Byte              0x00000f75   Gb    1  Code  Hi   0x38
    458  uart0_init                 0x00000fb1   Gb    1  Code  Hi   0x4e
    459  uart_ahb_init              0x00001005   Gb    1  Code  Hi   0x14
    460  __aeabi_fadd               0x00001019   Gb    1  Code  Hi 
    461  _fadd                      0x00001019   Gb    1  Code  De   0xc4
    462  __aeabi_i2f                0x000010dd   Gb    1  Code  Hi 
    463  _fflt                      0x000010dd   Gb    1  Code  De   0x30
    464  __aeabi_ui2f               0x0000110d   Gb    1  Code  Hi 
    465  _ffltu                     0x0000110d   Gb    1  Code  De   0x26
    466  __aeabi_fmul               0x00001135   Gb    1  Code  Hi 
    467  _fmul                      0x00001135   Gb    1  Code  De   0x102
    468  __fpl_fnaninf              0x00001237   Gb    1  Code  De   0x8c
    469  __fpl_fretinf              0x000012c3   Gb    1  Code  De   0xa
    470  __aeabi_fsub               0x000012cd   Gb    1  Code  Hi 
    471  _fsub                      0x000012cd   Gb    1  Code  De   0xea
    472  __I$use$fp                 0x000013b6   Gb    1   --   De 
    473  cz_ctype                   0x000013c0   Gb    1  Data  Hi   0x400
    474  tyj_unit_struct_1          0x000017c0   Gb    1  Data  Hi   0x50
    475  tyj_unit_struct_2          0x00001810   Gb    1  Data  Hi   0x50
    476  Region$$Table$$Base        0x00001880   Gb    1   --   Hi 
    477  Region$$Table$$Limit       0x000018a0   Gb    1   --   Hi 
    478  SystemCoreClock            0x20000000   Gb    2  Data  Hi   0x4
    479  txdata                     0x20000004   Gb    2  Data  Hi   0x1
    480  rxdata                     0x20000005   Gb    2  Data  Hi   0x1
    481  rxbuffptr                  0x20000006   Gb    2  Data  Hi   0x1
    482  rwWay                      0x20000008   Gb    2  Data  Hi   0x2
    483  test1                      0x2000000a   Gb    2  Data  Hi   0x2
    484  test2                      0x2000000c   Gb    2  Data  Hi   0x2
    485  test3                      0x2000000e   Gb    2  Data  Hi   0x2
    486  test4                      0x20000010   Gb    2  Data  Hi   0x2
    487  test1r                     0x20000012   Gb    2  Data  Hi   0x2
    488  test2r                     0x20000014   Gb    2  Data  Hi   0x2
    489  test3r                     0x20000016   Gb    2  Data  Hi   0x2
    490  test4r                     0x20000018   Gb    2  Data  Hi   0x2
    491  ms_cnt                     0x2000001c   Gb    2  Data  Hi   0x4
    492  endBuff1_1                 0x20000060   Gb    2  Data  Hi   0x4
    493  endBuff3_1                 0x20000064   Gb    2  Data  Hi   0x4
    494  endBuff1_2                 0x20000068   Gb    2  Data  Hi   0x4
    495  endBuff3_2                 0x2000006c   Gb    2  Data  Hi   0x4
    496  endBuff2_1                 0x20000070   Gb    2  Data  Hi   0x8
    497  endBuff2_2                 0x20000078   Gb    2  Data  Hi   0x8
    498  rxbuff                     0x20000080   Gb    3  Data  Hi   0x100
    499  recBuff_1                  0x20000180   Gb    3  Data  Hi   0x50
    500  printBuff_1                0x200001d0   Gb    3  Data  Hi   0x28
    501  scd_1                      0x200001f8   Gb    3  Data  Hi   0x68
    502  recBuff_2                  0x20000260   Gb    3  Data  Hi   0x50
    503  printBuff_2                0x200002b0   Gb    3  Data  Hi   0x28
    504  scd_2                      0x200002d8   Gb    3  Data  Hi   0x68
    505  __libspace_start           0x20000340   Gb    3  Data  De   0x60
    506  __temporary_stack_top$libspace
                                    0x200003a0   Gb    3  Data  De 


** Section #12 '.strtab' (SHT_STRTAB)
    Size   : 7924 bytes


** Section #13 '.note' (SHT_NOTE)
    Size   : 28 bytes (alignment 4)


** Section #14 '.comment' (SHT_PROGBITS)
    Size   : 19124 bytes


** Section #15 '.shstrtab' (SHT_STRTAB)
    Size   : 156 bytes


