
========================================================================

** ELF Header Information

    File Name: D:\fpga\AC208-SA5Z30-CM3\workspace\deskClock\CM3\Objects\CM3.axf

    Machine class: ELFCLASS32 (32-bit)
    Data encoding: ELFDATA2LSB (Little endian)
    Header version: EV_CURRENT (Current version)
    Operating System ABI: none
    ABI Version: 0
    File Type: ET_EXEC (Executable) (2)
    Machine: EM_ARM (ARM)

    Image Entry point: 0x00000141
    Flags: EF_ARM_HASENTRY + EF_ARM_ABI_FLOAT_SOFT (0x05000202)

    ARM ELF revision: 5 (ABI version 2)

    Conforms to Soft float procedure-call standard

    Built with
    Component: ARM Compiler 5.06 update 7 (build 960) Tool: armasm [4d35fa]
    Component: ARM Compiler 5.06 update 7 (build 960) Tool: armlink [4d3601]

    Header size: 52 bytes (0x34)
    Program header entry size: 32 bytes (0x20)
    Section header entry size: 40 bytes (0x28)

    Program header entries: 1
    Section header entries: 16

    Program header offset: 363800 (0x00058d18)
    Section header offset: 363832 (0x00058d38)

    Section header string table index: 15

========================================================================

** Program header #0 (PT_LOAD) [PF_X + PF_W + PF_R + PF_ARM_ENTRY]
    Size : 51984 bytes (26572 bytes in file)
    Virtual address: 0x00000000 (Alignment 8)


========================================================================

** Section #1 'ER_IROM1' (SHT_PROGBITS) [SHF_ALLOC + SHF_EXECINSTR]
    Size   : 26296 bytes (alignment 4)
    Address: 0x00000000

    $d.realdata
    RESET
    __Vectors
        0x00000000:    20006458    Xd.     DCD    536896600
        0x00000004:    000002a9    ....    DCD    681
        0x00000008:    000002b1    ....    DCD    689
        0x0000000c:    000002b3    ....    DCD    691
        0x00000010:    000002b5    ....    DCD    693
        0x00000014:    000002b7    ....    DCD    695
        0x00000018:    000002b9    ....    DCD    697
        0x0000001c:    00000000    ....    DCD    0
        0x00000020:    00000000    ....    DCD    0
        0x00000024:    00000000    ....    DCD    0
        0x00000028:    00000000    ....    DCD    0
        0x0000002c:    00000209    ....    DCD    521
        0x00000030:    000002bd    ....    DCD    701
        0x00000034:    00000000    ....    DCD    0
        0x00000038:    0000024d    M...    DCD    589
        0x0000003c:    00002aa9    .*..    DCD    10921
        0x00000040:    00002ae5    .*..    DCD    10981
        0x00000044:    000002c3    ....    DCD    707
        0x00000048:    000002c3    ....    DCD    707
        0x0000004c:    000002c3    ....    DCD    707
        0x00000050:    000002c3    ....    DCD    707
        0x00000054:    000002c3    ....    DCD    707
        0x00000058:    000002c3    ....    DCD    707
        0x0000005c:    000002c3    ....    DCD    707
        0x00000060:    000002c3    ....    DCD    707
        0x00000064:    000002c3    ....    DCD    707
        0x00000068:    000002c3    ....    DCD    707
        0x0000006c:    000002c3    ....    DCD    707
        0x00000070:    000002c3    ....    DCD    707
        0x00000074:    000002c3    ....    DCD    707
        0x00000078:    000002c3    ....    DCD    707
        0x0000007c:    000002c3    ....    DCD    707
        0x00000080:    000002c3    ....    DCD    707
        0x00000084:    000002c3    ....    DCD    707
        0x00000088:    000002c3    ....    DCD    707
        0x0000008c:    000002c3    ....    DCD    707
        0x00000090:    000002c3    ....    DCD    707
        0x00000094:    000002c3    ....    DCD    707
        0x00000098:    000002c3    ....    DCD    707
        0x0000009c:    000002c3    ....    DCD    707
        0x000000a0:    000002c3    ....    DCD    707
        0x000000a4:    000002c3    ....    DCD    707
        0x000000a8:    000002c3    ....    DCD    707
        0x000000ac:    000002c3    ....    DCD    707
        0x000000b0:    000002c3    ....    DCD    707
        0x000000b4:    000002c3    ....    DCD    707
        0x000000b8:    000002c3    ....    DCD    707
        0x000000bc:    000002c3    ....    DCD    707
        0x000000c0:    000002c3    ....    DCD    707
        0x000000c4:    000002c3    ....    DCD    707
        0x000000c8:    000002c3    ....    DCD    707
        0x000000cc:    000002c3    ....    DCD    707
        0x000000d0:    000002c3    ....    DCD    707
        0x000000d4:    000002c3    ....    DCD    707
        0x000000d8:    000002c3    ....    DCD    707
        0x000000dc:    000002c3    ....    DCD    707
        0x000000e0:    000002c3    ....    DCD    707
        0x000000e4:    000002c3    ....    DCD    707
        0x000000e8:    000002c3    ....    DCD    707
        0x000000ec:    000002c3    ....    DCD    707
        0x000000f0:    000002c3    ....    DCD    707
        0x000000f4:    000002c3    ....    DCD    707
        0x000000f8:    000002c3    ....    DCD    707
        0x000000fc:    000002c3    ....    DCD    707
        0x00000100:    000002c3    ....    DCD    707
        0x00000104:    000002c3    ....    DCD    707
        0x00000108:    000002c3    ....    DCD    707
        0x0000010c:    000002c3    ....    DCD    707
        0x00000110:    000002c3    ....    DCD    707
        0x00000114:    000002c3    ....    DCD    707
        0x00000118:    000002c3    ....    DCD    707
        0x0000011c:    000002c3    ....    DCD    707
        0x00000120:    000002c3    ....    DCD    707
        0x00000124:    000002c3    ....    DCD    707
        0x00000128:    000002c3    ....    DCD    707
        0x0000012c:    000002c3    ....    DCD    707
        0x00000130:    000002c3    ....    DCD    707
        0x00000134:    000002c3    ....    DCD    707
        0x00000138:    000002c3    ....    DCD    707
        0x0000013c:    000002c3    ....    DCD    707
    $t
    !!!main
    __Vectors_End
    __main
        0x00000140:    f000f802    ....    BL       __scatterload ; 0x148
        0x00000144:    f000f850    ..P.    BL       __rt_entry ; 0x1e8
    !!!scatter
    __scatterload
    __scatterload_rt2
    __scatterload_rt2_thumb_only
        0x00000148:    a00a        ..      ADR      r0,{pc}+0x2c ; 0x174
        0x0000014a:    e8900c00    ....    LDM      r0,{r10,r11}
        0x0000014e:    4482        .D      ADD      r10,r10,r0
        0x00000150:    4483        .D      ADD      r11,r11,r0
        0x00000152:    f1aa0701    ....    SUB      r7,r10,#1
    __scatterload_null
        0x00000156:    45da        .E      CMP      r10,r11
        0x00000158:    d101        ..      BNE      0x15e ; __scatterload_null + 8
        0x0000015a:    f000f845    ..E.    BL       __rt_entry ; 0x1e8
        0x0000015e:    f2af0e09    ....    ADR      lr,{pc}-7 ; 0x157
        0x00000162:    e8ba000f    ....    LDM      r10!,{r0-r3}
        0x00000166:    f0130f01    ....    TST      r3,#1
        0x0000016a:    bf18        ..      IT       NE
        0x0000016c:    1afb        ..      SUBNE    r3,r7,r3
        0x0000016e:    f0430301    C...    ORR      r3,r3,#1
        0x00000172:    4718        .G      BX       r3
    $d
        0x00000174:    00006508    .e..    DCD    25864
        0x00000178:    00006528    (e..    DCD    25896
    $t
    !!handler_copy
    __scatterload_copy
        0x0000017c:    3a10        .:      SUBS     r2,r2,#0x10
        0x0000017e:    bf24        $.      ITT      CS
        0x00000180:    c878        x.      LDMCS    r0!,{r3-r6}
        0x00000182:    c178        x.      STMCS    r1!,{r3-r6}
        0x00000184:    d8fa        ..      BHI      __scatterload_copy ; 0x17c
        0x00000186:    0752        R.      LSLS     r2,r2,#29
        0x00000188:    bf24        $.      ITT      CS
        0x0000018a:    c830        0.      LDMCS    r0!,{r4,r5}
        0x0000018c:    c130        0.      STMCS    r1!,{r4,r5}
        0x0000018e:    bf44        D.      ITT      MI
        0x00000190:    6804        .h      LDRMI    r4,[r0,#0]
        0x00000192:    600c        .`      STRMI    r4,[r1,#0]
        0x00000194:    4770        pG      BX       lr
        0x00000196:    0000        ..      MOVS     r0,r0
    !!handler_zi
    __scatterload_zeroinit
        0x00000198:    2300        .#      MOVS     r3,#0
        0x0000019a:    2400        .$      MOVS     r4,#0
        0x0000019c:    2500        .%      MOVS     r5,#0
        0x0000019e:    2600        .&      MOVS     r6,#0
        0x000001a0:    3a10        .:      SUBS     r2,r2,#0x10
        0x000001a2:    bf28        (.      IT       CS
        0x000001a4:    c178        x.      STMCS    r1!,{r3-r6}
        0x000001a6:    d8fb        ..      BHI      0x1a0 ; __scatterload_zeroinit + 8
        0x000001a8:    0752        R.      LSLS     r2,r2,#29
        0x000001aa:    bf28        (.      IT       CS
        0x000001ac:    c130        0.      STMCS    r1!,{r4,r5}
        0x000001ae:    bf48        H.      IT       MI
        0x000001b0:    600b        .`      STRMI    r3,[r1,#0]
        0x000001b2:    4770        pG      BX       lr
    .ARM.Collect$$_printf_percent$$00000003
    .ARM.Collect$$_printf_percent$$00000000
    _printf_f
    _printf_percent
        0x000001b4:    2966        f)      CMP      r1,#0x66
        0x000001b6:    f0058452    ..R.    BEQ.W    _printf_fp_dec ; 0x5a5e
    .ARM.Collect$$_printf_percent$$00000009
    _printf_d
        0x000001ba:    2964        d)      CMP      r1,#0x64
        0x000001bc:    f0008102    ....    BEQ.W    _printf_int_dec ; 0x3c4
    .ARM.Collect$$_printf_percent$$0000000C
    _printf_x
        0x000001c0:    2978        x)      CMP      r1,#0x78
        0x000001c2:    f000813b    ..;.    BEQ.W    _printf_int_hex ; 0x43c
    .ARM.Collect$$_printf_percent$$00000014
    _printf_s
        0x000001c6:    2973        s)      CMP      r1,#0x73
        0x000001c8:    f0008531    ..1.    BEQ.W    _printf_string ; 0xc2e
    .ARM.Collect$$_printf_percent$$00000017
    _printf_percent_end
        0x000001cc:    2000        .       MOVS     r0,#0
        0x000001ce:    4770        pG      BX       lr
    .ARM.Collect$$libinit$$00000000
    __rt_lib_init
        0x000001d0:    b51f        ..      PUSH     {r0-r4,lr}
    .ARM.Collect$$libinit$$00000002
    .ARM.Collect$$libinit$$00000004
    .ARM.Collect$$libinit$$0000000A
    .ARM.Collect$$libinit$$0000000C
    .ARM.Collect$$libinit$$0000000E
    .ARM.Collect$$libinit$$0000000F
    __rt_lib_init_fp_1
    __rt_lib_init_heap_1
    __rt_lib_init_lc_common
    __rt_lib_init_preinit_1
    __rt_lib_init_rand_1
    __rt_lib_init_user_alloc_1
        0x000001d2:    f000fd75    ..u.    BL       __rt_locale ; 0xcc0
        0x000001d6:    0004        ..      MOVS     r4,r0
    .ARM.Collect$$libinit$$00000011
    .ARM.Collect$$libinit$$00000013
    .ARM.Collect$$libinit$$00000015
    .ARM.Collect$$libinit$$00000016
    __rt_lib_init_lc_collate_1
    __rt_lib_init_lc_ctype_1
    __rt_lib_init_lc_monetary_1
    __rt_lib_init_lc_numeric_2
        0x000001d8:    2000        .       MOVS     r0,#0
        0x000001da:    2100        .!      MOVS     r1,#0
        0x000001dc:    f005f924    ..$.    BL       _get_lc_numeric ; 0x5428
        0x000001e0:    60e0        .`      STR      r0,[r4,#0xc]
    .ARM.Collect$$libinit$$00000017
    .ARM.Collect$$libinit$$00000019
    .ARM.Collect$$libinit$$0000001B
    .ARM.Collect$$libinit$$0000001D
    .ARM.Collect$$libinit$$0000001F
    .ARM.Collect$$libinit$$00000021
    .ARM.Collect$$libinit$$00000023
    .ARM.Collect$$libinit$$00000025
    .ARM.Collect$$libinit$$0000002C
    .ARM.Collect$$libinit$$0000002E
    .ARM.Collect$$libinit$$00000030
    .ARM.Collect$$libinit$$00000032
    .ARM.Collect$$libinit$$00000033
    __rt_lib_init_alloca_1
    __rt_lib_init_argv_1
    __rt_lib_init_atexit_1
    __rt_lib_init_clock_1
    __rt_lib_init_cpp_1
    __rt_lib_init_exceptions_1
    __rt_lib_init_fp_trap_1
    __rt_lib_init_getenv_1
    __rt_lib_init_lc_numeric_1
    __rt_lib_init_lc_time_1
    __rt_lib_init_return
    __rt_lib_init_signal_1
    __rt_lib_init_stdio_1
        0x000001e2:    bd1f        ..      POP      {r0-r4,pc}
    .ARM.Collect$$libshutdown$$00000000
    __rt_lib_shutdown
        0x000001e4:    b510        ..      PUSH     {r4,lr}
    .ARM.Collect$$libshutdown$$00000002
    .ARM.Collect$$libshutdown$$00000004
    .ARM.Collect$$libshutdown$$00000006
    .ARM.Collect$$libshutdown$$00000009
    .ARM.Collect$$libshutdown$$0000000C
    .ARM.Collect$$libshutdown$$0000000E
    .ARM.Collect$$libshutdown$$00000011
    .ARM.Collect$$libshutdown$$00000012
    __rt_lib_shutdown_cpp_1
    __rt_lib_shutdown_fini_1
    __rt_lib_shutdown_fp_trap_1
    __rt_lib_shutdown_heap_1
    __rt_lib_shutdown_return
    __rt_lib_shutdown_signal_1
    __rt_lib_shutdown_stdio_1
    __rt_lib_shutdown_user_alloc_1
        0x000001e6:    bd10        ..      POP      {r4,pc}
    .ARM.Collect$$rtentry$$00000000
    .ARM.Collect$$rtentry$$00000002
    .ARM.Collect$$rtentry$$00000004
    __rt_entry
    __rt_entry_presh_1
    __rt_entry_sh
        0x000001e8:    f000fe6e    ..n.    BL       __user_setup_stackheap ; 0xec8
        0x000001ec:    4611        .F      MOV      r1,r2
    .ARM.Collect$$rtentry$$00000009
    .ARM.Collect$$rtentry$$0000000A
    __rt_entry_li
    __rt_entry_postsh_1
        0x000001ee:    f7ffffef    ....    BL       __rt_lib_init ; 0x1d0
    .ARM.Collect$$rtentry$$0000000C
    .ARM.Collect$$rtentry$$0000000D
    __rt_entry_main
    __rt_entry_postli_1
        0x000001f2:    f003f807    ....    BL       main ; 0x3204
        0x000001f6:    f000fe8c    ....    BL       exit ; 0xf12
    .ARM.Collect$$rtexit$$00000000
    __rt_exit
        0x000001fa:    b403        ..      PUSH     {r0,r1}
    .ARM.Collect$$rtexit$$00000002
    .ARM.Collect$$rtexit$$00000003
    __rt_exit_ls
    __rt_exit_prels_1
        0x000001fc:    f7fffff2    ....    BL       __rt_lib_shutdown ; 0x1e4
    .ARM.Collect$$rtexit$$00000004
    __rt_exit_exit
        0x00000200:    bc03        ..      POP      {r0,r1}
        0x00000202:    f000fecf    ....    BL       _sys_exit ; 0xfa4
        0x00000206:    0000        ..      MOVS     r0,r0
    .emb_text
    SVC_Handler
        0x00000208:    4b22        "K      LDR      r3,[pc,#136] ; [0x294] = 0x20000038
        0x0000020a:    6819        .h      LDR      r1,[r3,#0]
        0x0000020c:    6808        .h      LDR      r0,[r1,#0]
        0x0000020e:    e8b00ff0    ....    LDM      r0!,{r4-r11}
        0x00000212:    f3808809    ....    MSR      PSP,r0
        0x00000216:    f3bf8f6f    ..o.    ISB      
        0x0000021a:    f04f0000    O...    MOV      r0,#0
        0x0000021e:    f3808811    ....    MSR      BASEPRI,r0
        0x00000222:    f04e0e0d    N...    ORR      lr,lr,#0xd
        0x00000226:    4770        pG      BX       lr
    $d
        0x00000228:    00000000    ....    DCD    0
    $t
    __asm___6_port_c_39a90d8d__prvStartFirstTask
        0x0000022c:    4806        .H      LDR      r0,[pc,#24] ; [0x248] = 0xe000ed08
        0x0000022e:    6800        .h      LDR      r0,[r0,#0]
        0x00000230:    6800        .h      LDR      r0,[r0,#0]
        0x00000232:    f3808808    ....    MSR      MSP,r0
        0x00000236:    b662        b.      CPSIE    i
        0x00000238:    b661        a.      CPSIE    f
        0x0000023a:    f3bf8f4f    ..O.    DSB      
        0x0000023e:    f3bf8f6f    ..o.    ISB      
        0x00000242:    df00        ..      SVC      #0x0 ; formerly SWI
        0x00000244:    bf00        ..      NOP      
        0x00000246:    bf00        ..      NOP      
    $d
        0x00000248:    e000ed08    ....    DCD    3758157064
    $t
    PendSV_Handler
        0x0000024c:    f3ef8009    ....    MRS      r0,PSP
        0x00000250:    f3bf8f6f    ..o.    ISB      
        0x00000254:    4b0f        .K      LDR      r3,[pc,#60] ; [0x294] = 0x20000038
        0x00000256:    681a        .h      LDR      r2,[r3,#0]
        0x00000258:    e9200ff0     ...    STMDB    r0!,{r4-r11}
        0x0000025c:    6010        .`      STR      r0,[r2,#0]
        0x0000025e:    b508        ..      PUSH     {r3,lr}
        0x00000260:    f04f0080    O...    MOV      r0,#0x80
        0x00000264:    f3808811    ....    MSR      BASEPRI,r0
        0x00000268:    f3bf8f4f    ..O.    DSB      
        0x0000026c:    f3bf8f6f    ..o.    ISB      
        0x00000270:    f004fa1a    ....    BL       vTaskSwitchContext ; 0x46a8
        0x00000274:    f04f0000    O...    MOV      r0,#0
        0x00000278:    f3808811    ....    MSR      BASEPRI,r0
        0x0000027c:    e8bd4008    ...@    POP      {r3,lr}
        0x00000280:    6819        .h      LDR      r1,[r3,#0]
        0x00000282:    6808        .h      LDR      r0,[r1,#0]
        0x00000284:    e8b00ff0    ....    LDM      r0!,{r4-r11}
        0x00000288:    f3808809    ....    MSR      PSP,r0
        0x0000028c:    f3bf8f6f    ..o.    ISB      
        0x00000290:    4770        pG      BX       lr
        0x00000292:    bf00        ..      NOP      
    $d
        0x00000294:    20000038    8..     DCD    536870968
    $t
    vPortGetIPSR
        0x00000298:    f3ef8005    ....    MRS      r0,IPSR
        0x0000029c:    4770        pG      BX       lr
        0x0000029e:    0000        ..      MOVS     r0,r0
    .emb_text
    SysCtlDelay
        0x000002a0:    3801        .8      SUBS     r0,#1
        0x000002a2:    d1fd        ..      BNE      SysCtlDelay ; 0x2a0
        0x000002a4:    4770        pG      BX       lr
        0x000002a6:    0000        ..      MOVS     r0,r0
    .text
    Reset_Handler
        0x000002a8:    4809        .H      LDR      r0,[pc,#36] ; [0x2d0] = 0x2ad5
        0x000002aa:    4780        .G      BLX      r0
        0x000002ac:    4809        .H      LDR      r0,[pc,#36] ; [0x2d4] = 0x141
        0x000002ae:    4700        .G      BX       r0
    NMI_Handler
        0x000002b0:    e7fe        ..      B        NMI_Handler ; 0x2b0
    HardFault_Handler
        0x000002b2:    e7fe        ..      B        HardFault_Handler ; 0x2b2
    MemManage_Handler
        0x000002b4:    e7fe        ..      B        MemManage_Handler ; 0x2b4
    BusFault_Handler
        0x000002b6:    e7fe        ..      B        BusFault_Handler ; 0x2b6
    UsageFault_Handler
        0x000002b8:    e7fe        ..      B        UsageFault_Handler ; 0x2b8
        0x000002ba:    e7fe        ..      B        0x2ba ; UsageFault_Handler + 2
    DebugMon_Handler
        0x000002bc:    e7fe        ..      B        DebugMon_Handler ; 0x2bc
        0x000002be:    e7fe        ..      B        0x2be ; DebugMon_Handler + 2
        0x000002c0:    e7fe        ..      B        0x2c0 ; DebugMon_Handler + 4
    ADC_Handler
    DMACINTERR_Handler
    DMACINTR_Handler
    DMACINTTC_Handler
    DUALTIMER_HANDLER
    EXT0_Handler
    EXT10_Handler
    EXT11_Handler
    EXT12_Handler
    EXT13_Handler
    EXT14_Handler
    EXT15_Handler
    EXT1_Handler
    EXT2_Handler
    EXT3_Handler
    EXT4_Handler
    EXT5_Handler
    EXT6_Handler
    EXT7_Handler
    EXT8_Handler
    EXT9_Handler
    I2C_Handler
    MPS2_SSP0_Handler
    MPS2_SSP1_Handler
    PORT0_0_Handler
    PORT0_10_Handler
    PORT0_11_Handler
    PORT0_12_Handler
    PORT0_13_Handler
    PORT0_14_Handler
    PORT0_15_Handler
    PORT0_16_Handler
    PORT0_17_Handler
    PORT0_18_Handler
    PORT0_19_Handler
    PORT0_1_Handler
    PORT0_20_Handler
    PORT0_21_Handler
    PORT0_22_Handler
    PORT0_23_Handler
    PORT0_24_Handler
    PORT0_25_Handler
    PORT0_26_Handler
    PORT0_27_Handler
    PORT0_28_Handler
    PORT0_29_Handler
    PORT0_2_Handler
    PORT0_30_Handler
    PORT0_31_Handler
    PORT0_3_Handler
    PORT0_4_Handler
    PORT0_5_Handler
    PORT0_6_Handler
    PORT0_7_Handler
    PORT0_8_Handler
    PORT0_9_Handler
    PORT0_COMB_Handler
    Spare11_Handler
    Spare13_Handler
    Spare14_Handler
    Spare15_Handler
    Spare51_Handler
    Spare52_Handler
    Spare53_Handler
    Spare54_Handler
    Spare55_Handler
    Spare56_Handler
    Spare57_Handler
    Spare58_Handler
    Spare59_Handler
    Spare60_Handler
    Spare61_Handler
    Spare62_Handler
    Spare63_Handler
    Spare7_Handler
    TIMER0_Handler
    TIMER1_Handler
    UART1_Handler
    UARTOVF_Handler
        0x000002c2:    e7fe        ..      B        ADC_Handler ; 0x2c2
    __user_initial_stackheap
        0x000002c4:    4804        .H      LDR      r0,[pc,#16] ; [0x2d8] = 0x20005458
        0x000002c6:    4905        .I      LDR      r1,[pc,#20] ; [0x2dc] = 0x20006458
        0x000002c8:    4a03        .J      LDR      r2,[pc,#12] ; [0x2d8] = 0x20005458
        0x000002ca:    4b05        .K      LDR      r3,[pc,#20] ; [0x2e0] = 0x20005458
        0x000002cc:    4770        pG      BX       lr
    $d
        0x000002ce:    0000        ..      DCW    0
        0x000002d0:    00002ad5    .*..    DCD    10965
        0x000002d4:    00000141    A...    DCD    321
        0x000002d8:    20005458    XT.     DCD    536892504
        0x000002dc:    20006458    Xd.     DCD    536896600
        0x000002e0:    20005458    XT.     DCD    536892504
    $t
    .text
    __2printf
        0x000002e4:    b40f        ..      PUSH     {r0-r3}
        0x000002e6:    4904        .I      LDR      r1,[pc,#16] ; [0x2f8] = 0x20000004
        0x000002e8:    b510        ..      PUSH     {r4,lr}
        0x000002ea:    aa03        ..      ADD      r2,sp,#0xc
        0x000002ec:    9802        ..      LDR      r0,[sp,#8]
        0x000002ee:    f000fca3    ....    BL       _printf_char_file ; 0xc38
        0x000002f2:    bc10        ..      POP      {r4}
        0x000002f4:    f85dfb14    ]...    LDR      pc,[sp],#0x14
    $d
        0x000002f8:    20000004    ...     DCD    536870916
    $t
    .text
    __2sprintf
        0x000002fc:    b40f        ..      PUSH     {r0-r3}
        0x000002fe:    b51c        ..      PUSH     {r2-r4,lr}
        0x00000300:    4b07        .K      LDR      r3,[pc,#28] ; [0x320] = 0x8f9
        0x00000302:    aa06        ..      ADD      r2,sp,#0x18
        0x00000304:    447b        {D      ADD      r3,r3,pc
        0x00000306:    4669        iF      MOV      r1,sp
        0x00000308:    9000        ..      STR      r0,[sp,#0]
        0x0000030a:    9805        ..      LDR      r0,[sp,#0x14]
        0x0000030c:    f000fc65    ..e.    BL       _printf_char_common ; 0xbda
        0x00000310:    2000        .       MOVS     r0,#0
        0x00000312:    4669        iF      MOV      r1,sp
        0x00000314:    f000fc74    ..t.    BL       _sputc ; 0xc00
        0x00000318:    bc1c        ..      POP      {r2-r4}
        0x0000031a:    f85dfb14    ]...    LDR      pc,[sp],#0x14
    $d
        0x0000031e:    0000        ..      DCW    0
        0x00000320:    000008f9    ....    DCD    2297
    $t
    .text
    _printf_pre_padding
        0x00000324:    b570        p.      PUSH     {r4-r6,lr}
        0x00000326:    4604        .F      MOV      r4,r0
        0x00000328:    6985        .i      LDR      r5,[r0,#0x18]
        0x0000032a:    6800        .h      LDR      r0,[r0,#0]
        0x0000032c:    06c1        ..      LSLS     r1,r0,#27
        0x0000032e:    d501        ..      BPL      0x334 ; _printf_pre_padding + 16
        0x00000330:    2630        0&      MOVS     r6,#0x30
        0x00000332:    e000        ..      B        0x336 ; _printf_pre_padding + 18
        0x00000334:    2620         &      MOVS     r6,#0x20
        0x00000336:    07c0        ..      LSLS     r0,r0,#31
        0x00000338:    d007        ..      BEQ      0x34a ; _printf_pre_padding + 38
        0x0000033a:    bd70        p.      POP      {r4-r6,pc}
        0x0000033c:    e9d42101    ...!    LDRD     r2,r1,[r4,#4]
        0x00000340:    4630        0F      MOV      r0,r6
        0x00000342:    4790        .G      BLX      r2
        0x00000344:    6a20         j      LDR      r0,[r4,#0x20]
        0x00000346:    1c40        @.      ADDS     r0,r0,#1
        0x00000348:    6220         b      STR      r0,[r4,#0x20]
        0x0000034a:    1e6d        m.      SUBS     r5,r5,#1
        0x0000034c:    d5f6        ..      BPL      0x33c ; _printf_pre_padding + 24
        0x0000034e:    bd70        p.      POP      {r4-r6,pc}
    _printf_post_padding
        0x00000350:    b570        p.      PUSH     {r4-r6,lr}
        0x00000352:    4604        .F      MOV      r4,r0
        0x00000354:    6985        .i      LDR      r5,[r0,#0x18]
        0x00000356:    7800        .x      LDRB     r0,[r0,#0]
        0x00000358:    07c0        ..      LSLS     r0,r0,#31
        0x0000035a:    d107        ..      BNE      0x36c ; _printf_post_padding + 28
        0x0000035c:    bd70        p.      POP      {r4-r6,pc}
        0x0000035e:    e9d42101    ...!    LDRD     r2,r1,[r4,#4]
        0x00000362:    2020                MOVS     r0,#0x20
        0x00000364:    4790        .G      BLX      r2
        0x00000366:    6a20         j      LDR      r0,[r4,#0x20]
        0x00000368:    1c40        @.      ADDS     r0,r0,#1
        0x0000036a:    6220         b      STR      r0,[r4,#0x20]
        0x0000036c:    1e6d        m.      SUBS     r5,r5,#1
        0x0000036e:    d5f6        ..      BPL      0x35e ; _printf_post_padding + 14
        0x00000370:    bd70        p.      POP      {r4-r6,pc}
    .text
    _printf_str
        0x00000372:    b570        p.      PUSH     {r4-r6,lr}
        0x00000374:    460c        .F      MOV      r4,r1
        0x00000376:    4605        .F      MOV      r5,r0
        0x00000378:    2a01        .*      CMP      r2,#1
        0x0000037a:    d005        ..      BEQ      0x388 ; _printf_str + 22
        0x0000037c:    7828        (x      LDRB     r0,[r5,#0]
        0x0000037e:    0680        ..      LSLS     r0,r0,#26
        0x00000380:    d500        ..      BPL      0x384 ; _printf_str + 18
        0x00000382:    69ea        .i      LDR      r2,[r5,#0x1c]
        0x00000384:    2300        .#      MOVS     r3,#0
        0x00000386:    e002        ..      B        0x38e ; _printf_str + 28
        0x00000388:    2301        .#      MOVS     r3,#1
        0x0000038a:    e005        ..      B        0x398 ; _printf_str + 38
        0x0000038c:    1c5b        [.      ADDS     r3,r3,#1
        0x0000038e:    4293        .B      CMP      r3,r2
        0x00000390:    d202        ..      BCS      0x398 ; _printf_str + 38
        0x00000392:    5ce0        .\      LDRB     r0,[r4,r3]
        0x00000394:    2800        .(      CMP      r0,#0
        0x00000396:    d1f9        ..      BNE      0x38c ; _printf_str + 26
        0x00000398:    69a8        .i      LDR      r0,[r5,#0x18]
        0x0000039a:    18e6        ..      ADDS     r6,r4,r3
        0x0000039c:    1ac0        ..      SUBS     r0,r0,r3
        0x0000039e:    61a8        .a      STR      r0,[r5,#0x18]
        0x000003a0:    6a28        (j      LDR      r0,[r5,#0x20]
        0x000003a2:    4418        .D      ADD      r0,r0,r3
        0x000003a4:    6228        (b      STR      r0,[r5,#0x20]
        0x000003a6:    4628        (F      MOV      r0,r5
        0x000003a8:    f7ffffbc    ....    BL       _printf_pre_padding ; 0x324
        0x000003ac:    e004        ..      B        0x3b8 ; _printf_str + 70
        0x000003ae:    e9d52101    ...!    LDRD     r2,r1,[r5,#4]
        0x000003b2:    f8140b01    ....    LDRB     r0,[r4],#1
        0x000003b6:    4790        .G      BLX      r2
        0x000003b8:    42b4        .B      CMP      r4,r6
        0x000003ba:    d3f8        ..      BCC      0x3ae ; _printf_str + 60
        0x000003bc:    4628        (F      MOV      r0,r5
        0x000003be:    f7ffffc7    ....    BL       _printf_post_padding ; 0x350
        0x000003c2:    bd70        p.      POP      {r4-r6,pc}
    .text
    _printf_int_dec
        0x000003c4:    e92d41f0    -..A    PUSH     {r4-r8,lr}
        0x000003c8:    4606        .F      MOV      r6,r0
        0x000003ca:    2400        .$      MOVS     r4,#0
        0x000003cc:    6810        .h      LDR      r0,[r2,#0]
        0x000003ce:    2975        u)      CMP      r1,#0x75
        0x000003d0:    4631        1F      MOV      r1,r6
        0x000003d2:    a516        ..      ADR      r5,{pc}+0x5a ; 0x42c
        0x000003d4:    d010        ..      BEQ      0x3f8 ; _printf_int_dec + 52
        0x000003d6:    f3af8000    ....    NOP.W    
        0x000003da:    2800        .(      CMP      r0,#0
        0x000003dc:    da02        ..      BGE      0x3e4 ; _printf_int_dec + 32
        0x000003de:    4240        @B      RSBS     r0,r0,#0
        0x000003e0:    a513        ..      ADR      r5,{pc}+0x50 ; 0x430
        0x000003e2:    e007        ..      B        0x3f4 ; _printf_int_dec + 48
        0x000003e4:    6831        1h      LDR      r1,[r6,#0]
        0x000003e6:    078a        ..      LSLS     r2,r1,#30
        0x000003e8:    d501        ..      BPL      0x3ee ; _printf_int_dec + 42
        0x000003ea:    a512        ..      ADR      r5,{pc}+0x4a ; 0x434
        0x000003ec:    e002        ..      B        0x3f4 ; _printf_int_dec + 48
        0x000003ee:    0749        I.      LSLS     r1,r1,#29
        0x000003f0:    d504        ..      BPL      0x3fc ; _printf_int_dec + 56
        0x000003f2:    a511        ..      ADR      r5,{pc}+0x46 ; 0x438
        0x000003f4:    2401        .$      MOVS     r4,#1
        0x000003f6:    e001        ..      B        0x3fc ; _printf_int_dec + 56
        0x000003f8:    f3af8000    ....    NOP.W    
        0x000003fc:    2100        .!      MOVS     r1,#0
        0x000003fe:    220a        ."      MOVS     r2,#0xa
        0x00000400:    f1060724    ..$.    ADD      r7,r6,#0x24
        0x00000404:    e009        ..      B        0x41a ; _printf_int_dec + 86
        0x00000406:    fbb0fcf2    ....    UDIV     r12,r0,r2
        0x0000040a:    fbb0f3f2    ....    UDIV     r3,r0,r2
        0x0000040e:    fb02001c    ....    MLS      r0,r2,r12,r0
        0x00000412:    3030        00      ADDS     r0,r0,#0x30
        0x00000414:    5478        xT      STRB     r0,[r7,r1]
        0x00000416:    4618        .F      MOV      r0,r3
        0x00000418:    1c49        I.      ADDS     r1,r1,#1
        0x0000041a:    2800        .(      CMP      r0,#0
        0x0000041c:    d1f3        ..      BNE      0x406 ; _printf_int_dec + 66
        0x0000041e:    4623        #F      MOV      r3,r4
        0x00000420:    462a        *F      MOV      r2,r5
        0x00000422:    4630        0F      MOV      r0,r6
        0x00000424:    e8bd41f0    ...A    POP      {r4-r8,lr}
        0x00000428:    f000b969    ..i.    B.W      _printf_int_common ; 0x6fe
    $d
        0x0000042c:    00000000    ....    DCD    0
        0x00000430:    0000002d    -...    DCD    45
        0x00000434:    0000002b    +...    DCD    43
        0x00000438:    00000020     ...    DCD    32
    $t
    .text
    _printf_int_hex
    _printf_longlong_hex
        0x0000043c:    b570        p.      PUSH     {r4-r6,lr}
        0x0000043e:    4604        .F      MOV      r4,r0
        0x00000440:    460d        .F      MOV      r5,r1
        0x00000442:    4621        !F      MOV      r1,r4
        0x00000444:    6810        .h      LDR      r0,[r2,#0]
        0x00000446:    f3af8000    ....    NOP.W    
        0x0000044a:    8821        !.      LDRH     r1,[r4,#0]
        0x0000044c:    0509        ..      LSLS     r1,r1,#20
        0x0000044e:    d502        ..      BPL      0x456 ; _printf_int_hex + 26
        0x00000450:    4a0f        .J      LDR      r2,[pc,#60] ; [0x490] = 0x6136
        0x00000452:    447a        zD      ADD      r2,r2,pc
        0x00000454:    e002        ..      B        0x45c ; _printf_int_hex + 32
        0x00000456:    4a0e        .J      LDR      r2,[pc,#56] ; [0x490] = 0x6136
        0x00000458:    447a        zD      ADD      r2,r2,pc
        0x0000045a:    320e        .2      ADDS     r2,r2,#0xe
        0x0000045c:    2100        .!      MOVS     r1,#0
        0x0000045e:    f1040324    ..$.    ADD      r3,r4,#0x24
        0x00000462:    e005        ..      B        0x470 ; _printf_int_hex + 52
        0x00000464:    f000060f    ....    AND      r6,r0,#0xf
        0x00000468:    0900        ..      LSRS     r0,r0,#4
        0x0000046a:    5d96        .]      LDRB     r6,[r2,r6]
        0x0000046c:    545e        ^T      STRB     r6,[r3,r1]
        0x0000046e:    1c49        I.      ADDS     r1,r1,#1
        0x00000470:    2800        .(      CMP      r0,#0
        0x00000472:    d1f7        ..      BNE      0x464 ; _printf_int_hex + 40
        0x00000474:    7820         x      LDRB     r0,[r4,#0]
        0x00000476:    2300        .#      MOVS     r3,#0
        0x00000478:    0700        ..      LSLS     r0,r0,#28
        0x0000047a:    d504        ..      BPL      0x486 ; _printf_int_hex + 74
        0x0000047c:    2d70        p-      CMP      r5,#0x70
        0x0000047e:    d002        ..      BEQ      0x486 ; _printf_int_hex + 74
        0x00000480:    b109        ..      CBZ      r1,0x486 ; _printf_int_hex + 74
        0x00000482:    2302        .#      MOVS     r3,#2
        0x00000484:    3211        .2      ADDS     r2,r2,#0x11
        0x00000486:    4620         F      MOV      r0,r4
        0x00000488:    e8bd4070    ..p@    POP      {r4-r6,lr}
        0x0000048c:    f000b937    ..7.    B.W      _printf_int_common ; 0x6fe
    $d
        0x00000490:    00006136    6a..    DCD    24886
    $t
    .text
    __printf
        0x00000494:    e92d5ff0    -.._    PUSH     {r4-r12,lr}
        0x00000498:    4689        .F      MOV      r9,r1
        0x0000049a:    4604        .F      MOV      r4,r0
        0x0000049c:    f04f0a00    O...    MOV      r10,#0
        0x000004a0:    f8dfb124    ..$.    LDR      r11,[pc,#292] ; [0x5c8] = 0x610c
        0x000004a4:    44fb        .D      ADD      r11,r11,pc
        0x000004a6:    f8c0a020    .. .    STR      r10,[r0,#0x20]
        0x000004aa:    4620         F      MOV      r0,r4
        0x000004ac:    68e1        .h      LDR      r1,[r4,#0xc]
        0x000004ae:    4788        .G      BLX      r1
        0x000004b0:    2800        .(      CMP      r0,#0
        0x000004b2:    d07d        }.      BEQ      0x5b0 ; __printf + 284
        0x000004b4:    2825        %(      CMP      r0,#0x25
        0x000004b6:    d006        ..      BEQ      0x4c6 ; __printf + 50
        0x000004b8:    e9d42101    ...!    LDRD     r2,r1,[r4,#4]
        0x000004bc:    4790        .G      BLX      r2
        0x000004be:    6a20         j      LDR      r0,[r4,#0x20]
        0x000004c0:    1c40        @.      ADDS     r0,r0,#1
        0x000004c2:    6220         b      STR      r0,[r4,#0x20]
        0x000004c4:    e7f1        ..      B        0x4aa ; __printf + 22
        0x000004c6:    2500        .%      MOVS     r5,#0
        0x000004c8:    465f        _F      MOV      r7,r11
        0x000004ca:    4620         F      MOV      r0,r4
        0x000004cc:    68e1        .h      LDR      r1,[r4,#0xc]
        0x000004ce:    4788        .G      BLX      r1
        0x000004d0:    2820         (      CMP      r0,#0x20
        0x000004d2:    4606        .F      MOV      r6,r0
        0x000004d4:    db07        ..      BLT      0x4e6 ; __printf + 82
        0x000004d6:    2e31        1.      CMP      r6,#0x31
        0x000004d8:    d205        ..      BCS      0x4e6 ; __printf + 82
        0x000004da:    19b8        ..      ADDS     r0,r7,r6
        0x000004dc:    f8100c20    .. .    LDRB     r0,[r0,#-0x20]
        0x000004e0:    b108        ..      CBZ      r0,0x4e6 ; __printf + 82
        0x000004e2:    4305        .C      ORRS     r5,r5,r0
        0x000004e4:    e7f1        ..      B        0x4ca ; __printf + 54
        0x000004e6:    07a8        ..      LSLS     r0,r5,#30
        0x000004e8:    d501        ..      BPL      0x4ee ; __printf + 90
        0x000004ea:    f0250504    %...    BIC      r5,r5,#4
        0x000004ee:    f8c4a01c    ....    STR      r10,[r4,#0x1c]
        0x000004f2:    2700        .'      MOVS     r7,#0
        0x000004f4:    f8c4a018    ....    STR      r10,[r4,#0x18]
        0x000004f8:    2e2a        *.      CMP      r6,#0x2a
        0x000004fa:    d009        ..      BEQ      0x510 ; __printf + 124
        0x000004fc:    4630        0F      MOV      r0,r6
        0x000004fe:    f002fbf7    ....    BL       _is_digit ; 0x2cf0
        0x00000502:    b338        8.      CBZ      r0,0x554 ; __printf + 192
        0x00000504:    eb040887    ....    ADD      r8,r4,r7,LSL #2
        0x00000508:    3e30        0>      SUBS     r6,r6,#0x30
        0x0000050a:    f8c86018    ...`    STR      r6,[r8,#0x18]
        0x0000050e:    e019        ..      B        0x544 ; __printf + 176
        0x00000510:    f8591b04    Y...    LDR      r1,[r9],#4
        0x00000514:    4620         F      MOV      r0,r4
        0x00000516:    eb040287    ....    ADD      r2,r4,r7,LSL #2
        0x0000051a:    6191        .a      STR      r1,[r2,#0x18]
        0x0000051c:    68e1        .h      LDR      r1,[r4,#0xc]
        0x0000051e:    4788        .G      BLX      r1
        0x00000520:    2f01        ./      CMP      r7,#1
        0x00000522:    4606        .F      MOV      r6,r0
        0x00000524:    d118        ..      BNE      0x558 ; __printf + 196
        0x00000526:    69e0        .i      LDR      r0,[r4,#0x1c]
        0x00000528:    2800        .(      CMP      r0,#0
        0x0000052a:    da20         .      BGE      0x56e ; __printf + 218
        0x0000052c:    f0250520    %. .    BIC      r5,r5,#0x20
        0x00000530:    e01d        ..      B        0x56e ; __printf + 218
        0x00000532:    f8d80018    ....    LDR      r0,[r8,#0x18]
        0x00000536:    eb000080    ....    ADD      r0,r0,r0,LSL #2
        0x0000053a:    eb060040    ..@.    ADD      r0,r6,r0,LSL #1
        0x0000053e:    3830        08      SUBS     r0,r0,#0x30
        0x00000540:    f8c80018    ....    STR      r0,[r8,#0x18]
        0x00000544:    4620         F      MOV      r0,r4
        0x00000546:    68e1        .h      LDR      r1,[r4,#0xc]
        0x00000548:    4788        .G      BLX      r1
        0x0000054a:    4606        .F      MOV      r6,r0
        0x0000054c:    f002fbd0    ....    BL       _is_digit ; 0x2cf0
        0x00000550:    2800        .(      CMP      r0,#0
        0x00000552:    d1ee        ..      BNE      0x532 ; __printf + 158
        0x00000554:    2f01        ./      CMP      r7,#1
        0x00000556:    d00a        ..      BEQ      0x56e ; __printf + 218
        0x00000558:    2e2e        ..      CMP      r6,#0x2e
        0x0000055a:    d108        ..      BNE      0x56e ; __printf + 218
        0x0000055c:    4620         F      MOV      r0,r4
        0x0000055e:    68e1        .h      LDR      r1,[r4,#0xc]
        0x00000560:    4788        .G      BLX      r1
        0x00000562:    1c7f        ..      ADDS     r7,r7,#1
        0x00000564:    4606        .F      MOV      r6,r0
        0x00000566:    2f02        ./      CMP      r7,#2
        0x00000568:    f0450520    E. .    ORR      r5,r5,#0x20
        0x0000056c:    dbc4        ..      BLT      0x4f8 ; __printf + 100
        0x0000056e:    69a0        .i      LDR      r0,[r4,#0x18]
        0x00000570:    2800        .(      CMP      r0,#0
        0x00000572:    da03        ..      BGE      0x57c ; __printf + 232
        0x00000574:    4240        @B      RSBS     r0,r0,#0
        0x00000576:    f0450501    E...    ORR      r5,r5,#1
        0x0000057a:    61a0        .a      STR      r0,[r4,#0x18]
        0x0000057c:    07e8        ..      LSLS     r0,r5,#31
        0x0000057e:    d001        ..      BEQ      0x584 ; __printf + 240
        0x00000580:    f0250510    %...    BIC      r5,r5,#0x10
        0x00000584:    b1a6        ..      CBZ      r6,0x5b0 ; __printf + 284
        0x00000586:    f1a60041    ..A.    SUB      r0,r6,#0x41
        0x0000058a:    2819        .(      CMP      r0,#0x19
        0x0000058c:    d802        ..      BHI      0x594 ; __printf + 256
        0x0000058e:    3620         6      ADDS     r6,r6,#0x20
        0x00000590:    f4456500    E..e    ORR      r5,r5,#0x800
        0x00000594:    464a        JF      MOV      r2,r9
        0x00000596:    4631        1F      MOV      r1,r6
        0x00000598:    4620         F      MOV      r0,r4
        0x0000059a:    6025        %`      STR      r5,[r4,#0]
        0x0000059c:    464d        MF      MOV      r5,r9
        0x0000059e:    f7fffe09    ....    BL       _printf_f ; 0x1b4
        0x000005a2:    b160        `.      CBZ      r0,0x5be ; __printf + 298
        0x000005a4:    2801        .(      CMP      r0,#1
        0x000005a6:    d007        ..      BEQ      0x5b8 ; __printf + 292
        0x000005a8:    1ded        ..      ADDS     r5,r5,#7
        0x000005aa:    f0250007    %...    BIC      r0,r5,#7
        0x000005ae:    e000        ..      B        0x5b2 ; __printf + 286
        0x000005b0:    e007        ..      B        0x5c2 ; __printf + 302
        0x000005b2:    f1000908    ....    ADD      r9,r0,#8
        0x000005b6:    e778        x.      B        0x4aa ; __printf + 22
        0x000005b8:    f1050904    ....    ADD      r9,r5,#4
        0x000005bc:    e775        u.      B        0x4aa ; __printf + 22
        0x000005be:    4630        0F      MOV      r0,r6
        0x000005c0:    e77a        z.      B        0x4b8 ; __printf + 36
        0x000005c2:    6a20         j      LDR      r0,[r4,#0x20]
        0x000005c4:    e8bd9ff0    ....    POP      {r4-r12,pc}
    $d
        0x000005c8:    0000610c    .a..    DCD    24844
    $t
    .text
    __aeabi_memcpy
    __rt_memcpy
        0x000005cc:    2a03        .*      CMP      r2,#3
        0x000005ce:    f2408030    @.0.    BLS.W    _memcpy_lastbytes ; 0x632
        0x000005d2:    f0100c03    ....    ANDS     r12,r0,#3
        0x000005d6:    f0008015    ....    BEQ.W    0x604 ; __aeabi_memcpy + 56
        0x000005da:    f8113b01    ...;    LDRB     r3,[r1],#1
        0x000005de:    f1bc0f02    ....    CMP      r12,#2
        0x000005e2:    4462        bD      ADD      r2,r2,r12
        0x000005e4:    bf98        ..      IT       LS
        0x000005e6:    f811cb01    ....    LDRBLS   r12,[r1],#1
        0x000005ea:    f8003b01    ...;    STRB     r3,[r0],#1
        0x000005ee:    bf38        8.      IT       CC
        0x000005f0:    f8113b01    ...;    LDRBCC   r3,[r1],#1
        0x000005f4:    f1a20204    ....    SUB      r2,r2,#4
        0x000005f8:    bf98        ..      IT       LS
        0x000005fa:    f800cb01    ....    STRBLS   r12,[r0],#1
        0x000005fe:    bf38        8.      IT       CC
        0x00000600:    f8003b01    ...;    STRBCC   r3,[r0],#1
        0x00000604:    f0110303    ....    ANDS     r3,r1,#3
        0x00000608:    f0008328    ..(.    BEQ.W    __aeabi_memcpy4 ; 0xc5c
        0x0000060c:    3a08        .:      SUBS     r2,r2,#8
        0x0000060e:    f0c08008    ....    BCC.W    0x622 ; __aeabi_memcpy + 86
        0x00000612:    f8513b04    Q..;    LDR      r3,[r1],#4
        0x00000616:    3a08        .:      SUBS     r2,r2,#8
        0x00000618:    f851cb04    Q...    LDR      r12,[r1],#4
        0x0000061c:    e8a01008    ....    STM      r0!,{r3,r12}
        0x00000620:    e7f5        ..      B        0x60e ; __aeabi_memcpy + 66
        0x00000622:    1d12        ..      ADDS     r2,r2,#4
        0x00000624:    bf5c        \.      ITT      PL
        0x00000626:    f8513b04    Q..;    LDRPL    r3,[r1],#4
        0x0000062a:    f8403b04    @..;    STRPL    r3,[r0],#4
        0x0000062e:    f3af8000    ....    NOP.W    
    _memcpy_lastbytes
        0x00000632:    07d2        ..      LSLS     r2,r2,#31
        0x00000634:    bf24        $.      ITT      CS
        0x00000636:    f8113b01    ...;    LDRBCS   r3,[r1],#1
        0x0000063a:    f811cb01    ....    LDRBCS   r12,[r1],#1
        0x0000063e:    bf48        H.      IT       MI
        0x00000640:    f8112b01    ...+    LDRBMI   r2,[r1],#1
        0x00000644:    bf24        $.      ITT      CS
        0x00000646:    f8003b01    ...;    STRBCS   r3,[r0],#1
        0x0000064a:    f800cb01    ....    STRBCS   r12,[r0],#1
        0x0000064e:    bf48        H.      IT       MI
        0x00000650:    f8002b01    ...+    STRBMI   r2,[r0],#1
        0x00000654:    4770        pG      BX       lr
    .text
    __aeabi_memset
        0x00000656:    f00203ff    ....    AND      r3,r2,#0xff
        0x0000065a:    ea432203    C.."    ORR      r2,r3,r3,LSL #8
        0x0000065e:    ea424202    B..B    ORR      r2,r2,r2,LSL #16
        0x00000662:    f000b802    ....    B.W      _memset ; 0x66a
    .text
    __aeabi_memclr
    __rt_memclr
        0x00000666:    f04f0200    O...    MOV      r2,#0
    _memset
        0x0000066a:    2904        .)      CMP      r1,#4
        0x0000066c:    f0c08012    ....    BCC.W    0x694 ; _memset + 42
        0x00000670:    f0100c03    ....    ANDS     r12,r0,#3
        0x00000674:    f000801b    ....    BEQ.W    _memset_w ; 0x6ae
        0x00000678:    f1cc0c04    ....    RSB      r12,r12,#4
        0x0000067c:    f1bc0f02    ....    CMP      r12,#2
        0x00000680:    bf18        ..      IT       NE
        0x00000682:    f8002b01    ...+    STRBNE   r2,[r0],#1
        0x00000686:    bfa8        ..      IT       GE
        0x00000688:    f8202b02     ..+    STRHGE   r2,[r0],#2
        0x0000068c:    eba1010c    ....    SUB      r1,r1,r12
        0x00000690:    f000b80d    ....    B.W      _memset_w ; 0x6ae
        0x00000694:    ea5f7cc1    _..|    LSLS     r12,r1,#31
        0x00000698:    bf24        $.      ITT      CS
        0x0000069a:    f8002b01    ...+    STRBCS   r2,[r0],#1
        0x0000069e:    f8002b01    ...+    STRBCS   r2,[r0],#1
        0x000006a2:    bf48        H.      IT       MI
        0x000006a4:    f8002b01    ...+    STRBMI   r2,[r0],#1
        0x000006a8:    4770        pG      BX       lr
    .text
    __aeabi_memclr4
    __aeabi_memclr8
    __rt_memclr_w
        0x000006aa:    f04f0200    O...    MOV      r2,#0
    _memset_w
        0x000006ae:    b500        ..      PUSH     {lr}
        0x000006b0:    4613        .F      MOV      r3,r2
        0x000006b2:    4694        .F      MOV      r12,r2
        0x000006b4:    4696        .F      MOV      lr,r2
        0x000006b6:    3920         9      SUBS     r1,r1,#0x20
        0x000006b8:    bf22        ".      ITTT     CS
        0x000006ba:    e8a0500c    ...P    STMCS    r0!,{r2,r3,r12,lr}
        0x000006be:    e8a0500c    ...P    STMCS    r0!,{r2,r3,r12,lr}
        0x000006c2:    f1b10120    .. .    SUBSCS   r1,r1,#0x20
        0x000006c6:    f4bfaff7    ....    BCS.W    0x6b8 ; _memset_w + 10
        0x000006ca:    0709        ..      LSLS     r1,r1,#28
        0x000006cc:    bf28        (.      IT       CS
        0x000006ce:    e8a0500c    ...P    STMCS    r0!,{r2,r3,r12,lr}
        0x000006d2:    bf48        H.      IT       MI
        0x000006d4:    c00c        ..      STMMI    r0!,{r2,r3}
        0x000006d6:    f85deb04    ]...    POP      {lr}
        0x000006da:    0089        ..      LSLS     r1,r1,#2
        0x000006dc:    bf28        (.      IT       CS
        0x000006de:    f8402b04    @..+    STRCS    r2,[r0],#4
        0x000006e2:    bf08        ..      IT       EQ
        0x000006e4:    4770        pG      BXEQ     lr
        0x000006e6:    bf48        H.      IT       MI
        0x000006e8:    f8202b02     ..+    STRHMI   r2,[r0],#2
        0x000006ec:    f0114f80    ...O    TST      r1,#0x40000000
        0x000006f0:    bf18        ..      IT       NE
        0x000006f2:    f8002b01    ...+    STRBNE   r2,[r0],#1
        0x000006f6:    4770        pG      BX       lr
    .text
    __use_two_region_memory
        0x000006f8:    4770        pG      BX       lr
    __rt_heap_escrow$2region
        0x000006fa:    4770        pG      BX       lr
    __rt_heap_expand$2region
        0x000006fc:    4770        pG      BX       lr
    .text
    _printf_int_common
        0x000006fe:    e92d47f0    -..G    PUSH     {r4-r10,lr}
        0x00000702:    460d        .F      MOV      r5,r1
        0x00000704:    4699        .F      MOV      r9,r3
        0x00000706:    4692        .F      MOV      r10,r2
        0x00000708:    4604        .F      MOV      r4,r0
        0x0000070a:    f1000824    ..$.    ADD      r8,r0,#0x24
        0x0000070e:    6801        .h      LDR      r1,[r0,#0]
        0x00000710:    0688        ..      LSLS     r0,r1,#26
        0x00000712:    d504        ..      BPL      0x71e ; _printf_int_common + 32
        0x00000714:    69e0        .i      LDR      r0,[r4,#0x1c]
        0x00000716:    f0210110    !...    BIC      r1,r1,#0x10
        0x0000071a:    6021        !`      STR      r1,[r4,#0]
        0x0000071c:    e000        ..      B        0x720 ; _printf_int_common + 34
        0x0000071e:    2001        .       MOVS     r0,#1
        0x00000720:    42a8        .B      CMP      r0,r5
        0x00000722:    dd01        ..      BLE      0x728 ; _printf_int_common + 42
        0x00000724:    1b47        G.      SUBS     r7,r0,r5
        0x00000726:    e000        ..      B        0x72a ; _printf_int_common + 44
        0x00000728:    2700        .'      MOVS     r7,#0
        0x0000072a:    69a1        .i      LDR      r1,[r4,#0x18]
        0x0000072c:    197a        z.      ADDS     r2,r7,r5
        0x0000072e:    eb020009    ....    ADD      r0,r2,r9
        0x00000732:    1a08        ..      SUBS     r0,r1,r0
        0x00000734:    61a0        .a      STR      r0,[r4,#0x18]
        0x00000736:    7820         x      LDRB     r0,[r4,#0]
        0x00000738:    06c0        ..      LSLS     r0,r0,#27
        0x0000073a:    d402        ..      BMI      0x742 ; _printf_int_common + 68
        0x0000073c:    4620         F      MOV      r0,r4
        0x0000073e:    f7fffdf1    ....    BL       _printf_pre_padding ; 0x324
        0x00000742:    2600        .&      MOVS     r6,#0
        0x00000744:    e008        ..      B        0x758 ; _printf_int_common + 90
        0x00000746:    e9d42101    ...!    LDRD     r2,r1,[r4,#4]
        0x0000074a:    f81a0006    ....    LDRB     r0,[r10,r6]
        0x0000074e:    4790        .G      BLX      r2
        0x00000750:    6a20         j      LDR      r0,[r4,#0x20]
        0x00000752:    1c40        @.      ADDS     r0,r0,#1
        0x00000754:    1c76        v.      ADDS     r6,r6,#1
        0x00000756:    6220         b      STR      r0,[r4,#0x20]
        0x00000758:    454e        NE      CMP      r6,r9
        0x0000075a:    dbf4        ..      BLT      0x746 ; _printf_int_common + 72
        0x0000075c:    7820         x      LDRB     r0,[r4,#0]
        0x0000075e:    06c0        ..      LSLS     r0,r0,#27
        0x00000760:    d50a        ..      BPL      0x778 ; _printf_int_common + 122
        0x00000762:    4620         F      MOV      r0,r4
        0x00000764:    f7fffdde    ....    BL       _printf_pre_padding ; 0x324
        0x00000768:    e006        ..      B        0x778 ; _printf_int_common + 122
        0x0000076a:    e9d42101    ...!    LDRD     r2,r1,[r4,#4]
        0x0000076e:    2030        0       MOVS     r0,#0x30
        0x00000770:    4790        .G      BLX      r2
        0x00000772:    6a20         j      LDR      r0,[r4,#0x20]
        0x00000774:    1c40        @.      ADDS     r0,r0,#1
        0x00000776:    6220         b      STR      r0,[r4,#0x20]
        0x00000778:    1e38        8.      SUBS     r0,r7,#0
        0x0000077a:    f1a70701    ....    SUB      r7,r7,#1
        0x0000077e:    dcf4        ..      BGT      0x76a ; _printf_int_common + 108
        0x00000780:    e007        ..      B        0x792 ; _printf_int_common + 148
        0x00000782:    e9d42101    ...!    LDRD     r2,r1,[r4,#4]
        0x00000786:    f8180005    ....    LDRB     r0,[r8,r5]
        0x0000078a:    4790        .G      BLX      r2
        0x0000078c:    6a20         j      LDR      r0,[r4,#0x20]
        0x0000078e:    1c40        @.      ADDS     r0,r0,#1
        0x00000790:    6220         b      STR      r0,[r4,#0x20]
        0x00000792:    1e28        (.      SUBS     r0,r5,#0
        0x00000794:    f1a50501    ....    SUB      r5,r5,#1
        0x00000798:    dcf3        ..      BGT      0x782 ; _printf_int_common + 132
        0x0000079a:    4620         F      MOV      r0,r4
        0x0000079c:    f7fffdd8    ....    BL       _printf_post_padding ; 0x350
        0x000007a0:    7820         x      LDRB     r0,[r4,#0]
        0x000007a2:    0600        ..      LSLS     r0,r0,#24
        0x000007a4:    d502        ..      BPL      0x7ac ; _printf_int_common + 174
        0x000007a6:    2002        .       MOVS     r0,#2
        0x000007a8:    e8bd87f0    ....    POP      {r4-r10,pc}
        0x000007ac:    2001        .       MOVS     r0,#1
        0x000007ae:    e7fb        ..      B        0x7a8 ; _printf_int_common + 170
    .text
    __lib_sel_fp_printf
        0x000007b0:    4770        pG      BX       lr
    _fp_digits
        0x000007b2:    e92d4fff    -..O    PUSH     {r0-r11,lr}
        0x000007b6:    460c        .F      MOV      r4,r1
        0x000007b8:    461e        .F      MOV      r6,r3
        0x000007ba:    f04f37ff    O..7    MOV      r7,#0xffffffff
        0x000007be:    b08b        ..      SUB      sp,sp,#0x2c
        0x000007c0:    e9d20100    ....    LDRD     r0,r1,[r2,#0]
        0x000007c4:    f8dd8060    ..`.    LDR      r8,[sp,#0x60]
        0x000007c8:    900a        ..      STR      r0,[sp,#0x28]
        0x000007ca:    468a        .F      MOV      r10,r1
        0x000007cc:    f3c1550a    ...U    UBFX     r5,r1,#20,#11
        0x000007d0:    b905        ..      CBNZ     r5,0x7d4 ; _fp_digits + 34
        0x000007d2:    463d        =F      MOV      r5,r7
        0x000007d4:    2100        .!      MOVS     r1,#0
        0x000007d6:    4608        .F      MOV      r0,r1
        0x000007d8:    f04f0000    O...    MOV      r0,#0
        0x000007dc:    f1ba0f00    ....    CMP      r10,#0
        0x000007e0:    f4000040    ..@.    AND      r0,r0,#0xc00000
        0x000007e4:    da05        ..      BGE      0x7f2 ; _fp_digits + 64
        0x000007e6:    eb000080    ....    ADD      r0,r0,r0,LSL #2
        0x000007ea:    f44f0140    O.@.    MOV      r1,#0xc00000
        0x000007ee:    ea010050    ..P.    AND      r0,r1,r0,LSR #1
        0x000007f2:    ea4f5990    O..Y    LSR      r9,r0,#22
        0x000007f6:    f1b90f01    ....    CMP      r9,#1
        0x000007fa:    dd00        ..      BLE      0x7fe ; _fp_digits + 76
        0x000007fc:    46b9        .F      MOV      r9,r7
        0x000007fe:    980a        ..      LDR      r0,[sp,#0x28]
        0x00000800:    ea50004a    P.J.    ORRS     r0,r0,r10,LSL #1
        0x00000804:    d00e        ..      BEQ      0x824 ; _fp_digits + 114
        0x00000806:    f6445010    D..P    MOV      r0,#0x4d10
        0x0000080a:    f2a535ff    ...5    SUB      r5,r5,#0x3ff
        0x0000080e:    4345        EC      MULS     r5,r0,r5
        0x00000810:    142f        /.      ASRS     r7,r5,#16
        0x00000812:    f1b80f00    ....    CMP      r8,#0
        0x00000816:    d01e        ..      BEQ      0x856 ; _fp_digits + 164
        0x00000818:    4275        uB      RSBS     r5,r6,#0
        0x0000081a:    1e29        ).      SUBS     r1,r5,#0
        0x0000081c:    dd1e        ..      BLE      0x85c ; _fp_digits + 170
        0x0000081e:    f1c90200    ....    RSB      r2,r9,#0
        0x00000822:    e01c        ..      B        0x85e ; _fp_digits + 172
        0x00000824:    f1b80f01    ....    CMP      r8,#1
        0x00000828:    f04f0000    O...    MOV      r0,#0
        0x0000082c:    d001        ..      BEQ      0x832 ; _fp_digits + 128
        0x0000082e:    2130        0!      MOVS     r1,#0x30
        0x00000830:    e003        ..      B        0x83a ; _fp_digits + 136
        0x00000832:    43f2        .C      MVNS     r2,r6
        0x00000834:    e005        ..      B        0x842 ; _fp_digits + 144
        0x00000836:    5421        !T      STRB     r1,[r4,r0]
        0x00000838:    1c40        @.      ADDS     r0,r0,#1
        0x0000083a:    42b0        .B      CMP      r0,r6
        0x0000083c:    dbfb        ..      BLT      0x836 ; _fp_digits + 132
        0x0000083e:    4630        0F      MOV      r0,r6
        0x00000840:    2200        ."      MOVS     r2,#0
        0x00000842:    2100        .!      MOVS     r1,#0
        0x00000844:    5421        !T      STRB     r1,[r4,r0]
        0x00000846:    990b        ..      LDR      r1,[sp,#0x2c]
        0x00000848:    f8c18008    ....    STR      r8,[r1,#8]
        0x0000084c:    e9c12000    ...     STRD     r2,r0,[r1,#0]
        0x00000850:    b00f        ..      ADD      sp,sp,#0x3c
        0x00000852:    e8bd8ff0    ....    POP      {r4-r11,pc}
        0x00000856:    1bbd        ..      SUBS     r5,r7,r6
        0x00000858:    1c6d        m.      ADDS     r5,r5,#1
        0x0000085a:    e7de        ..      B        0x81a ; _fp_digits + 104
        0x0000085c:    464a        JF      MOV      r2,r9
        0x0000085e:    da00        ..      BGE      0x862 ; _fp_digits + 176
        0x00000860:    4269        iB      RSBS     r1,r5,#0
        0x00000862:    a806        ..      ADD      r0,sp,#0x18
        0x00000864:    f000fab6    ....    BL       _btod_etento ; 0xdd4
        0x00000868:    ab06        ..      ADD      r3,sp,#0x18
        0x0000086a:    e8930007    ....    LDM      r3,{r0-r2}
        0x0000086e:    ab03        ..      ADD      r3,sp,#0xc
        0x00000870:    e8830007    ....    STM      r3,{r0-r2}
        0x00000874:    4650        PF      MOV      r0,r10
        0x00000876:    990a        ..      LDR      r1,[sp,#0x28]
        0x00000878:    f000fb9b    ....    BL       __semihosting_library_function ; 0xfb2
        0x0000087c:    e88d0007    ....    STM      sp,{r0-r2}
        0x00000880:    f5a05000    ...P    SUB      r0,r0,#0x2000
        0x00000884:    381f        .8      SUBS     r0,r0,#0x1f
        0x00000886:    9000        ..      STR      r0,[sp,#0]
        0x00000888:    9803        ..      LDR      r0,[sp,#0xc]
        0x0000088a:    2d00        .-      CMP      r5,#0
        0x0000088c:    dd0a        ..      BLE      0x8a4 ; _fp_digits + 242
        0x0000088e:    f242011f    B...    MOV      r1,#0x201f
        0x00000892:    464a        JF      MOV      r2,r9
        0x00000894:    4408        .D      ADD      r0,r0,r1
        0x00000896:    2300        .#      MOVS     r3,#0
        0x00000898:    a903        ..      ADD      r1,sp,#0xc
        0x0000089a:    9003        ..      STR      r0,[sp,#0xc]
        0x0000089c:    4668        hF      MOV      r0,sp
        0x0000089e:    f000fe04    ....    BL       _btod_ediv ; 0x14aa
        0x000008a2:    e009        ..      B        0x8b8 ; _fp_digits + 262
        0x000008a4:    f5a05000    ...P    SUB      r0,r0,#0x2000
        0x000008a8:    464a        JF      MOV      r2,r9
        0x000008aa:    381f        .8      SUBS     r0,r0,#0x1f
        0x000008ac:    2300        .#      MOVS     r3,#0
        0x000008ae:    a903        ..      ADD      r1,sp,#0xc
        0x000008b0:    9003        ..      STR      r0,[sp,#0xc]
        0x000008b2:    4668        hF      MOV      r0,sp
        0x000008b4:    f000fe0e    ....    BL       _btod_emul ; 0x14d4
        0x000008b8:    e88d0007    ....    STM      sp,{r0-r2}
        0x000008bc:    0400        ..      LSLS     r0,r0,#16
        0x000008be:    0c00        ..      LSRS     r0,r0,#16
        0x000008c0:    d003        ..      BEQ      0x8ca ; _fp_digits + 280
        0x000008c2:    f04f30ff    O..0    MOV      r0,#0xffffffff
        0x000008c6:    0841        A.      LSRS     r1,r0,#1
        0x000008c8:    e000        ..      B        0x8cc ; _fp_digits + 282
        0x000008ca:    4610        .F      MOV      r0,r2
        0x000008cc:    f1b80f00    ....    CMP      r8,#0
        0x000008d0:    d003        ..      BEQ      0x8da ; _fp_digits + 296
        0x000008d2:    2200        ."      MOVS     r2,#0
        0x000008d4:    9200        ..      STR      r2,[sp,#0]
        0x000008d6:    4615        .F      MOV      r5,r2
        0x000008d8:    e01e        ..      B        0x918 ; _fp_digits + 358
        0x000008da:    1e75        u.      SUBS     r5,r6,#1
        0x000008dc:    d405        ..      BMI      0x8ea ; _fp_digits + 312
        0x000008de:    f000f9f3    ....    BL       _ll_udiv10 ; 0xcc8
        0x000008e2:    3230        02      ADDS     r2,r2,#0x30
        0x000008e4:    5562        bU      STRB     r2,[r4,r5]
        0x000008e6:    1e6d        m.      SUBS     r5,r5,#1
        0x000008e8:    d5f9        ..      BPL      0x8de ; _fp_digits + 300
        0x000008ea:    46b3        .F      MOV      r11,r6
        0x000008ec:    2201        ."      MOVS     r2,#1
        0x000008ee:    4308        .C      ORRS     r0,r0,r1
        0x000008f0:    d002        ..      BEQ      0x8f8 ; _fp_digits + 326
        0x000008f2:    2200        ."      MOVS     r2,#0
        0x000008f4:    1c7f        ..      ADDS     r7,r7,#1
        0x000008f6:    e004        ..      B        0x902 ; _fp_digits + 336
        0x000008f8:    7820         x      LDRB     r0,[r4,#0]
        0x000008fa:    2830        0(      CMP      r0,#0x30
        0x000008fc:    d101        ..      BNE      0x902 ; _fp_digits + 336
        0x000008fe:    2200        ."      MOVS     r2,#0
        0x00000900:    1e7f        ..      SUBS     r7,r7,#1
        0x00000902:    2a00        .*      CMP      r2,#0
        0x00000904:    9709        ..      STR      r7,[sp,#0x24]
        0x00000906:    d084        ..      BEQ      0x812 ; _fp_digits + 96
        0x00000908:    e01d        ..      B        0x946 ; _fp_digits + 404
        0x0000090a:    2d11        .-      CMP      r5,#0x11
        0x0000090c:    da07        ..      BGE      0x91e ; _fp_digits + 364
        0x0000090e:    f000f9db    ....    BL       _ll_udiv10 ; 0xcc8
        0x00000912:    3230        02      ADDS     r2,r2,#0x30
        0x00000914:    5562        bU      STRB     r2,[r4,r5]
        0x00000916:    1c6d        m.      ADDS     r5,r5,#1
        0x00000918:    ea500201    P...    ORRS     r2,r0,r1
        0x0000091c:    d1f5        ..      BNE      0x90a ; _fp_digits + 344
        0x0000091e:    4308        .C      ORRS     r0,r0,r1
        0x00000920:    d002        ..      BEQ      0x928 ; _fp_digits + 374
        0x00000922:    9800        ..      LDR      r0,[sp,#0]
        0x00000924:    b1c8        ..      CBZ      r0,0x95a ; _fp_digits + 424
        0x00000926:    e00e        ..      B        0x946 ; _fp_digits + 404
        0x00000928:    2100        .!      MOVS     r1,#0
        0x0000092a:    1e68        h.      SUBS     r0,r5,#1
        0x0000092c:    e005        ..      B        0x93a ; _fp_digits + 392
        0x0000092e:    5c23        #\      LDRB     r3,[r4,r0]
        0x00000930:    5c62        b\      LDRB     r2,[r4,r1]
        0x00000932:    5463        cT      STRB     r3,[r4,r1]
        0x00000934:    5422        "T      STRB     r2,[r4,r0]
        0x00000936:    1e40        @.      SUBS     r0,r0,#1
        0x00000938:    1c49        I.      ADDS     r1,r1,#1
        0x0000093a:    4281        .B      CMP      r1,r0
        0x0000093c:    dbf7        ..      BLT      0x92e ; _fp_digits + 380
        0x0000093e:    46ab        .F      MOV      r11,r5
        0x00000940:    1ba8        ..      SUBS     r0,r5,r6
        0x00000942:    1e40        @.      SUBS     r0,r0,#1
        0x00000944:    9009        ..      STR      r0,[sp,#0x24]
        0x00000946:    2000        .       MOVS     r0,#0
        0x00000948:    f804000b    ....    STRB     r0,[r4,r11]
        0x0000094c:    980b        ..      LDR      r0,[sp,#0x2c]
        0x0000094e:    9a09        ..      LDR      r2,[sp,#0x24]
        0x00000950:    f8c08008    ....    STR      r8,[r0,#8]
        0x00000954:    e9c02b00    ...+    STRD     r2,r11,[r0,#0]
        0x00000958:    e77a        z.      B        0x850 ; _fp_digits + 158
        0x0000095a:    2611        .&      MOVS     r6,#0x11
        0x0000095c:    f04f0800    O...    MOV      r8,#0
        0x00000960:    e757        W.      B        0x812 ; _fp_digits + 96
    _printf_fp_dec_real
        0x00000962:    e92d4ff0    -..O    PUSH     {r4-r11,lr}
        0x00000966:    4688        .F      MOV      r8,r1
        0x00000968:    4604        .F      MOV      r4,r0
        0x0000096a:    1dd2        ..      ADDS     r2,r2,#7
        0x0000096c:    f0220107    "...    BIC      r1,r2,#7
        0x00000970:    b091        ..      SUB      sp,sp,#0x44
        0x00000972:    e9d10100    ....    LDRD     r0,r1,[r1,#0]
        0x00000976:    e9cd010a    ....    STRD     r0,r1,[sp,#0x28]
        0x0000097a:    f002f8e2    ....    BL       __ARM_fpclassify ; 0x2b42
        0x0000097e:    4602        .F      MOV      r2,r0
        0x00000980:    980b        ..      LDR      r0,[sp,#0x2c]
        0x00000982:    0fc0        ..      LSRS     r0,r0,#31
        0x00000984:    d001        ..      BEQ      0x98a ; _printf_fp_dec_real + 40
        0x00000986:    202d        -       MOVS     r0,#0x2d
        0x00000988:    e007        ..      B        0x99a ; _printf_fp_dec_real + 56
        0x0000098a:    6820         h      LDR      r0,[r4,#0]
        0x0000098c:    0781        ..      LSLS     r1,r0,#30
        0x0000098e:    d501        ..      BPL      0x994 ; _printf_fp_dec_real + 50
        0x00000990:    202b        +       MOVS     r0,#0x2b
        0x00000992:    e002        ..      B        0x99a ; _printf_fp_dec_real + 56
        0x00000994:    2120         !      MOVS     r1,#0x20
        0x00000996:    ea0100c0    ....    AND      r0,r1,r0,LSL #3
        0x0000099a:    2a03        .*      CMP      r2,#3
        0x0000099c:    9009        ..      STR      r0,[sp,#0x24]
        0x0000099e:    d001        ..      BEQ      0x9a4 ; _printf_fp_dec_real + 66
        0x000009a0:    2a07        .*      CMP      r2,#7
        0x000009a2:    db05        ..      BLT      0x9b0 ; _printf_fp_dec_real + 78
        0x000009a4:    4603        .F      MOV      r3,r0
        0x000009a6:    4641        AF      MOV      r1,r8
        0x000009a8:    4620         F      MOV      r0,r4
        0x000009aa:    f000f9d3    ....    BL       _printf_fp_infnan ; 0xd54
        0x000009ae:    e10b        ..      B        0xbc8 ; _printf_fp_dec_real + 614
        0x000009b0:    7820         x      LDRB     r0,[r4,#0]
        0x000009b2:    0680        ..      LSLS     r0,r0,#26
        0x000009b4:    d501        ..      BPL      0x9ba ; _printf_fp_dec_real + 88
        0x000009b6:    69e0        .i      LDR      r0,[r4,#0x1c]
        0x000009b8:    e000        ..      B        0x9bc ; _printf_fp_dec_real + 90
        0x000009ba:    2006        .       MOVS     r0,#6
        0x000009bc:    f1b80f65    ..e.    CMP      r8,#0x65
        0x000009c0:    4681        .F      MOV      r9,r0
        0x000009c2:    d006        ..      BEQ      0x9d2 ; _printf_fp_dec_real + 112
        0x000009c4:    f1b80f66    ..f.    CMP      r8,#0x66
        0x000009c8:    d018        ..      BEQ      0x9fc ; _printf_fp_dec_real + 154
        0x000009ca:    f1b80f67    ..g.    CMP      r8,#0x67
        0x000009ce:    d170        p.      BNE      0xab2 ; _printf_fp_dec_real + 336
        0x000009d0:    e031        1.      B        0xa36 ; _printf_fp_dec_real + 212
        0x000009d2:    2000        .       MOVS     r0,#0
        0x000009d4:    f1b90f11    ....    CMP      r9,#0x11
        0x000009d8:    9000        ..      STR      r0,[sp,#0]
        0x000009da:    db01        ..      BLT      0x9e0 ; _printf_fp_dec_real + 126
        0x000009dc:    2311        .#      MOVS     r3,#0x11
        0x000009de:    e001        ..      B        0x9e4 ; _printf_fp_dec_real + 130
        0x000009e0:    f1090301    ....    ADD      r3,r9,#1
        0x000009e4:    aa0a        ..      ADD      r2,sp,#0x28
        0x000009e6:    a901        ..      ADD      r1,sp,#4
        0x000009e8:    a80c        ..      ADD      r0,sp,#0x30
        0x000009ea:    f7fffee2    ....    BL       _fp_digits ; 0x7b2
        0x000009ee:    e9dd700c    ...p    LDRD     r7,r0,[sp,#0x30]
        0x000009f2:    2600        .&      MOVS     r6,#0
        0x000009f4:    f1090501    ....    ADD      r5,r9,#1
        0x000009f8:    4683        .F      MOV      r11,r0
        0x000009fa:    e047        G.      B        0xa8c ; _printf_fp_dec_real + 298
        0x000009fc:    2001        .       MOVS     r0,#1
        0x000009fe:    464b        KF      MOV      r3,r9
        0x00000a00:    9000        ..      STR      r0,[sp,#0]
        0x00000a02:    f04f4700    O..G    MOV      r7,#0x80000000
        0x00000a06:    aa0a        ..      ADD      r2,sp,#0x28
        0x00000a08:    a901        ..      ADD      r1,sp,#4
        0x00000a0a:    a80c        ..      ADD      r0,sp,#0x30
        0x00000a0c:    f7fffed1    ....    BL       _fp_digits ; 0x7b2
        0x00000a10:    e9ddb00d    ....    LDRD     r11,r0,[sp,#0x34]
        0x00000a14:    990c        ..      LDR      r1,[sp,#0x30]
        0x00000a16:    465d        ]F      MOV      r5,r11
        0x00000a18:    2600        .&      MOVS     r6,#0
        0x00000a1a:    b910        ..      CBNZ     r0,0xa22 ; _printf_fp_dec_real + 192
        0x00000a1c:    f1090001    ....    ADD      r0,r9,#1
        0x00000a20:    180d        ..      ADDS     r5,r1,r0
        0x00000a22:    ebb90005    ....    SUBS     r0,r9,r5
        0x00000a26:    d403        ..      BMI      0xa30 ; _printf_fp_dec_real + 206
        0x00000a28:    f1c036ff    ...6    RSB      r6,r0,#0xffffffff
        0x00000a2c:    f1090501    ....    ADD      r5,r9,#1
        0x00000a30:    eba50009    ....    SUB      r0,r5,r9
        0x00000a34:    e02b        +.      B        0xa8e ; _printf_fp_dec_real + 300
        0x00000a36:    f1b90f01    ....    CMP      r9,#1
        0x00000a3a:    da01        ..      BGE      0xa40 ; _printf_fp_dec_real + 222
        0x00000a3c:    f04f0901    O...    MOV      r9,#1
        0x00000a40:    2000        .       MOVS     r0,#0
        0x00000a42:    f1b90f11    ....    CMP      r9,#0x11
        0x00000a46:    9000        ..      STR      r0,[sp,#0]
        0x00000a48:    4648        HF      MOV      r0,r9
        0x00000a4a:    dd01        ..      BLE      0xa50 ; _printf_fp_dec_real + 238
        0x00000a4c:    2311        .#      MOVS     r3,#0x11
        0x00000a4e:    e000        ..      B        0xa52 ; _printf_fp_dec_real + 240
        0x00000a50:    4603        .F      MOV      r3,r0
        0x00000a52:    aa0a        ..      ADD      r2,sp,#0x28
        0x00000a54:    a901        ..      ADD      r1,sp,#4
        0x00000a56:    a80c        ..      ADD      r0,sp,#0x30
        0x00000a58:    f7fffeab    ....    BL       _fp_digits ; 0x7b2
        0x00000a5c:    e9dd700c    ...p    LDRD     r7,r0,[sp,#0x30]
        0x00000a60:    464d        MF      MOV      r5,r9
        0x00000a62:    2600        .&      MOVS     r6,#0
        0x00000a64:    4683        .F      MOV      r11,r0
        0x00000a66:    7820         x      LDRB     r0,[r4,#0]
        0x00000a68:    0700        ..      LSLS     r0,r0,#28
        0x00000a6a:    d40a        ..      BMI      0xa82 ; _printf_fp_dec_real + 288
        0x00000a6c:    45ab        .E      CMP      r11,r5
        0x00000a6e:    da00        ..      BGE      0xa72 ; _printf_fp_dec_real + 272
        0x00000a70:    465d        ]F      MOV      r5,r11
        0x00000a72:    a801        ..      ADD      r0,sp,#4
        0x00000a74:    2d01        .-      CMP      r5,#1
        0x00000a76:    dd04        ..      BLE      0xa82 ; _printf_fp_dec_real + 288
        0x00000a78:    1941        A.      ADDS     r1,r0,r5
        0x00000a7a:    f8111c01    ....    LDRB     r1,[r1,#-1]
        0x00000a7e:    2930        0)      CMP      r1,#0x30
        0x00000a80:    d007        ..      BEQ      0xa92 ; _printf_fp_dec_real + 304
        0x00000a82:    454f        OE      CMP      r7,r9
        0x00000a84:    da02        ..      BGE      0xa8c ; _printf_fp_dec_real + 298
        0x00000a86:    f1170f04    ....    CMN      r7,#4
        0x00000a8a:    da04        ..      BGE      0xa96 ; _printf_fp_dec_real + 308
        0x00000a8c:    2001        .       MOVS     r0,#1
        0x00000a8e:    4682        .F      MOV      r10,r0
        0x00000a90:    e00f        ..      B        0xab2 ; _printf_fp_dec_real + 336
        0x00000a92:    1e6d        m.      SUBS     r5,r5,#1
        0x00000a94:    e7ee        ..      B        0xa74 ; _printf_fp_dec_real + 274
        0x00000a96:    2f00        ./      CMP      r7,#0
        0x00000a98:    dc02        ..      BGT      0xaa0 ; _printf_fp_dec_real + 318
        0x00000a9a:    1bed        ..      SUBS     r5,r5,r7
        0x00000a9c:    443e        >D      ADD      r6,r6,r7
        0x00000a9e:    e003        ..      B        0xaa8 ; _printf_fp_dec_real + 326
        0x00000aa0:    1c78        x.      ADDS     r0,r7,#1
        0x00000aa2:    42a8        .B      CMP      r0,r5
        0x00000aa4:    dd00        ..      BLE      0xaa8 ; _printf_fp_dec_real + 326
        0x00000aa6:    1c7d        }.      ADDS     r5,r7,#1
        0x00000aa8:    1bb8        ..      SUBS     r0,r7,r6
        0x00000aaa:    f1000a01    ....    ADD      r10,r0,#1
        0x00000aae:    f04f4700    O..G    MOV      r7,#0x80000000
        0x00000ab2:    7820         x      LDRB     r0,[r4,#0]
        0x00000ab4:    0700        ..      LSLS     r0,r0,#28
        0x00000ab6:    d403        ..      BMI      0xac0 ; _printf_fp_dec_real + 350
        0x00000ab8:    45aa        .E      CMP      r10,r5
        0x00000aba:    db01        ..      BLT      0xac0 ; _printf_fp_dec_real + 350
        0x00000abc:    f04f3aff    O..:    MOV      r10,#0xffffffff
        0x00000ac0:    2100        .!      MOVS     r1,#0
        0x00000ac2:    f1b74f00    ...O    CMP      r7,#0x80000000
        0x00000ac6:    f10d0843    ..C.    ADD      r8,sp,#0x43
        0x00000aca:    f88d1043    ..C.    STRB     r1,[sp,#0x43]
        0x00000ace:    d024        $.      BEQ      0xb1a ; _printf_fp_dec_real + 440
        0x00000ad0:    2002        .       MOVS     r0,#2
        0x00000ad2:    232b        +#      MOVS     r3,#0x2b
        0x00000ad4:    2f00        ./      CMP      r7,#0
        0x00000ad6:    da01        ..      BGE      0xadc ; _printf_fp_dec_real + 378
        0x00000ad8:    427f        .B      RSBS     r7,r7,#0
        0x00000ada:    232d        -#      MOVS     r3,#0x2d
        0x00000adc:    210a        .!      MOVS     r1,#0xa
        0x00000ade:    1e02        ..      SUBS     r2,r0,#0
        0x00000ae0:    f1a00001    ....    SUB      r0,r0,#1
        0x00000ae4:    dc00        ..      BGT      0xae8 ; _printf_fp_dec_real + 390
        0x00000ae6:    b15f        _.      CBZ      r7,0xb00 ; _printf_fp_dec_real + 414
        0x00000ae8:    fb97fcf1    ....    SDIV     r12,r7,r1
        0x00000aec:    fb97f2f1    ....    SDIV     r2,r7,r1
        0x00000af0:    fb017c1c    ...|    MLS      r12,r1,r12,r7
        0x00000af4:    4617        .F      MOV      r7,r2
        0x00000af6:    f10c0c30    ..0.    ADD      r12,r12,#0x30
        0x00000afa:    f808cd01    ....    STRB     r12,[r8,#-1]!
        0x00000afe:    e7ee        ..      B        0xade ; _printf_fp_dec_real + 380
        0x00000b00:    f1a80001    ....    SUB      r0,r8,#1
        0x00000b04:    7003        .p      STRB     r3,[r0,#0]
        0x00000b06:    8821        !.      LDRH     r1,[r4,#0]
        0x00000b08:    0509        ..      LSLS     r1,r1,#20
        0x00000b0a:    d501        ..      BPL      0xb10 ; _printf_fp_dec_real + 430
        0x00000b0c:    2145        E!      MOVS     r1,#0x45
        0x00000b0e:    e000        ..      B        0xb12 ; _printf_fp_dec_real + 432
        0x00000b10:    2165        e!      MOVS     r1,#0x65
        0x00000b12:    f1a00801    ....    SUB      r8,r0,#1
        0x00000b16:    f8001c01    ....    STRB     r1,[r0,#-1]
        0x00000b1a:    9809        ..      LDR      r0,[sp,#0x24]
        0x00000b1c:    a90f        ..      ADD      r1,sp,#0x3c
        0x00000b1e:    eba10708    ....    SUB      r7,r1,r8
        0x00000b22:    1dff        ..      ADDS     r7,r7,#7
        0x00000b24:    b100        ..      CBZ      r0,0xb28 ; _printf_fp_dec_real + 454
        0x00000b26:    2001        .       MOVS     r0,#1
        0x00000b28:    1941        A.      ADDS     r1,r0,r5
        0x00000b2a:    eb0170ea    ...p    ADD      r0,r1,r10,ASR #31
        0x00000b2e:    69a1        .i      LDR      r1,[r4,#0x18]
        0x00000b30:    4438        8D      ADD      r0,r0,r7
        0x00000b32:    1a08        ..      SUBS     r0,r1,r0
        0x00000b34:    1e40        @.      SUBS     r0,r0,#1
        0x00000b36:    61a0        .a      STR      r0,[r4,#0x18]
        0x00000b38:    7820         x      LDRB     r0,[r4,#0]
        0x00000b3a:    06c0        ..      LSLS     r0,r0,#27
        0x00000b3c:    d402        ..      BMI      0xb44 ; _printf_fp_dec_real + 482
        0x00000b3e:    4620         F      MOV      r0,r4
        0x00000b40:    f7fffbf0    ....    BL       _printf_pre_padding ; 0x324
        0x00000b44:    9809        ..      LDR      r0,[sp,#0x24]
        0x00000b46:    b128        (.      CBZ      r0,0xb54 ; _printf_fp_dec_real + 498
        0x00000b48:    e9d42101    ...!    LDRD     r2,r1,[r4,#4]
        0x00000b4c:    4790        .G      BLX      r2
        0x00000b4e:    6a20         j      LDR      r0,[r4,#0x20]
        0x00000b50:    1c40        @.      ADDS     r0,r0,#1
        0x00000b52:    6220         b      STR      r0,[r4,#0x20]
        0x00000b54:    7820         x      LDRB     r0,[r4,#0]
        0x00000b56:    06c0        ..      LSLS     r0,r0,#27
        0x00000b58:    d522        ".      BPL      0xba0 ; _printf_fp_dec_real + 574
        0x00000b5a:    4620         F      MOV      r0,r4
        0x00000b5c:    f7fffbe2    ....    BL       _printf_pre_padding ; 0x324
        0x00000b60:    e01e        ..      B        0xba0 ; _printf_fp_dec_real + 574
        0x00000b62:    2e00        ..      CMP      r6,#0
        0x00000b64:    db04        ..      BLT      0xb70 ; _printf_fp_dec_real + 526
        0x00000b66:    45b3        .E      CMP      r11,r6
        0x00000b68:    dd02        ..      BLE      0xb70 ; _printf_fp_dec_real + 526
        0x00000b6a:    a801        ..      ADD      r0,sp,#4
        0x00000b6c:    5d80        .]      LDRB     r0,[r0,r6]
        0x00000b6e:    e000        ..      B        0xb72 ; _printf_fp_dec_real + 528
        0x00000b70:    2030        0       MOVS     r0,#0x30
        0x00000b72:    e9d42101    ...!    LDRD     r2,r1,[r4,#4]
        0x00000b76:    4790        .G      BLX      r2
        0x00000b78:    6a20         j      LDR      r0,[r4,#0x20]
        0x00000b7a:    1c40        @.      ADDS     r0,r0,#1
        0x00000b7c:    6220         b      STR      r0,[r4,#0x20]
        0x00000b7e:    1c76        v.      ADDS     r6,r6,#1
        0x00000b80:    f1aa0001    ....    SUB      r0,r10,#1
        0x00000b84:    ea5f0a00    _...    MOVS     r10,r0
        0x00000b88:    d10a        ..      BNE      0xba0 ; _printf_fp_dec_real + 574
        0x00000b8a:    f000f899    ....    BL       __rt_locale ; 0xcc0
        0x00000b8e:    68c0        .h      LDR      r0,[r0,#0xc]
        0x00000b90:    6801        .h      LDR      r1,[r0,#0]
        0x00000b92:    5c40        @\      LDRB     r0,[r0,r1]
        0x00000b94:    e9d42101    ...!    LDRD     r2,r1,[r4,#4]
        0x00000b98:    4790        .G      BLX      r2
        0x00000b9a:    6a20         j      LDR      r0,[r4,#0x20]
        0x00000b9c:    1c40        @.      ADDS     r0,r0,#1
        0x00000b9e:    6220         b      STR      r0,[r4,#0x20]
        0x00000ba0:    1e28        (.      SUBS     r0,r5,#0
        0x00000ba2:    f1a50501    ....    SUB      r5,r5,#1
        0x00000ba6:    dcdc        ..      BGT      0xb62 ; _printf_fp_dec_real + 512
        0x00000ba8:    e007        ..      B        0xbba ; _printf_fp_dec_real + 600
        0x00000baa:    e9d42101    ...!    LDRD     r2,r1,[r4,#4]
        0x00000bae:    f8180b01    ....    LDRB     r0,[r8],#1
        0x00000bb2:    4790        .G      BLX      r2
        0x00000bb4:    6a20         j      LDR      r0,[r4,#0x20]
        0x00000bb6:    1c40        @.      ADDS     r0,r0,#1
        0x00000bb8:    6220         b      STR      r0,[r4,#0x20]
        0x00000bba:    1e38        8.      SUBS     r0,r7,#0
        0x00000bbc:    f1a70701    ....    SUB      r7,r7,#1
        0x00000bc0:    dcf3        ..      BGT      0xbaa ; _printf_fp_dec_real + 584
        0x00000bc2:    4620         F      MOV      r0,r4
        0x00000bc4:    f7fffbc4    ....    BL       _printf_post_padding ; 0x350
        0x00000bc8:    2003        .       MOVS     r0,#3
        0x00000bca:    b011        ..      ADD      sp,sp,#0x44
        0x00000bcc:    e641        A.      B        0x852 ; _fp_digits + 160
        0x00000bce:    0000        ..      MOVS     r0,r0
    .text
    _printf_input_char
        0x00000bd0:    6901        .i      LDR      r1,[r0,#0x10]
        0x00000bd2:    1c4a        J.      ADDS     r2,r1,#1
        0x00000bd4:    6102        .a      STR      r2,[r0,#0x10]
        0x00000bd6:    7808        .x      LDRB     r0,[r1,#0]
        0x00000bd8:    4770        pG      BX       lr
    _printf_char_common
        0x00000bda:    b500        ..      PUSH     {lr}
        0x00000bdc:    b08f        ..      SUB      sp,sp,#0x3c
        0x00000bde:    e9cd3101    ...1    STRD     r3,r1,[sp,#4]
        0x00000be2:    2100        .!      MOVS     r1,#0
        0x00000be4:    9105        ..      STR      r1,[sp,#0x14]
        0x00000be6:    4905        .I      LDR      r1,[pc,#20] ; [0xbfc] = 0xffffffe5
        0x00000be8:    4479        yD      ADD      r1,r1,pc
        0x00000bea:    e9cd1003    ....    STRD     r1,r0,[sp,#0xc]
        0x00000bee:    4611        .F      MOV      r1,r2
        0x00000bf0:    4668        hF      MOV      r0,sp
        0x00000bf2:    f7fffc4f    ..O.    BL       __printf ; 0x494
        0x00000bf6:    b00f        ..      ADD      sp,sp,#0x3c
        0x00000bf8:    bd00        ..      POP      {pc}
    $d
        0x00000bfa:    0000        ..      DCW    0
        0x00000bfc:    ffffffe5    ....    DCD    4294967269
    $t
    .text
    _sputc
        0x00000c00:    680a        .h      LDR      r2,[r1,#0]
        0x00000c02:    f8020b01    ....    STRB     r0,[r2],#1
        0x00000c06:    600a        .`      STR      r2,[r1,#0]
        0x00000c08:    4770        pG      BX       lr
    .text
    _printf_cs_common
        0x00000c0a:    b510        ..      PUSH     {r4,lr}
        0x00000c0c:    6943        Ci      LDR      r3,[r0,#0x14]
        0x00000c0e:    b113        ..      CBZ      r3,0xc16 ; _printf_cs_common + 12
        0x00000c10:    f3af8000    ....    NOP.W    
        0x00000c14:    e001        ..      B        0xc1a ; _printf_cs_common + 16
        0x00000c16:    f7fffbac    ....    BL       _printf_str ; 0x372
        0x00000c1a:    2001        .       MOVS     r0,#1
        0x00000c1c:    bd10        ..      POP      {r4,pc}
    _printf_char
        0x00000c1e:    7812        .x      LDRB     r2,[r2,#0]
        0x00000c20:    f1000124    ..$.    ADD      r1,r0,#0x24
        0x00000c24:    700a        .p      STRB     r2,[r1,#0]
        0x00000c26:    2200        ."      MOVS     r2,#0
        0x00000c28:    704a        Jp      STRB     r2,[r1,#1]
        0x00000c2a:    2201        ."      MOVS     r2,#1
        0x00000c2c:    e7ed        ..      B        _printf_cs_common ; 0xc0a
    _printf_string
        0x00000c2e:    6811        .h      LDR      r1,[r2,#0]
        0x00000c30:    f04f32ff    O..2    MOV      r2,#0xffffffff
        0x00000c34:    e7e9        ..      B        _printf_cs_common ; 0xc0a
        0x00000c36:    0000        ..      MOVS     r0,r0
    .text
    _printf_char_file
        0x00000c38:    4b07        .K      LDR      r3,[pc,#28] ; [0xc58] = 0x232b
        0x00000c3a:    b570        p.      PUSH     {r4-r6,lr}
        0x00000c3c:    460d        .F      MOV      r5,r1
        0x00000c3e:    447b        {D      ADD      r3,r3,pc
        0x00000c40:    f7ffffcb    ....    BL       _printf_char_common ; 0xbda
        0x00000c44:    4604        .F      MOV      r4,r0
        0x00000c46:    4628        (F      MOV      r0,r5
        0x00000c48:    f000f936    ..6.    BL       ferror ; 0xeb8
        0x00000c4c:    b110        ..      CBZ      r0,0xc54 ; _printf_char_file + 28
        0x00000c4e:    f04f30ff    O..0    MOV      r0,#0xffffffff
        0x00000c52:    bd70        p.      POP      {r4-r6,pc}
        0x00000c54:    4620         F      MOV      r0,r4
        0x00000c56:    bd70        p.      POP      {r4-r6,pc}
    $d
        0x00000c58:    0000232b    +#..    DCD    9003
    $t
    .text
    __aeabi_memcpy4
    __aeabi_memcpy8
    __rt_memcpy_w
        0x00000c5c:    b510        ..      PUSH     {r4,lr}
        0x00000c5e:    3a20         :      SUBS     r2,r2,#0x20
        0x00000c60:    f0c0800b    ....    BCC.W    0xc7a ; __aeabi_memcpy4 + 30
        0x00000c64:    e8b15018    ...P    LDM      r1!,{r3,r4,r12,lr}
        0x00000c68:    3a20         :      SUBS     r2,r2,#0x20
        0x00000c6a:    e8a05018    ...P    STM      r0!,{r3,r4,r12,lr}
        0x00000c6e:    e8b15018    ...P    LDM      r1!,{r3,r4,r12,lr}
        0x00000c72:    e8a05018    ...P    STM      r0!,{r3,r4,r12,lr}
        0x00000c76:    f4bfaff5    ....    BCS.W    0xc64 ; __aeabi_memcpy4 + 8
        0x00000c7a:    ea5f7c02    _..|    LSLS     r12,r2,#28
        0x00000c7e:    bf24        $.      ITT      CS
        0x00000c80:    e8b15018    ...P    LDMCS    r1!,{r3,r4,r12,lr}
        0x00000c84:    e8a05018    ...P    STMCS    r0!,{r3,r4,r12,lr}
        0x00000c88:    bf44        D.      ITT      MI
        0x00000c8a:    c918        ..      LDMMI    r1!,{r3,r4}
        0x00000c8c:    c018        ..      STMMI    r0!,{r3,r4}
        0x00000c8e:    e8bd4010    ...@    POP      {r4,lr}
        0x00000c92:    ea5f7c82    _..|    LSLS     r12,r2,#30
        0x00000c96:    bf24        $.      ITT      CS
        0x00000c98:    f8513b04    Q..;    LDRCS    r3,[r1],#4
        0x00000c9c:    f8403b04    @..;    STRCS    r3,[r0],#4
        0x00000ca0:    bf08        ..      IT       EQ
        0x00000ca2:    4770        pG      BXEQ     lr
    _memcpy_lastbytes_aligned
        0x00000ca4:    07d2        ..      LSLS     r2,r2,#31
        0x00000ca6:    bf28        (.      IT       CS
        0x00000ca8:    f8313b02    1..;    LDRHCS   r3,[r1],#2
        0x00000cac:    bf48        H.      IT       MI
        0x00000cae:    f8112b01    ...+    LDRBMI   r2,[r1],#1
        0x00000cb2:    bf28        (.      IT       CS
        0x00000cb4:    f8203b02     ..;    STRHCS   r3,[r0],#2
        0x00000cb8:    bf48        H.      IT       MI
        0x00000cba:    f8002b01    ...+    STRBMI   r2,[r0],#1
        0x00000cbe:    4770        pG      BX       lr
    .text
    __rt_locale
        0x00000cc0:    4800        .H      LDR      r0,[pc,#0] ; [0xcc4] = 0x20005414
        0x00000cc2:    4770        pG      BX       lr
    $d
        0x00000cc4:    20005414    .T.     DCD    536892436
    $t
    .text
    _ll_udiv10
        0x00000cc8:    b530        0.      PUSH     {r4,r5,lr}
        0x00000cca:    f1b0020a    ....    SUBS     r2,r0,#0xa
        0x00000cce:    ea4f0e90    O...    LSR      lr,r0,#2
        0x00000cd2:    f1710300    q...    SBCS     r3,r1,#0
        0x00000cd6:    ea4e7e81    N..~    ORR      lr,lr,r1,LSL #30
        0x00000cda:    ebb0000e    ....    SUBS     r0,r0,lr
        0x00000cde:    eb610191    a...    SBC      r1,r1,r1,LSR #2
        0x00000ce2:    ea4f1e10    O...    LSR      lr,r0,#4
        0x00000ce6:    ea4e7e01    N..~    ORR      lr,lr,r1,LSL #28
        0x00000cea:    eb10000e    ....    ADDS     r0,r0,lr
        0x00000cee:    eb411111    A...    ADC      r1,r1,r1,LSR #4
        0x00000cf2:    ea4f2e10    O...    LSR      lr,r0,#8
        0x00000cf6:    ea4e6e01    N..n    ORR      lr,lr,r1,LSL #24
        0x00000cfa:    eb10000e    ....    ADDS     r0,r0,lr
        0x00000cfe:    eb412111    A..!    ADC      r1,r1,r1,LSR #8
        0x00000d02:    ea4f4e10    O..N    LSR      lr,r0,#16
        0x00000d06:    ea4e4e01    N..N    ORR      lr,lr,r1,LSL #16
        0x00000d0a:    eb10000e    ....    ADDS     r0,r0,lr
        0x00000d0e:    eb414111    A..A    ADC      r1,r1,r1,LSR #16
        0x00000d12:    1840        @.      ADDS     r0,r0,r1
        0x00000d14:    f1410100    A...    ADC      r1,r1,#0
        0x00000d18:    ea4f00d0    O...    LSR      r0,r0,#3
        0x00000d1c:    ea407041    @.Ap    ORR      r0,r0,r1,LSL #29
        0x00000d20:    ea4f01d1    O...    LSR      r1,r1,#3
        0x00000d24:    eb100580    ....    ADDS     r5,r0,r0,LSL #2
        0x00000d28:    ea4f0481    O...    LSL      r4,r1,#2
        0x00000d2c:    ea447490    D..t    ORR      r4,r4,r0,LSR #30
        0x00000d30:    eb440401    D...    ADC      r4,r4,r1
        0x00000d34:    196d        m.      ADDS     r5,r5,r5
        0x00000d36:    eb440404    D...    ADC      r4,r4,r4
        0x00000d3a:    1b52        R.      SUBS     r2,r2,r5
        0x00000d3c:    41a3        .A      SBCS     r3,r3,r4
        0x00000d3e:    f04f0300    O...    MOV      r3,#0
        0x00000d42:    bf48        H.      IT       MI
        0x00000d44:    320a        .2      ADDMI    r2,r2,#0xa
        0x00000d46:    d500        ..      BPL      0xd4a ; _ll_udiv10 + 130
        0x00000d48:    bd30        0.      POP      {r4,r5,pc}
        0x00000d4a:    1c40        @.      ADDS     r0,r0,#1
        0x00000d4c:    f1410100    A...    ADC      r1,r1,#0
        0x00000d50:    bd30        0.      POP      {r4,r5,pc}
        0x00000d52:    0000        ..      MOVS     r0,r0
    .text
    _printf_fp_infnan
        0x00000d54:    e92d41f0    -..A    PUSH     {r4-r8,lr}
        0x00000d58:    461f        .F      MOV      r7,r3
        0x00000d5a:    4604        .F      MOV      r4,r0
        0x00000d5c:    2603        .&      MOVS     r6,#3
        0x00000d5e:    6801        .h      LDR      r1,[r0,#0]
        0x00000d60:    2a07        .*      CMP      r2,#7
        0x00000d62:    f4016000    ...`    AND      r0,r1,#0x800
        0x00000d66:    db04        ..      BLT      0xd72 ; _printf_fp_infnan + 30
        0x00000d68:    b108        ..      CBZ      r0,0xd6e ; _printf_fp_infnan + 26
        0x00000d6a:    a516        ..      ADR      r5,{pc}+0x5a ; 0xdc4
        0x00000d6c:    e005        ..      B        0xd7a ; _printf_fp_infnan + 38
        0x00000d6e:    a516        ..      ADR      r5,{pc}+0x5a ; 0xdc8
        0x00000d70:    e003        ..      B        0xd7a ; _printf_fp_infnan + 38
        0x00000d72:    b108        ..      CBZ      r0,0xd78 ; _printf_fp_infnan + 36
        0x00000d74:    a515        ..      ADR      r5,{pc}+0x58 ; 0xdcc
        0x00000d76:    e000        ..      B        0xd7a ; _printf_fp_infnan + 38
        0x00000d78:    a515        ..      ADR      r5,{pc}+0x58 ; 0xdd0
        0x00000d7a:    f0210010    !...    BIC      r0,r1,#0x10
        0x00000d7e:    6020         `      STR      r0,[r4,#0]
        0x00000d80:    69a0        .i      LDR      r0,[r4,#0x18]
        0x00000d82:    1ec0        ..      SUBS     r0,r0,#3
        0x00000d84:    61a0        .a      STR      r0,[r4,#0x18]
        0x00000d86:    b10f        ..      CBZ      r7,0xd8c ; _printf_fp_infnan + 56
        0x00000d88:    1e40        @.      SUBS     r0,r0,#1
        0x00000d8a:    61a0        .a      STR      r0,[r4,#0x18]
        0x00000d8c:    4620         F      MOV      r0,r4
        0x00000d8e:    f7fffac9    ....    BL       _printf_pre_padding ; 0x324
        0x00000d92:    b14f        O.      CBZ      r7,0xda8 ; _printf_fp_infnan + 84
        0x00000d94:    e9d42101    ...!    LDRD     r2,r1,[r4,#4]
        0x00000d98:    4638        8F      MOV      r0,r7
        0x00000d9a:    4790        .G      BLX      r2
        0x00000d9c:    6a20         j      LDR      r0,[r4,#0x20]
        0x00000d9e:    1c40        @.      ADDS     r0,r0,#1
        0x00000da0:    6220         b      STR      r0,[r4,#0x20]
        0x00000da2:    1cc0        ..      ADDS     r0,r0,#3
        0x00000da4:    6220         b      STR      r0,[r4,#0x20]
        0x00000da6:    e006        ..      B        0xdb6 ; _printf_fp_infnan + 98
        0x00000da8:    6a20         j      LDR      r0,[r4,#0x20]
        0x00000daa:    e7fa        ..      B        0xda2 ; _printf_fp_infnan + 78
        0x00000dac:    e9d42101    ...!    LDRD     r2,r1,[r4,#4]
        0x00000db0:    f8150b01    ....    LDRB     r0,[r5],#1
        0x00000db4:    4790        .G      BLX      r2
        0x00000db6:    1e76        v.      SUBS     r6,r6,#1
        0x00000db8:    d2f8        ..      BCS      0xdac ; _printf_fp_infnan + 88
        0x00000dba:    4620         F      MOV      r0,r4
        0x00000dbc:    f7fffac8    ....    BL       _printf_post_padding ; 0x350
        0x00000dc0:    e8bd81f0    ....    POP      {r4-r8,pc}
    $d
        0x00000dc4:    004e414e    NAN.    DCD    5128526
        0x00000dc8:    006e616e    nan.    DCD    7233902
        0x00000dcc:    00464e49    INF.    DCD    4607561
        0x00000dd0:    00666e69    inf.    DCD    6712937
    $t
    .text
    _btod_etento
        0x00000dd4:    e92d47f0    -..G    PUSH     {r4-r10,lr}
        0x00000dd8:    4681        .F      MOV      r9,r0
        0x00000dda:    4616        .F      MOV      r6,r2
        0x00000ddc:    b08a        ..      SUB      sp,sp,#0x28
        0x00000dde:    4835        5H      LDR      r0,[pc,#212] ; [0xeb4] = 0x5860
        0x00000de0:    4478        xD      ADD      r0,r0,pc
        0x00000de2:    c80d        ..      LDM      r0,{r0,r2,r3}
        0x00000de4:    e88d000d    ....    STM      sp,{r0,r2,r3}
        0x00000de8:    4832        2H      LDR      r0,[pc,#200] ; [0xeb4] = 0x5860
        0x00000dea:    4478        xD      ADD      r0,r0,pc
        0x00000dec:    1c80        ..      ADDS     r0,r0,#2
        0x00000dee:    ac03        ..      ADD      r4,sp,#0xc
        0x00000df0:    c80d        ..      LDM      r0,{r0,r2,r3}
        0x00000df2:    e884000d    ....    STM      r4,{r0,r2,r3}
        0x00000df6:    f641309b    A..0    MOV      r0,#0x1b9b
        0x00000dfa:    4408        .D      ADD      r0,r0,r1
        0x00000dfc:    2137        7!      MOVS     r1,#0x37
        0x00000dfe:    fb90f2f1    ....    SDIV     r2,r0,r1
        0x00000e02:    fb90f5f1    ....    SDIV     r5,r0,r1
        0x00000e06:    f1a50580    ....    SUB      r5,r5,#0x80
        0x00000e0a:    fb010412    ....    MLS      r4,r1,r2,r0
        0x00000e0e:    3c1b        .<      SUBS     r4,r4,#0x1b
        0x00000e10:    d502        ..      BPL      0xe18 ; _btod_etento + 68
        0x00000e12:    4264        dB      RSBS     r4,r4,#0
        0x00000e14:    2001        .       MOVS     r0,#1
        0x00000e16:    e000        ..      B        0xe1a ; _btod_etento + 70
        0x00000e18:    2000        .       MOVS     r0,#0
        0x00000e1a:    f8dfa098    ....    LDR      r10,[pc,#152] ; [0xeb4] = 0x5860
        0x00000e1e:    4680        .F      MOV      r8,r0
        0x00000e20:    2700        .'      MOVS     r7,#0
        0x00000e22:    44fa        .D      ADD      r10,r10,pc
        0x00000e24:    f1aa0abe    ....    SUB      r10,r10,#0xbe
        0x00000e28:    e00e        ..      B        0xe48 ; _btod_etento + 116
        0x00000e2a:    07e0        ..      LSLS     r0,r4,#31
        0x00000e2c:    d00a        ..      BEQ      0xe44 ; _btod_etento + 112
        0x00000e2e:    4632        2F      MOV      r2,r6
        0x00000e30:    4668        hF      MOV      r0,sp
        0x00000e32:    eb070147    ..G.    ADD      r1,r7,r7,LSL #1
        0x00000e36:    2301        .#      MOVS     r3,#1
        0x00000e38:    eb0a0181    ....    ADD      r1,r10,r1,LSL #2
        0x00000e3c:    f000fb4a    ..J.    BL       _btod_emul ; 0x14d4
        0x00000e40:    e88d0007    ....    STM      sp,{r0-r2}
        0x00000e44:    1064        d.      ASRS     r4,r4,#1
        0x00000e46:    1c7f        ..      ADDS     r7,r7,#1
        0x00000e48:    2c00        .,      CMP      r4,#0
        0x00000e4a:    d1ee        ..      BNE      0xe2a ; _btod_etento + 86
        0x00000e4c:    4f19        .O      LDR      r7,[pc,#100] ; [0xeb4] = 0x5860
        0x00000e4e:    447f        .D      ADD      r7,r7,pc
        0x00000e50:    3fae        .?      SUBS     r7,r7,#0xae
        0x00000e52:    e019        ..      B        0xe88 ; _btod_etento + 180
        0x00000e54:    07e8        ..      LSLS     r0,r5,#31
        0x00000e56:    d015        ..      BEQ      0xe84 ; _btod_etento + 176
        0x00000e58:    eb071004    ....    ADD      r0,r7,r4,LSL #4
        0x00000e5c:    f10d0a18    ....    ADD      r10,sp,#0x18
        0x00000e60:    e890000e    ....    LDM      r0,{r1-r3}
        0x00000e64:    e88a000e    ....    STM      r10,{r1-r3}
        0x00000e68:    68c0        .h      LDR      r0,[r0,#0xc]
        0x00000e6a:    42f0        .B      CMN      r0,r6
        0x00000e6c:    d101        ..      BNE      0xe72 ; _btod_etento + 158
        0x00000e6e:    1998        ..      ADDS     r0,r3,r6
        0x00000e70:    9008        ..      STR      r0,[sp,#0x20]
        0x00000e72:    4632        2F      MOV      r2,r6
        0x00000e74:    2301        .#      MOVS     r3,#1
        0x00000e76:    a906        ..      ADD      r1,sp,#0x18
        0x00000e78:    a803        ..      ADD      r0,sp,#0xc
        0x00000e7a:    f000fb2b    ..+.    BL       _btod_emul ; 0x14d4
        0x00000e7e:    ab03        ..      ADD      r3,sp,#0xc
        0x00000e80:    e8830007    ....    STM      r3,{r0-r2}
        0x00000e84:    106d        m.      ASRS     r5,r5,#1
        0x00000e86:    1c64        d.      ADDS     r4,r4,#1
        0x00000e88:    2d00        .-      CMP      r5,#0
        0x00000e8a:    d1e3        ..      BNE      0xe54 ; _btod_etento + 128
        0x00000e8c:    f04f0301    O...    MOV      r3,#1
        0x00000e90:    4632        2F      MOV      r2,r6
        0x00000e92:    4669        iF      MOV      r1,sp
        0x00000e94:    f1b80f00    ....    CMP      r8,#0
        0x00000e98:    a803        ..      ADD      r0,sp,#0xc
        0x00000e9a:    d002        ..      BEQ      0xea2 ; _btod_etento + 206
        0x00000e9c:    f000fb05    ....    BL       _btod_ediv ; 0x14aa
        0x00000ea0:    e001        ..      B        0xea6 ; _btod_etento + 210
        0x00000ea2:    f000fb17    ....    BL       _btod_emul ; 0x14d4
        0x00000ea6:    e9c90100    ....    STRD     r0,r1,[r9,#0]
        0x00000eaa:    f8c92008    ...     STR      r2,[r9,#8]
        0x00000eae:    b00a        ..      ADD      sp,sp,#0x28
        0x00000eb0:    e8bd87f0    ....    POP      {r4-r10,pc}
    $d
        0x00000eb4:    00005860    `X..    DCD    22624
    $t
    .text
    ferror
        0x00000eb8:    7b00        .{      LDRB     r0,[r0,#0xc]
        0x00000eba:    f0000080    ....    AND      r0,r0,#0x80
        0x00000ebe:    4770        pG      BX       lr
    .text
    __user_libspace
    __user_perproc_libspace
    __user_perthread_libspace
        0x00000ec0:    4800        .H      LDR      r0,[pc,#0] ; [0xec4] = 0x200053f4
        0x00000ec2:    4770        pG      BX       lr
    $d
        0x00000ec4:    200053f4    .S.     DCD    536892404
    $t
    .text
    __user_setup_stackheap
        0x00000ec8:    4675        uF      MOV      r5,lr
        0x00000eca:    f7fffff9    ....    BL       __user_libspace ; 0xec0
        0x00000ece:    46ae        .F      MOV      lr,r5
        0x00000ed0:    0005        ..      MOVS     r5,r0
        0x00000ed2:    4669        iF      MOV      r1,sp
        0x00000ed4:    4653        SF      MOV      r3,r10
        0x00000ed6:    f0200007     ...    BIC      r0,r0,#7
        0x00000eda:    4685        .F      MOV      sp,r0
        0x00000edc:    b018        ..      ADD      sp,sp,#0x60
        0x00000ede:    b520         .      PUSH     {r5,lr}
        0x00000ee0:    f7fff9f0    ....    BL       __user_initial_stackheap ; 0x2c4
        0x00000ee4:    e8bd4020    .. @    POP      {r5,lr}
        0x00000ee8:    f04f0600    O...    MOV      r6,#0
        0x00000eec:    f04f0700    O...    MOV      r7,#0
        0x00000ef0:    f04f0800    O...    MOV      r8,#0
        0x00000ef4:    f04f0b00    O...    MOV      r11,#0
        0x00000ef8:    f0210107    !...    BIC      r1,r1,#7
        0x00000efc:    46ac        .F      MOV      r12,r5
        0x00000efe:    e8ac09c0    ....    STM      r12!,{r6-r8,r11}
        0x00000f02:    e8ac09c0    ....    STM      r12!,{r6-r8,r11}
        0x00000f06:    e8ac09c0    ....    STM      r12!,{r6-r8,r11}
        0x00000f0a:    e8ac09c0    ....    STM      r12!,{r6-r8,r11}
        0x00000f0e:    468d        .F      MOV      sp,r1
        0x00000f10:    4770        pG      BX       lr
    .text
    exit
        0x00000f12:    b510        ..      PUSH     {r4,lr}
        0x00000f14:    4604        .F      MOV      r4,r0
        0x00000f16:    f3af8000    ....    NOP.W    
        0x00000f1a:    4620         F      MOV      r0,r4
        0x00000f1c:    e8bd4010    ...@    POP      {r4,lr}
        0x00000f20:    f7ffb96b    ..k.    B        __rt_exit ; 0x1fa
    .text
    strcmp
        0x00000f24:    f04f3c01    O..<    MOV      r12,#0x1010101
        0x00000f28:    f8502b04    P..+    LDR      r2,[r0],#4
        0x00000f2c:    f8513b04    Q..;    LDR      r3,[r1],#4
        0x00000f30:    429a        .B      CMP      r2,r3
        0x00000f32:    d121        !.      BNE      0xf78 ; strcmp + 84
        0x00000f34:    eba2030c    ....    SUB      r3,r2,r12
        0x00000f38:    4393        .C      BICS     r3,r3,r2
        0x00000f3a:    ea1313cc    ....    ANDS     r3,r3,r12,LSL #7
        0x00000f3e:    d117        ..      BNE      0xf70 ; strcmp + 76
        0x00000f40:    f8502b04    P..+    LDR      r2,[r0],#4
        0x00000f44:    f8513b04    Q..;    LDR      r3,[r1],#4
        0x00000f48:    429a        .B      CMP      r2,r3
        0x00000f4a:    d115        ..      BNE      0xf78 ; strcmp + 84
        0x00000f4c:    eba2030c    ....    SUB      r3,r2,r12
        0x00000f50:    4393        .C      BICS     r3,r3,r2
        0x00000f52:    ea1313cc    ....    ANDS     r3,r3,r12,LSL #7
        0x00000f56:    d10b        ..      BNE      0xf70 ; strcmp + 76
        0x00000f58:    f8502b04    P..+    LDR      r2,[r0],#4
        0x00000f5c:    f8513b04    Q..;    LDR      r3,[r1],#4
        0x00000f60:    429a        .B      CMP      r2,r3
        0x00000f62:    d109        ..      BNE      0xf78 ; strcmp + 84
        0x00000f64:    eba2030c    ....    SUB      r3,r2,r12
        0x00000f68:    4393        .C      BICS     r3,r3,r2
        0x00000f6a:    ea1313cc    ....    ANDS     r3,r3,r12,LSL #7
        0x00000f6e:    d0db        ..      BEQ      0xf28 ; strcmp + 4
        0x00000f70:    f04f0000    O...    MOV      r0,#0
        0x00000f74:    4770        pG      BX       lr
        0x00000f76:    bf00        ..      NOP      
        0x00000f78:    1ad0        ..      SUBS     r0,r2,r3
        0x00000f7a:    ba01        ..      REV      r1,r0
        0x00000f7c:    fab1f181    ....    CLZ      r1,r1
        0x00000f80:    f0010118    ....    AND      r1,r1,#0x18
        0x00000f84:    fa22f001    "...    LSR      r0,r2,r1
        0x00000f88:    40cb        .@      LSRS     r3,r3,r1
        0x00000f8a:    f1c10120    .. .    RSB      r1,r1,#0x20
        0x00000f8e:    b2db        ..      UXTB     r3,r3
        0x00000f90:    b2c0        ..      UXTB     r0,r0
        0x00000f92:    1ac0        ..      SUBS     r0,r0,r3
        0x00000f94:    fa2cf301    ,...    LSR      r3,r12,r1
        0x00000f98:    1ad1        ..      SUBS     r1,r2,r3
        0x00000f9a:    4391        .C      BICS     r1,r1,r2
        0x00000f9c:    ea1111c3    ....    ANDS     r1,r1,r3,LSL #7
        0x00000fa0:    d1e6        ..      BNE      0xf70 ; strcmp + 76
        0x00000fa2:    4770        pG      BX       lr
    .text
    _sys_exit
        0x00000fa4:    4901        .I      LDR      r1,[pc,#4] ; [0xfac] = 0x20026
        0x00000fa6:    2018        .       MOVS     r0,#0x18
        0x00000fa8:    beab        ..      BKPT     #0xab
        0x00000faa:    e7fe        ..      B        0xfaa ; _sys_exit + 6
    $d
        0x00000fac:    00020026    &...    DCD    131110
    $t
    .text
    __I$use$semihosting
    __use_no_semihosting_swi
        0x00000fb0:    4770        pG      BX       lr
    CL$$btod_d2e
    .text
    __semihosting_library_function
    _btod_d2e
        0x00000fb2:    ea5f0c40    _.@.    LSLS     r12,r0,#1
        0x00000fb6:    bf08        ..      IT       EQ
        0x00000fb8:    f0910f00    ....    TEQEQ    r1,#0
        0x00000fbc:    ea4f238c    O..#    LSL      r3,r12,#10
        0x00000fc0:    ea4f22c1    O.."    LSL      r2,r1,#11
        0x00000fc4:    ea435151    C.QQ    ORR      r1,r3,r1,LSR #21
        0x00000fc8:    ea4f501c    O..P    LSR      r0,r12,#20
        0x00000fcc:    bf18        ..      IT       NE
        0x00000fce:    f50040f0    ...@    ADDNE    r0,r0,#0x7800
        0x00000fd2:    ea4f0030    O.0.    RRX      r0,r0
        0x00000fd6:    bf18        ..      IT       NE
        0x00000fd8:    f0414100    A..A    ORRNE    r1,r1,#0x80000000
        0x00000fdc:    ea5f5c6c    _.l\    ASRS     r12,r12,#21
        0x00000fe0:    f0008029    ..).    BEQ.W    _d2e_norm_op1 ; 0x1036
        0x00000fe4:    f1bc3fff    ...?    CMP      r12,#0xffffffff
        0x00000fe8:    bf08        ..      IT       EQ
        0x00000fea:    f0404080    @..@    ORREQ    r0,r0,#0x40000000
        0x00000fee:    4770        pG      BX       lr
    CL$$btod_d2e_denorm_low
    _d2e_denorm_low
        0x00000ff0:    0c13        ..      LSRS     r3,r2,#16
        0x00000ff2:    bf06        ..      ITTE     EQ
        0x00000ff4:    0412        ..      LSLEQ    r2,r2,#16
        0x00000ff6:    f04f0c10    O...    MOVEQ    r12,#0x10
        0x00000ffa:    f04f0c00    O...    MOVNE    r12,#0
        0x00000ffe:    0e13        ..      LSRS     r3,r2,#24
        0x00001000:    bf04        ..      ITT      EQ
        0x00001002:    0212        ..      LSLEQ    r2,r2,#8
        0x00001004:    f10c0c08    ....    ADDEQ    r12,r12,#8
        0x00001008:    0f13        ..      LSRS     r3,r2,#28
        0x0000100a:    bf04        ..      ITT      EQ
        0x0000100c:    0112        ..      LSLEQ    r2,r2,#4
        0x0000100e:    f10c0c04    ....    ADDEQ    r12,r12,#4
        0x00001012:    0f93        ..      LSRS     r3,r2,#30
        0x00001014:    bf04        ..      ITT      EQ
        0x00001016:    0092        ..      LSLEQ    r2,r2,#2
        0x00001018:    f10c0c02    ....    ADDEQ    r12,r12,#2
        0x0000101c:    0fd3        ..      LSRS     r3,r2,#31
        0x0000101e:    bf04        ..      ITT      EQ
        0x00001020:    0052        R.      LSLEQ    r2,r2,#1
        0x00001022:    f10c0c01    ....    ADDEQ    r12,r12,#1
        0x00001026:    4611        .F      MOV      r1,r2
        0x00001028:    f04f0200    O...    MOV      r2,#0
        0x0000102c:    f1a0001f    ....    SUB      r0,r0,#0x1f
        0x00001030:    eba0000c    ....    SUB      r0,r0,r12
        0x00001034:    4770        pG      BX       lr
    CL$$btod_d2e_norm_op1
    _d2e_norm_op1
        0x00001036:    f0114f00    ...O    TST      r1,#0x80000000
        0x0000103a:    bf08        ..      IT       EQ
        0x0000103c:    4770        pG      BXEQ     lr
        0x0000103e:    f0314100    1..A    BICS     r1,r1,#0x80000000
        0x00001042:    f43fafd5    ?...    BEQ.W    _d2e_denorm_low ; 0xff0
        0x00001046:    0c0b        ..      LSRS     r3,r1,#16
        0x00001048:    bf06        ..      ITTE     EQ
        0x0000104a:    0409        ..      LSLEQ    r1,r1,#16
        0x0000104c:    f04f0c10    O...    MOVEQ    r12,#0x10
        0x00001050:    f04f0c00    O...    MOVNE    r12,#0
        0x00001054:    0e0b        ..      LSRS     r3,r1,#24
        0x00001056:    bf04        ..      ITT      EQ
        0x00001058:    0209        ..      LSLEQ    r1,r1,#8
        0x0000105a:    f10c0c08    ....    ADDEQ    r12,r12,#8
        0x0000105e:    0f0b        ..      LSRS     r3,r1,#28
        0x00001060:    bf04        ..      ITT      EQ
        0x00001062:    0109        ..      LSLEQ    r1,r1,#4
        0x00001064:    f10c0c04    ....    ADDEQ    r12,r12,#4
        0x00001068:    0f8b        ..      LSRS     r3,r1,#30
        0x0000106a:    bf04        ..      ITT      EQ
        0x0000106c:    0089        ..      LSLEQ    r1,r1,#2
        0x0000106e:    f10c0c02    ....    ADDEQ    r12,r12,#2
        0x00001072:    0fcb        ..      LSRS     r3,r1,#31
        0x00001074:    bf04        ..      ITT      EQ
        0x00001076:    0049        I.      LSLEQ    r1,r1,#1
        0x00001078:    f10c0c01    ....    ADDEQ    r12,r12,#1
        0x0000107c:    f1cc0320    .. .    RSB      r3,r12,#0x20
        0x00001080:    eba0000c    ....    SUB      r0,r0,r12
        0x00001084:    fa22f303    "...    LSR      r3,r2,r3
        0x00001088:    fa02f20c    ....    LSL      r2,r2,r12
        0x0000108c:    ea410103    A...    ORR      r1,r1,r3
        0x00001090:    f1000001    ....    ADD      r0,r0,#1
        0x00001094:    4770        pG      BX       lr
    CL$$btod_div_common
    __btod_div_common
        0x00001096:    f0204c7f     ..L    BIC      r12,r0,#0xff000000
        0x0000109a:    ea800003    ....    EOR      r0,r0,r3
        0x0000109e:    f023477f    #..G    BIC      r7,r3,#0xff000000
        0x000010a2:    ebac0307    ....    SUB      r3,r12,r7
        0x000010a6:    f503537c    ..|S    ADD      r3,r3,#0x3f00
        0x000010aa:    f0004000    ...@    AND      r0,r0,#0x80000000
        0x000010ae:    f10303ff    ....    ADD      r3,r3,#0xff
        0x000010b2:    e92d4980    -..I    PUSH     {r7,r8,r11,lr}
        0x000010b6:    ea4f4b15    O..K    LSR      r11,r5,#16
        0x000010ba:    b409        ..      PUSH     {r0,r3}
        0x000010bc:    ea4f4314    O..C    LSR      r3,r4,#16
        0x000010c0:    ea254e0b    %..N    BIC      lr,r5,r11,LSL #16
        0x000010c4:    ea244803    $..H    BIC      r8,r4,r3,LSL #16
        0x000010c8:    f20f2604    ...&    ADR.W    r6,{pc}+0x208 ; 0x12d0
        0x000010cc:    eb062713    ...'    ADD      r7,r6,r3,LSR #8
        0x000010d0:    0849        I.      LSRS     r1,r1,#1
        0x000010d2:    783e        >x      LDRB     r6,[r7,#0]
        0x000010d4:    ea5f0232    _.2.    RRXS     r2,r2
        0x000010d8:    fb036706    ...g    MLA      r7,r3,r6,r6
        0x000010dc:    f5c70700    ....    RSB      r7,r7,#0x800000
        0x000010e0:    fb07f606    ....    MUL      r6,r7,r6
        0x000010e4:    ea4f3754    O.T7    LSR      r7,r4,#13
        0x000010e8:    ea4f46d6    O..F    LSR      r6,r6,#19
        0x000010ec:    f1060602    ....    ADD      r6,r6,#2
        0x000010f0:    fb076c06    ...l    MLA      r12,r7,r6,r6
        0x000010f4:    f1cc5c00    ...\    RSB      r12,r12,#0x20000000
        0x000010f8:    ea4f471c    O..G    LSR      r7,r12,#16
        0x000010fc:    ea2c4c07    ,..L    BIC      r12,r12,r7,LSL #16
        0x00001100:    fb07f406    ....    MUL      r4,r7,r6
        0x00001104:    fb0cf506    ....    MUL      r5,r12,r6
        0x00001108:    eb044615    ...F    ADD      r6,r4,r5,LSR #16
        0x0000110c:    ea4f1696    O...    LSR      r6,r6,#6
        0x00001110:    bf34        4.      ITE      CC
        0x00001112:    2000        .       MOVCC    r0,#0
        0x00001114:    f04f4000    O..@    MOVCS    r0,#0x80000000
        0x00001118:    ea4f37d1    O..7    LSR      r7,r1,#15
        0x0000111c:    fb06fc07    ....    MUL      r12,r6,r7
        0x00001120:    ea4f4c1c    O..L    LSR      r12,r12,#16
        0x00001124:    fb0cf70b    ....    MUL      r7,r12,r11
        0x00001128:    1bd2        ..      SUBS     r2,r2,r7
        0x0000112a:    fb03f70c    ....    MUL      r7,r3,r12
        0x0000112e:    eb610107    a...    SBC      r1,r1,r7
        0x00001132:    fb0cf70e    ....    MUL      r7,r12,lr
        0x00001136:    ebb04007    ...@    SUBS     r0,r0,r7,LSL #16
        0x0000113a:    eb724217    r..B    SBCS     r2,r2,r7,LSR #16
        0x0000113e:    fb0cf708    ....    MUL      r7,r12,r8
        0x00001142:    bf34        4.      ITE      CC
        0x00001144:    eba24207    ...B    SUBCC    r2,r2,r7,LSL #16
        0x00001148:    ebb24207    ...B    SUBSCS   r2,r2,r7,LSL #16
        0x0000114c:    eb614117    a..A    SBC      r1,r1,r7,LSR #16
        0x00001150:    ea4f440c    O..D    LSL      r4,r12,#16
        0x00001154:    ea4f0791    O...    LSR      r7,r1,#2
        0x00001158:    fb06fc07    ....    MUL      r12,r6,r7
        0x0000115c:    ea4f4c1c    O..L    LSR      r12,r12,#16
        0x00001160:    fb0cf70b    ....    MUL      r7,r12,r11
        0x00001164:    ebb040c7    ...@    SUBS     r0,r0,r7,LSL #19
        0x00001168:    eb723257    r.W2    SBCS     r2,r2,r7,LSR #13
        0x0000116c:    fb03f70c    ....    MUL      r7,r3,r12
        0x00001170:    bf34        4.      ITE      CC
        0x00001172:    eba242c7    ...B    SUBCC    r2,r2,r7,LSL #19
        0x00001176:    ebb242c7    ...B    SUBSCS   r2,r2,r7,LSL #19
        0x0000117a:    eb613157    a.W1    SBC      r1,r1,r7,LSR #13
        0x0000117e:    fb0cf70e    ....    MUL      r7,r12,lr
        0x00001182:    ebb000c7    ....    SUBS     r0,r0,r7,LSL #3
        0x00001186:    eb727257    r.Wr    SBCS     r2,r2,r7,LSR #29
        0x0000118a:    fb0cf708    ....    MUL      r7,r12,r8
        0x0000118e:    bf34        4.      ITE      CC
        0x00001190:    eba202c7    ....    SUBCC    r2,r2,r7,LSL #3
        0x00001194:    ebb202c7    ....    SUBSCS   r2,r2,r7,LSL #3
        0x00001198:    eb617157    a.Wq    SBC      r1,r1,r7,LSR #29
        0x0000119c:    9f03        ..      LDR      r7,[sp,#0xc]
        0x0000119e:    ea4f6181    O..a    LSL      r1,r1,#26
        0x000011a2:    ea411192    A...    ORR      r1,r1,r2,LSR #6
        0x000011a6:    eb0404cc    ....    ADD      r4,r4,r12,LSL #3
        0x000011aa:    ea4f37d1    O..7    LSR      r7,r1,#15
        0x000011ae:    ea4f6282    O..b    LSL      r2,r2,#26
        0x000011b2:    fb06fc07    ....    MUL      r12,r6,r7
        0x000011b6:    ea421290    B...    ORR      r2,r2,r0,LSR #6
        0x000011ba:    ea4f6080    O..`    LSL      r0,r0,#26
        0x000011be:    ea4f4c1c    O..L    LSR      r12,r12,#16
        0x000011c2:    fb0cf70b    ....    MUL      r7,r12,r11
        0x000011c6:    1bd2        ..      SUBS     r2,r2,r7
        0x000011c8:    fb03f70c    ....    MUL      r7,r3,r12
        0x000011cc:    eb610107    a...    SBC      r1,r1,r7
        0x000011d0:    fb0cf70e    ....    MUL      r7,r12,lr
        0x000011d4:    ebb04007    ...@    SUBS     r0,r0,r7,LSL #16
        0x000011d8:    eb724217    r..B    SBCS     r2,r2,r7,LSR #16
        0x000011dc:    fb0cf708    ....    MUL      r7,r12,r8
        0x000011e0:    bf34        4.      ITE      CC
        0x000011e2:    eba24207    ...B    SUBCC    r2,r2,r7,LSL #16
        0x000011e6:    ebb24207    ...B    SUBSCS   r2,r2,r7,LSL #16
        0x000011ea:    eb614117    a..A    SBC      r1,r1,r7,LSR #16
        0x000011ee:    ea4f558c    O..U    LSL      r5,r12,#22
        0x000011f2:    ea4f0791    O...    LSR      r7,r1,#2
        0x000011f6:    eb04249c    ...$    ADD      r4,r4,r12,LSR #10
        0x000011fa:    fb06fc07    ....    MUL      r12,r6,r7
        0x000011fe:    ea4f4c1c    O..L    LSR      r12,r12,#16
        0x00001202:    fb0cf70b    ....    MUL      r7,r12,r11
        0x00001206:    ebb040c7    ...@    SUBS     r0,r0,r7,LSL #19
        0x0000120a:    eb723257    r.W2    SBCS     r2,r2,r7,LSR #13
        0x0000120e:    fb03f70c    ....    MUL      r7,r3,r12
        0x00001212:    bf34        4.      ITE      CC
        0x00001214:    eba242c7    ...B    SUBCC    r2,r2,r7,LSL #19
        0x00001218:    ebb242c7    ...B    SUBSCS   r2,r2,r7,LSL #19
        0x0000121c:    eb613157    a.W1    SBC      r1,r1,r7,LSR #13
        0x00001220:    fb0cf70e    ....    MUL      r7,r12,lr
        0x00001224:    ebb000c7    ....    SUBS     r0,r0,r7,LSL #3
        0x00001228:    eb727257    r.Wr    SBCS     r2,r2,r7,LSR #29
        0x0000122c:    fb0cf708    ....    MUL      r7,r12,r8
        0x00001230:    bf34        4.      ITE      CC
        0x00001232:    eba202c7    ....    SUBCC    r2,r2,r7,LSL #3
        0x00001236:    ebb202c7    ....    SUBSCS   r2,r2,r7,LSL #3
        0x0000123a:    eb617157    a.Wq    SBC      r1,r1,r7,LSR #29
        0x0000123e:    eb15254c    ..L%    ADDS     r5,r5,r12,LSL #9
        0x00001242:    ea4f6181    O..a    LSL      r1,r1,#26
        0x00001246:    ea411192    A...    ORR      r1,r1,r2,LSR #6
        0x0000124a:    ea4f6282    O..b    LSL      r2,r2,#26
        0x0000124e:    ea4f37d1    O..7    LSR      r7,r1,#15
        0x00001252:    ea421290    B...    ORR      r2,r2,r0,LSR #6
        0x00001256:    fb06fc07    ....    MUL      r12,r6,r7
        0x0000125a:    f1440400    D...    ADC      r4,r4,#0
        0x0000125e:    ea4f6080    O..`    LSL      r0,r0,#26
        0x00001262:    ea4f4c1c    O..L    LSR      r12,r12,#16
        0x00001266:    fb0cf70b    ....    MUL      r7,r12,r11
        0x0000126a:    1bd2        ..      SUBS     r2,r2,r7
        0x0000126c:    fb03f70c    ....    MUL      r7,r3,r12
        0x00001270:    eb610107    a...    SBC      r1,r1,r7
        0x00001274:    fb0cf70e    ....    MUL      r7,r12,lr
        0x00001278:    ebb04007    ...@    SUBS     r0,r0,r7,LSL #16
        0x0000127c:    eb724217    r..B    SBCS     r2,r2,r7,LSR #16
        0x00001280:    fb0cf708    ....    MUL      r7,r12,r8
        0x00001284:    bf34        4.      ITE      CC
        0x00001286:    eba24207    ...B    SUBCC    r2,r2,r7,LSL #16
        0x0000128a:    ebb24207    ...B    SUBSCS   r2,r2,r7,LSL #16
        0x0000128e:    eb614117    a..A    SBC      r1,r1,r7,LSR #16
        0x00001292:    eb15151c    ....    ADDS     r5,r5,r12,LSR #4
        0x00001296:    ea4f3181    O..1    LSL      r1,r1,#14
        0x0000129a:    ea414192    A..A    ORR      r1,r1,r2,LSR #18
        0x0000129e:    ea4f3282    O..2    LSL      r2,r2,#14
        0x000012a2:    ea424290    B..B    ORR      r2,r2,r0,LSR #18
        0x000012a6:    ea4f3080    O..0    LSL      r0,r0,#14
        0x000012aa:    ea4f760c    O..v    LSL      r6,r12,#28
        0x000012ae:    f1440400    D...    ADC      r4,r4,#0
        0x000012b2:    ea484303    H..C    ORR      r3,r8,r3,LSL #16
        0x000012b6:    ea4e480b    N..H    ORR      r8,lr,r11,LSL #16
        0x000012ba:    f04f0e00    O...    MOV      lr,#0
        0x000012be:    ebb20c08    ....    SUBS     r12,r2,r8
        0x000012c2:    eb710703    q...    SBCS     r7,r1,r3
        0x000012c6:    bf24        $.      ITT      CS
        0x000012c8:    4662        bF      MOVCS    r2,r12
        0x000012ca:    4639        9F      MOVCS    r1,r7
        0x000012cc:    eb4e0e0e    N...    ADC      lr,lr,lr
        0x000012d0:    f04f0b00    O...    MOV      r11,#0
        0x000012d4:    1800        ..      ADDS     r0,r0,r0
        0x000012d6:    4152        RA      ADCS     r2,r2,r2
        0x000012d8:    4149        IA      ADCS     r1,r1,r1
        0x000012da:    eb4b0b0b    K...    ADC      r11,r11,r11
        0x000012de:    ebb20c08    ....    SUBS     r12,r2,r8
        0x000012e2:    eb710703    q...    SBCS     r7,r1,r3
        0x000012e6:    f17b0b00    {...    SBCS     r11,r11,#0
        0x000012ea:    bf24        $.      ITT      CS
        0x000012ec:    4662        bF      MOVCS    r2,r12
        0x000012ee:    4639        9F      MOVCS    r1,r7
        0x000012f0:    eb4e0e0e    N...    ADC      lr,lr,lr
        0x000012f4:    f04f0b00    O...    MOV      r11,#0
        0x000012f8:    1800        ..      ADDS     r0,r0,r0
        0x000012fa:    4152        RA      ADCS     r2,r2,r2
        0x000012fc:    4149        IA      ADCS     r1,r1,r1
        0x000012fe:    eb4b0b0b    K...    ADC      r11,r11,r11
        0x00001302:    ebb20c08    ....    SUBS     r12,r2,r8
        0x00001306:    eb710703    q...    SBCS     r7,r1,r3
        0x0000130a:    f17b0b00    {...    SBCS     r11,r11,#0
        0x0000130e:    bf24        $.      ITT      CS
        0x00001310:    4662        bF      MOVCS    r2,r12
        0x00001312:    4639        9F      MOVCS    r1,r7
        0x00001314:    eb4e0e0e    N...    ADC      lr,lr,lr
        0x00001318:    ea510702    Q...    ORRS     r7,r1,r2
        0x0000131c:    bf18        ..      IT       NE
        0x0000131e:    f0460601    F...    ORRNE    r6,r6,#1
        0x00001322:    eb16760e    ...v    ADDS     r6,r6,lr,LSL #28
        0x00001326:    f1550200    U...    ADCS     r2,r5,#0
        0x0000132a:    f1540100    T...    ADCS     r1,r4,#0
        0x0000132e:    d503        ..      BPL      0x1338 ; __btod_div_common + 674
        0x00001330:    e8bd0189    ....    POP      {r0,r3,r7,r8}
        0x00001334:    e8bd8800    ....    POP      {r11,pc}
        0x00001338:    e8bd0189    ....    POP      {r0,r3,r7,r8}
        0x0000133c:    e8bd4800    ...H    POP      {r11,lr}
        0x00001340:    19b6        ..      ADDS     r6,r6,r6
        0x00001342:    4152        RA      ADCS     r2,r2,r2
        0x00001344:    eb410101    A...    ADC      r1,r1,r1
        0x00001348:    f1a30301    ....    SUB      r3,r3,#1
        0x0000134c:    4770        pG      BX       lr
    $d
        0x0000134e:    8080        ..      DCW    32896
        0x00001350:    7c7d7e7f    .~}|    DCD    2088599167
        0x00001354:    78797a7b    {zyx    DCD    2021227131
        0x00001358:    75767677    wvvu    DCD    1970697847
        0x0000135c:    71727374    tsrq    DCD    1903326068
        0x00001360:    6e6f7071    qpon    DCD    1852797041
        0x00001364:    6c6c6d6e    nmll    DCD    1819045230
        0x00001368:    696a6a6b    kjji    DCD    1768581739
        0x0000136c:    66676868    hhgf    DCD    1718052968
        0x00001370:    64646566    fedd    DCD    1684301158
        0x00001374:    61626363    ccba    DCD    1633837923
        0x00001378:    5f606061    a``_    DCD    1600151649
        0x0000137c:    5d5e5e5f    _^^]    DCD    1566465631
        0x00001380:    5b5c5c5d    ]\\[    DCD    1532779613
        0x00001384:    595a5a5b    [ZZY    DCD    1499093595
        0x00001388:    57585859    YXXW    DCD    1465407577
        0x0000138c:    55565657    WVVU    DCD    1431721559
        0x00001390:    54545555    UUTT    DCD    1414813013
        0x00001394:    52525353    SSRR    DCD    1381126995
        0x00001398:    50515152    RQQP    DCD    1347506514
        0x0000139c:    4f4f5050    PPOO    DCD    1330597968
        0x000013a0:    4d4e4e4f    ONNM    DCD    1296977487
        0x000013a4:    4c4c4d4d    MMLL    DCD    1280068941
        0x000013a8:    4b4b4b4c    LKKK    DCD    1263225676
        0x000013ac:    494a4a4a    JJJI    DCD    1229605450
        0x000013b0:    48484949    IIHH    DCD    1212696905
        0x000013b4:    47474748    HGGG    DCD    1195853640
        0x000013b8:    46464647    GFFF    DCD    1179010631
        0x000013bc:    44454545    EEED    DCD    1145390405
        0x000013c0:    43444444    DDDC    DCD    1128547396
        0x000013c4:    42434343    CCCB    DCD    1111704387
        0x000013c8:    41424242    BBBA    DCD    1094861378
        0x000013cc:    4141        AA      DCW    16705
    $t
    CL$$btod_e2e
    _e2e
        0x000013ce:    2b00        .+      CMP      r3,#0
        0x000013d0:    469c        .F      MOV      r12,r3
        0x000013d2:    d430        0.      BMI      0x1436 ; _e2e + 104
        0x000013d4:    0077        w.      LSLS     r7,r6,#1
        0x000013d6:    d02b        +.      BEQ      0x1430 ; _e2e + 98
        0x000013d8:    b51c        ..      PUSH     {r2-r4,lr}
        0x000013da:    ea4f0737    O.7.    RRX      r7,r7
        0x000013de:    b403        ..      PUSH     {r0,r1}
        0x000013e0:    f04f0010    O...    MOV      r0,#0x10
        0x000013e4:    f04f0110    O...    MOV      r1,#0x10
        0x000013e8:    f1ba0f00    ....    CMP      r10,#0
        0x000013ec:    d006        ..      BEQ      0x13fc ; _e2e + 46
        0x000013ee:    f1bc0f00    ....    CMP      r12,#0
        0x000013f2:    bfdc        ..      ITT      LE
        0x000013f4:    f0400008    @...    ORRLE    r0,r0,#8
        0x000013f8:    f0400108    @...    ORRLE    r1,r0,#8
        0x000013fc:    f04f0000    O...    MOV      r0,#0
        0x00001400:    bc0f        ..      POP      {r0-r3}
        0x00001402:    e8bd4010    ...@    POP      {r4,lr}
        0x00001406:    f10b0b01    ....    ADD      r11,r11,#1
        0x0000140a:    f1bb0f01    ....    CMP      r11,#1
        0x0000140e:    bf08        ..      IT       EQ
        0x00001410:    ea5f0717    _...    LSRSEQ   r7,r7,#32
        0x00001414:    bf22        ".      ITTT     CS
        0x00001416:    f1120201    ....    ADDSCS   r2,r2,#1
        0x0000141a:    f1110101    ....    ADDSCS   r1,r1,#1
        0x0000141e:    f04f4100    O..A    MOVCS    r1,#0x80000000
        0x00001422:    f1430300    C...    ADC      r3,r3,#0
        0x00001426:    f0004000    ...@    AND      r0,r0,#0x80000000
        0x0000142a:    ea430000    C...    ORR      r0,r3,r0
        0x0000142e:    4770        pG      BX       lr
        0x00001430:    d3f9        ..      BCC      0x1426 ; _e2e + 88
        0x00001432:    0857        W.      LSRS     r7,r2,#1
        0x00001434:    e7d0        ..      B        0x13d8 ; _e2e + 10
        0x00001436:    ea464606    F..F    ORR      r6,r6,r6,LSL #16
        0x0000143a:    f1130f40    ..@.    CMN      r3,#0x40
        0x0000143e:    ea4f4616    O..F    LSR      r6,r6,#16
        0x00001442:    dd1f        ..      BLE      0x1484 ; _e2e + 182
        0x00001444:    f1130f20    .. .    CMN      r3,#0x20
        0x00001448:    bfdf        ..      ITTTT    LE
        0x0000144a:    4316        .C      ORRLE    r6,r6,r2
        0x0000144c:    460a        .F      MOVLE    r2,r1
        0x0000144e:    2100        .!      MOVLE    r1,#0
        0x00001450:    3320         3      ADDLE    r3,r3,#0x20
        0x00001452:    425b        [B      RSBS     r3,r3,#0
        0x00001454:    d0be        ..      BEQ      0x13d4 ; _e2e + 6
        0x00001456:    f1c30720    .. .    RSB      r7,r3,#0x20
        0x0000145a:    ea464606    F..F    ORR      r6,r6,r6,LSL #16
        0x0000145e:    fa02f707    ....    LSL      r7,r2,r7
        0x00001462:    ea4f4616    O..F    LSR      r6,r6,#16
        0x00001466:    ea460607    F...    ORR      r6,r6,r7
        0x0000146a:    f1c30720    .. .    RSB      r7,r3,#0x20
        0x0000146e:    fa22f203    "...    LSR      r2,r2,r3
        0x00001472:    fa01f707    ....    LSL      r7,r1,r7
        0x00001476:    fa21f103    !...    LSR      r1,r1,r3
        0x0000147a:    f04f0300    O...    MOV      r3,#0
        0x0000147e:    ea420207    B...    ORR      r2,r2,r7
        0x00001482:    e7a7        ..      B        0x13d4 ; _e2e + 6
        0x00001484:    ea460602    F...    ORR      r6,r6,r2
        0x00001488:    ea464606    F..F    ORR      r6,r6,r6,LSL #16
        0x0000148c:    ea4f4616    O..F    LSR      r6,r6,#16
        0x00001490:    ea460601    F...    ORR      r6,r6,r1
        0x00001494:    bfbc        ..      ITT      LT
        0x00001496:    ea464606    F..F    ORRLT    r6,r6,r6,LSL #16
        0x0000149a:    0c36        6.      LSRLT    r6,r6,#16
        0x0000149c:    f04f0300    O...    MOV      r3,#0
        0x000014a0:    f04f0200    O...    MOV      r2,#0
        0x000014a4:    f04f0100    O...    MOV      r1,#0
        0x000014a8:    e794        ..      B        0x13d4 ; _e2e + 6
    CL$$btod_ediv
    _btod_ediv
        0x000014aa:    e92d4c80    -..L    PUSH     {r7,r10,r11,lr}
        0x000014ae:    469a        .F      MOV      r10,r3
        0x000014b0:    4693        .F      MOV      r11,r2
        0x000014b2:    b470        p.      PUSH     {r4-r6}
        0x000014b4:    e8910038    ..8.    LDM      r1,{r3-r5}
        0x000014b8:    c807        ..      LDM      r0,{r0-r2}
        0x000014ba:    ea310c40    1.@.    BICS     r12,r1,r0,LSL #1
        0x000014be:    bf48        H.      IT       MI
        0x000014c0:    ea340c43    4.C.    BICSMI   r12,r4,r3,LSL #1
        0x000014c4:    d503        ..      BPL      0x14ce ; _btod_ediv + 36
        0x000014c6:    f7fffde6    ....    BL       __btod_div_common ; 0x1096
        0x000014ca:    f7ffff80    ....    BL       _e2e ; 0x13ce
        0x000014ce:    bcf0        ..      POP      {r4-r7}
        0x000014d0:    e8bd8c00    ....    POP      {r10,r11,pc}
    CL$$btod_emul
    _btod_emul
        0x000014d4:    e92d4c80    -..L    PUSH     {r7,r10,r11,lr}
        0x000014d8:    469a        .F      MOV      r10,r3
        0x000014da:    4693        .F      MOV      r11,r2
        0x000014dc:    b470        p.      PUSH     {r4-r6}
        0x000014de:    e8910038    ..8.    LDM      r1,{r3-r5}
        0x000014e2:    c807        ..      LDM      r0,{r0-r2}
        0x000014e4:    f0104f80    ...O    TST      r0,#0x40000000
        0x000014e8:    bf08        ..      IT       EQ
        0x000014ea:    f0134f80    ...O    TSTEQ    r3,#0x40000000
        0x000014ee:    d103        ..      BNE      0x14f8 ; _btod_emul + 36
        0x000014f0:    f000f805    ....    BL       __btod_mult_common ; 0x14fe
        0x000014f4:    f7ffff6b    ..k.    BL       _e2e ; 0x13ce
        0x000014f8:    bcf0        ..      POP      {r4-r7}
        0x000014fa:    e8bd8c00    ....    POP      {r10,r11,pc}
    CL$$btod_mult_common
    __btod_mult_common
        0x000014fe:    f020477f     ..G    BIC      r7,r0,#0xff000000
        0x00001502:    ea800003    ....    EOR      r0,r0,r3
        0x00001506:    f0234c7f    #..L    BIC      r12,r3,#0xff000000
        0x0000150a:    eb07030c    ....    ADD      r3,r7,r12
        0x0000150e:    f5a3537c    ..|S    SUB      r3,r3,#0x3f00
        0x00001512:    f0004000    ...@    AND      r0,r0,#0x80000000
        0x00001516:    f1a303fe    ....    SUB      r3,r3,#0xfe
        0x0000151a:    f0920f00    ....    TEQ      r2,#0
        0x0000151e:    f00080b3    ....    BEQ.W    0x1688 ; __btod_mult_common + 394
        0x00001522:    f0950f00    ....    TEQ      r5,#0
        0x00001526:    f0008077    ..w.    BEQ.W    0x1618 ; __btod_mult_common + 282
        0x0000152a:    e92d4901    -..I    PUSH     {r0,r8,r11,lr}
        0x0000152e:    ea4f4011    O..@    LSR      r0,r1,#16
        0x00001532:    ea4f4614    O..F    LSR      r6,r4,#16
        0x00001536:    ea214800    !..H    BIC      r8,r1,r0,LSL #16
        0x0000153a:    fb00fc06    ....    MUL      r12,r0,r6
        0x0000153e:    ea244706    $..G    BIC      r7,r4,r6,LSL #16
        0x00001542:    fb08f606    ....    MUL      r6,r8,r6
        0x00001546:    fb07f808    ....    MUL      r8,r7,r8
        0x0000154a:    fb00f707    ....    MUL      r7,r0,r7
        0x0000154e:    eb184806    ...H    ADDS     r8,r8,r6,LSL #16
        0x00001552:    eb4c4c16    L..L    ADC      r12,r12,r6,LSR #16
        0x00001556:    ea4f4b12    O..K    LSR      r11,r2,#16
        0x0000155a:    eb184807    ...H    ADDS     r8,r8,r7,LSL #16
        0x0000155e:    ea4f4615    O..F    LSR      r6,r5,#16
        0x00001562:    eb4c4017    L..@    ADC      r0,r12,r7,LSR #16
        0x00001566:    ea224e0b    "..N    BIC      lr,r2,r11,LSL #16
        0x0000156a:    fb0bfc06    ....    MUL      r12,r11,r6
        0x0000156e:    ea254706    %..G    BIC      r7,r5,r6,LSL #16
        0x00001572:    fb0ef606    ....    MUL      r6,lr,r6
        0x00001576:    fb07fe0e    ....    MUL      lr,r7,lr
        0x0000157a:    fb0bf707    ....    MUL      r7,r11,r7
        0x0000157e:    eb1e4e06    ...N    ADDS     lr,lr,r6,LSL #16
        0x00001582:    eb4c4c16    L..L    ADC      r12,r12,r6,LSR #16
        0x00001586:    f04f0600    O...    MOV      r6,#0
        0x0000158a:    eb1e4e07    ...N    ADDS     lr,lr,r7,LSL #16
        0x0000158e:    eb4c4b17    L..K    ADC      r11,r12,r7,LSR #16
        0x00001592:    eb18080b    ....    ADDS     r8,r8,r11
        0x00001596:    f1400000    @...    ADC      r0,r0,#0
        0x0000159a:    eb180b0e    ....    ADDS     r11,r8,lr
        0x0000159e:    eb580800    X...    ADCS     r8,r8,r0
        0x000015a2:    f1400000    @...    ADC      r0,r0,#0
        0x000015a6:    1a8f        ..      SUBS     r7,r1,r2
        0x000015a8:    f04f0100    O...    MOV      r1,#0
        0x000015ac:    bf3c        <.      ITT      CC
        0x000015ae:    43c9        .C      MVNCC    r1,r1
        0x000015b0:    1b66        f.      SUBCC    r6,r4,r5
        0x000015b2:    bf14        ..      ITE      NE
        0x000015b4:    ebb50c04    ....    SUBSNE   r12,r5,r4
        0x000015b8:    2100        .!      MOVEQ    r1,#0
        0x000015ba:    bf3c        <.      ITT      CC
        0x000015bc:    43c9        .C      MVNCC    r1,r1
        0x000015be:    1bf6        ..      SUBCC    r6,r6,r7
        0x000015c0:    ea4f4417    O..D    LSR      r4,r7,#16
        0x000015c4:    ea4e0e8e    N...    ORR      lr,lr,lr,LSL #2
        0x000015c8:    ea274504    '..E    BIC      r5,r7,r4,LSL #16
        0x000015cc:    ea4f471c    O..G    LSR      r7,r12,#16
        0x000015d0:    fb046207    ...b    MLA      r2,r4,r7,r6
        0x000015d4:    ea2c4c07    ,..L    BIC      r12,r12,r7,LSL #16
        0x000015d8:    fb05f707    ....    MUL      r7,r5,r7
        0x000015dc:    fb0cf605    ....    MUL      r6,r12,r5
        0x000015e0:    fb04fc0c    ....    MUL      r12,r4,r12
        0x000015e4:    eb164607    ...F    ADDS     r6,r6,r7,LSL #16
        0x000015e8:    eb424217    B..B    ADC      r2,r2,r7,LSR #16
        0x000015ec:    eb16460c    ...F    ADDS     r6,r6,r12,LSL #16
        0x000015f0:    eb42421c    B..B    ADC      r2,r2,r12,LSR #16
        0x000015f4:    eb1b0606    ....    ADDS     r6,r11,r6
        0x000015f8:    eb580202    X...    ADCS     r2,r8,r2
        0x000015fc:    4141        AA      ADCS     r1,r1,r0
        0x000015fe:    ea46069e    F...    ORR      r6,r6,lr,LSR #2
        0x00001602:    d501        ..      BPL      0x1608 ; __btod_mult_common + 266
        0x00001604:    e8bd8901    ....    POP      {r0,r8,r11,pc}
        0x00001608:    19b6        ..      ADDS     r6,r6,r6
        0x0000160a:    4152        RA      ADCS     r2,r2,r2
        0x0000160c:    eb410101    A...    ADC      r1,r1,r1
        0x00001610:    f1a30301    ....    SUB      r3,r3,#1
        0x00001614:    e8bd8901    ....    POP      {r0,r8,r11,pc}
        0x00001618:    ea4f4514    O..E    LSR      r5,r4,#16
        0x0000161c:    ea4f4711    O..G    LSR      r7,r1,#16
        0x00001620:    ea244605    $..F    BIC      r6,r4,r5,LSL #16
        0x00001624:    ea214c07    !..L    BIC      r12,r1,r7,LSL #16
        0x00001628:    fb05f407    ....    MUL      r4,r5,r7
        0x0000162c:    fb06f707    ....    MUL      r7,r6,r7
        0x00001630:    fb0cf106    ....    MUL      r1,r12,r6
        0x00001634:    fb05fc0c    ....    MUL      r12,r5,r12
        0x00001638:    eb114107    ...A    ADDS     r1,r1,r7,LSL #16
        0x0000163c:    eb444417    D..D    ADC      r4,r4,r7,LSR #16
        0x00001640:    ea4f4712    O..G    LSR      r7,r2,#16
        0x00001644:    eb11410c    ...A    ADDS     r1,r1,r12,LSL #16
        0x00001648:    eb44441c    D..D    ADC      r4,r4,r12,LSR #16
        0x0000164c:    ea224c07    "..L    BIC      r12,r2,r7,LSL #16
        0x00001650:    fb05f207    ....    MUL      r2,r5,r7
        0x00001654:    fb06f707    ....    MUL      r7,r6,r7
        0x00001658:    fb0cf606    ....    MUL      r6,r12,r6
        0x0000165c:    fb05fc0c    ....    MUL      r12,r5,r12
        0x00001660:    eb164607    ...F    ADDS     r6,r6,r7,LSL #16
        0x00001664:    eb424217    B..B    ADC      r2,r2,r7,LSR #16
        0x00001668:    eb16460c    ...F    ADDS     r6,r6,r12,LSL #16
        0x0000166c:    eb42451c    B..E    ADC      r5,r2,r12,LSR #16
        0x00001670:    186a        j.      ADDS     r2,r5,r1
        0x00001672:    f1540100    T...    ADCS     r1,r4,#0
        0x00001676:    bf48        H.      IT       MI
        0x00001678:    4770        pG      BXMI     lr
        0x0000167a:    19b6        ..      ADDS     r6,r6,r6
        0x0000167c:    4152        RA      ADCS     r2,r2,r2
        0x0000167e:    eb410101    A...    ADC      r1,r1,r1
        0x00001682:    f1a30301    ....    SUB      r3,r3,#1
        0x00001686:    4770        pG      BX       lr
        0x00001688:    f0950f00    ....    TEQ      r5,#0
        0x0000168c:    d037        7.      BEQ      0x16fe ; __btod_mult_common + 512
        0x0000168e:    ea4f4211    O..B    LSR      r2,r1,#16
        0x00001692:    ea4f4714    O..G    LSR      r7,r4,#16
        0x00001696:    ea214602    !..F    BIC      r6,r1,r2,LSL #16
        0x0000169a:    ea244c07    $..L    BIC      r12,r4,r7,LSL #16
        0x0000169e:    fb02f107    ....    MUL      r1,r2,r7
        0x000016a2:    fb06f707    ....    MUL      r7,r6,r7
        0x000016a6:    fb0cf406    ....    MUL      r4,r12,r6
        0x000016aa:    fb02fc0c    ....    MUL      r12,r2,r12
        0x000016ae:    eb144407    ...D    ADDS     r4,r4,r7,LSL #16
        0x000016b2:    eb414117    A..A    ADC      r1,r1,r7,LSR #16
        0x000016b6:    ea4f4715    O..G    LSR      r7,r5,#16
        0x000016ba:    eb14440c    ...D    ADDS     r4,r4,r12,LSL #16
        0x000016be:    eb41411c    A..A    ADC      r1,r1,r12,LSR #16
        0x000016c2:    ea254c07    %..L    BIC      r12,r5,r7,LSL #16
        0x000016c6:    fb02f507    ....    MUL      r5,r2,r7
        0x000016ca:    fb06f707    ....    MUL      r7,r6,r7
        0x000016ce:    fb0cf606    ....    MUL      r6,r12,r6
        0x000016d2:    fb02fc0c    ....    MUL      r12,r2,r12
        0x000016d6:    eb164607    ...F    ADDS     r6,r6,r7,LSL #16
        0x000016da:    eb454517    E..E    ADC      r5,r5,r7,LSR #16
        0x000016de:    eb16460c    ...F    ADDS     r6,r6,r12,LSL #16
        0x000016e2:    eb45421c    E..B    ADC      r2,r5,r12,LSR #16
        0x000016e6:    1912        ..      ADDS     r2,r2,r4
        0x000016e8:    f1510100    Q...    ADCS     r1,r1,#0
        0x000016ec:    bf48        H.      IT       MI
        0x000016ee:    4770        pG      BXMI     lr
        0x000016f0:    19b6        ..      ADDS     r6,r6,r6
        0x000016f2:    4152        RA      ADCS     r2,r2,r2
        0x000016f4:    eb410101    A...    ADC      r1,r1,r1
        0x000016f8:    f1a30301    ....    SUB      r3,r3,#1
        0x000016fc:    4770        pG      BX       lr
        0x000016fe:    ea4f4514    O..E    LSR      r5,r4,#16
        0x00001702:    ea4f4711    O..G    LSR      r7,r1,#16
        0x00001706:    ea244605    $..F    BIC      r6,r4,r5,LSL #16
        0x0000170a:    ea214c07    !..L    BIC      r12,r1,r7,LSL #16
        0x0000170e:    fb05f107    ....    MUL      r1,r5,r7
        0x00001712:    fb06f707    ....    MUL      r7,r6,r7
        0x00001716:    fb0cf206    ....    MUL      r2,r12,r6
        0x0000171a:    f04f0600    O...    MOV      r6,#0
        0x0000171e:    fb05fc0c    ....    MUL      r12,r5,r12
        0x00001722:    eb124207    ...B    ADDS     r2,r2,r7,LSL #16
        0x00001726:    eb414117    A..A    ADC      r1,r1,r7,LSR #16
        0x0000172a:    eb12420c    ...B    ADDS     r2,r2,r12,LSL #16
        0x0000172e:    eb51411c    Q..A    ADCS     r1,r1,r12,LSR #16
        0x00001732:    bf48        H.      IT       MI
        0x00001734:    4770        pG      BXMI     lr
        0x00001736:    1892        ..      ADDS     r2,r2,r2
        0x00001738:    eb410101    A...    ADC      r1,r1,r1
        0x0000173c:    f1a30301    ....    SUB      r3,r3,#1
        0x00001740:    4770        pG      BX       lr
    i.BME280_Configuration
    BME280_Configuration
        0x00001742:    e92d41f0    -..A    PUSH     {r4-r8,lr}
        0x00001746:    4604        .F      MOV      r4,r0
        0x00001748:    2000        .       MOVS     r0,#0
        0x0000174a:    f8943028    ..(0    LDRB     r3,[r4,#0x28]
        0x0000174e:    4605        .F      MOV      r5,r0
        0x00001750:    4606        .F      MOV      r6,r0
        0x00001752:    2207        ."      MOVS     r2,#7
        0x00001754:    2105        .!      MOVS     r1,#5
        0x00001756:    3427        '4      ADDS     r4,r4,#0x27
        0x00001758:    f000fa5c    ..\.    BL       Bit_Modification ; 0x1c14
        0x0000175c:    78a3        .x      LDRB     r3,[r4,#2]
        0x0000175e:    2204        ."      MOVS     r2,#4
        0x00001760:    2102        .!      MOVS     r1,#2
        0x00001762:    f000fa57    ..W.    BL       Bit_Modification ; 0x1c14
        0x00001766:    4607        .F      MOV      r7,r0
        0x00001768:    7963        cy      LDRB     r3,[r4,#5]
        0x0000176a:    2202        ."      MOVS     r2,#2
        0x0000176c:    2100        .!      MOVS     r1,#0
        0x0000176e:    4628        (F      MOV      r0,r5
        0x00001770:    f000fa50    ..P.    BL       Bit_Modification ; 0x1c14
        0x00001774:    4605        .F      MOV      r5,r0
        0x00001776:    7923        #y      LDRB     r3,[r4,#4]
        0x00001778:    2207        ."      MOVS     r2,#7
        0x0000177a:    2105        .!      MOVS     r1,#5
        0x0000177c:    4630        0F      MOV      r0,r6
        0x0000177e:    f000fa49    ..I.    BL       Bit_Modification ; 0x1c14
        0x00001782:    78e3        .x      LDRB     r3,[r4,#3]
        0x00001784:    2204        ."      MOVS     r2,#4
        0x00001786:    2102        .!      MOVS     r1,#2
        0x00001788:    f000fa44    ..D.    BL       Bit_Modification ; 0x1c14
        0x0000178c:    f8143927    ..'9    LDRB     r3,[r4],#-0x27
        0x00001790:    2201        ."      MOVS     r2,#1
        0x00001792:    2100        .!      MOVS     r1,#0
        0x00001794:    f000fa3e    ..>.    BL       Bit_Modification ; 0x1c14
        0x00001798:    4606        .F      MOV      r6,r0
        0x0000179a:    463a        :F      MOV      r2,r7
        0x0000179c:    21f5        .!      MOVS     r1,#0xf5
        0x0000179e:    4620         F      MOV      r0,r4
        0x000017a0:    f000fa00    ....    BL       BME280_Write ; 0x1ba4
        0x000017a4:    b960        `.      CBNZ     r0,0x17c0 ; BME280_Configuration + 126
        0x000017a6:    462a        *F      MOV      r2,r5
        0x000017a8:    21f2        .!      MOVS     r1,#0xf2
        0x000017aa:    4620         F      MOV      r0,r4
        0x000017ac:    f000f9fa    ....    BL       BME280_Write ; 0x1ba4
        0x000017b0:    b930        0.      CBNZ     r0,0x17c0 ; BME280_Configuration + 126
        0x000017b2:    4632        2F      MOV      r2,r6
        0x000017b4:    21f4        .!      MOVS     r1,#0xf4
        0x000017b6:    4620         F      MOV      r0,r4
        0x000017b8:    f000f9f4    ....    BL       BME280_Write ; 0x1ba4
        0x000017bc:    2800        .(      CMP      r0,#0
        0x000017be:    d000        ..      BEQ      0x17c2 ; BME280_Configuration + 128
        0x000017c0:    2001        .       MOVS     r0,#1
        0x000017c2:    e8bd81f0    ....    POP      {r4-r8,pc}
        0x000017c6:    0000        ..      MOVS     r0,r0
    i.BME280_Get_ALL
    BME280_Get_ALL
        0x000017c8:    e92d47fc    -..G    PUSH     {r2-r10,lr}
        0x000017cc:    4604        .F      MOV      r4,r0
        0x000017ce:    2000        .       MOVS     r0,#0
        0x000017d0:    461f        .F      MOV      r7,r3
        0x000017d2:    4691        .F      MOV      r9,r2
        0x000017d4:    4688        .F      MOV      r8,r1
        0x000017d6:    9000        ..      STR      r0,[sp,#0]
        0x000017d8:    9001        ..      STR      r0,[sp,#4]
        0x000017da:    2308        .#      MOVS     r3,#8
        0x000017dc:    466a        jF      MOV      r2,sp
        0x000017de:    21f7        .!      MOVS     r1,#0xf7
        0x000017e0:    4620         F      MOV      r0,r4
        0x000017e2:    f000f967    ..g.    BL       BME280_Read ; 0x1ab4
        0x000017e6:    b110        ..      CBZ      r0,0x17ee ; BME280_Get_ALL + 38
        0x000017e8:    2001        .       MOVS     r0,#1
        0x000017ea:    e8bd87fc    ....    POP      {r2-r10,pc}
        0x000017ee:    f89d0000    ....    LDRB     r0,[sp,#0]
        0x000017f2:    f89d1001    ....    LDRB     r1,[sp,#1]
        0x000017f6:    0300        ..      LSLS     r0,r0,#12
        0x000017f8:    ea401001    @...    ORR      r0,r0,r1,LSL #4
        0x000017fc:    f89d1002    ....    LDRB     r1,[sp,#2]
        0x00001800:    f9b4c014    ....    LDRSH    r12,[r4,#0x14]
        0x00001804:    ea401311    @...    ORR      r3,r0,r1,LSR #4
        0x00001808:    f89d0003    ....    LDRB     r0,[sp,#3]
        0x0000180c:    f89d1004    ....    LDRB     r1,[sp,#4]
        0x00001810:    0300        ..      LSLS     r0,r0,#12
        0x00001812:    ea401001    @...    ORR      r0,r0,r1,LSL #4
        0x00001816:    f89d1005    ....    LDRB     r1,[sp,#5]
        0x0000181a:    ea401511    @...    ORR      r5,r0,r1,LSR #4
        0x0000181e:    f8bd0006    ....    LDRH     r0,[sp,#6]
        0x00001822:    4955        UI      LDR      r1,[pc,#340] ; [0x1978] = 0xffff0600
        0x00001824:    ba46        F.      REV16    r6,r0
        0x00001826:    6820         h      LDR      r0,[r4,#0]
        0x00001828:    eb010060    ..`.    ADD      r0,r1,r0,ASR #1
        0x0000182c:    1081        ..      ASRS     r1,r0,#2
        0x0000182e:    4349        IC      MULS     r1,r1,r1
        0x00001830:    12ca        ..      ASRS     r2,r1,#11
        0x00001832:    fb02f20c    ....    MUL      r2,r2,r12
        0x00001836:    f9b4c012    ....    LDRSH    r12,[r4,#0x12]
        0x0000183a:    1349        I.      ASRS     r1,r1,#13
        0x0000183c:    fb0cfc00    ....    MUL      r12,r12,r0
        0x00001840:    eb02024c    ..L.    ADD      r2,r2,r12,LSL #1
        0x00001844:    f8b4c010    ....    LDRH     r12,[r4,#0x10]
        0x00001848:    1092        ..      ASRS     r2,r2,#2
        0x0000184a:    eb02420c    ...B    ADD      r2,r2,r12,LSL #16
        0x0000184e:    f9b4c00e    ....    LDRSH    r12,[r4,#0xe]
        0x00001852:    fb01f10c    ....    MUL      r1,r1,r12
        0x00001856:    ea4f0ce1    O...    ASR      r12,r1,#3
        0x0000185a:    f9b4100c    ....    LDRSH    r1,[r4,#0xc]
        0x0000185e:    4341        AC      MULS     r1,r0,r1
        0x00001860:    eb0c0061    ..a.    ADD      r0,r12,r1,ASR #1
        0x00001864:    1480        ..      ASRS     r0,r0,#18
        0x00001866:    8961        a.      LDRH     r1,[r4,#0xa]
        0x00001868:    f5004000    ...@    ADD      r0,r0,#0x8000
        0x0000186c:    4341        AC      MULS     r1,r0,r1
        0x0000186e:    13c9        ..      ASRS     r1,r1,#15
        0x00001870:    d00d        ..      BEQ      0x188e ; BME280_Get_ALL + 198
        0x00001872:    f5c31080    ....    RSB      r0,r3,#0x100000
        0x00001876:    eba03022    .."0    SUB      r0,r0,r2,ASR #12
        0x0000187a:    f6404235    @.5B    MOV      r2,#0xc35
        0x0000187e:    4350        PC      MULS     r0,r2,r0
        0x00001880:    f1b04f00    ...O    CMP      r0,#0x80000000
        0x00001884:    d205        ..      BCS      0x1892 ; BME280_Get_ALL + 202
        0x00001886:    0040        @.      LSLS     r0,r0,#1
        0x00001888:    fbb0f0f1    ....    UDIV     r0,r0,r1
        0x0000188c:    e004        ..      B        0x1898 ; BME280_Get_ALL + 208
        0x0000188e:    2000        .       MOVS     r0,#0
        0x00001890:    e7ab        ..      B        0x17ea ; BME280_Get_ALL + 34
        0x00001892:    fbb0f0f1    ....    UDIV     r0,r0,r1
        0x00001896:    0040        @.      LSLS     r0,r0,#1
        0x00001898:    10c1        ..      ASRS     r1,r0,#3
        0x0000189a:    4349        IC      MULS     r1,r1,r1
        0x0000189c:    f9b4201a    ...     LDRSH    r2,[r4,#0x1a]
        0x000018a0:    1349        I.      ASRS     r1,r1,#13
        0x000018a2:    4351        QC      MULS     r1,r2,r1
        0x000018a4:    f9b43018    ...0    LDRSH    r3,[r4,#0x18]
        0x000018a8:    1082        ..      ASRS     r2,r0,#2
        0x000018aa:    435a        ZC      MULS     r2,r3,r2
        0x000018ac:    1309        ..      ASRS     r1,r1,#12
        0x000018ae:    f9b43016    ...0    LDRSH    r3,[r4,#0x16]
        0x000018b2:    eb013162    ..b1    ADD      r1,r1,r2,ASR #13
        0x000018b6:    4419        .D      ADD      r1,r1,r3
        0x000018b8:    eb001021    ..!.    ADD      r0,r0,r1,ASR #4
        0x000018bc:    f003ff62    ..b.    BL       __aeabi_i2f ; 0x5784
        0x000018c0:    6038        8`      STR      r0,[r7,#0]
        0x000018c2:    88a0        ..      LDRH     r0,[r4,#4]
        0x000018c4:    10e9        ..      ASRS     r1,r5,#3
        0x000018c6:    eba10140    ..@.    SUB      r1,r1,r0,LSL #1
        0x000018ca:    f9b42006    ...     LDRSH    r2,[r4,#6]
        0x000018ce:    ebc01025    ..%.    RSB      r0,r0,r5,ASR #4
        0x000018d2:    4351        QC      MULS     r1,r2,r1
        0x000018d4:    4340        @C      MULS     r0,r0,r0
        0x000018d6:    f9b42008    ...     LDRSH    r2,[r4,#8]
        0x000018da:    1300        ..      ASRS     r0,r0,#12
        0x000018dc:    12c9        ..      ASRS     r1,r1,#11
        0x000018de:    4350        PC      MULS     r0,r2,r0
        0x000018e0:    eb0130a0    ...0    ADD      r0,r1,r0,ASR #14
        0x000018e4:    6020         `      STR      r0,[r4,#0]
        0x000018e6:    eb000080    ....    ADD      r0,r0,r0,LSL #2
        0x000018ea:    3080        .0      ADDS     r0,r0,#0x80
        0x000018ec:    1200        ..      ASRS     r0,r0,#8
        0x000018ee:    f003ff49    ..I.    BL       __aeabi_i2f ; 0x5784
        0x000018f2:    4922        "I      LDR      r1,[pc,#136] ; [0x197c] = 0x3c23d70a
        0x000018f4:    f003ff72    ..r.    BL       __aeabi_fmul ; 0x57dc
        0x000018f8:    f8c80000    ....    STR      r0,[r8,#0]
        0x000018fc:    8be2        ..      LDRH     r2,[r4,#0x1e]
        0x000018fe:    03b1        ..      LSLS     r1,r6,#14
        0x00001900:    6820         h      LDR      r0,[r4,#0]
        0x00001902:    eba15102    ...Q    SUB      r1,r1,r2,LSL #20
        0x00001906:    f9b42020    ..      LDRSH    r2,[r4,#0x20]
        0x0000190a:    f5a03096    ...0    SUB      r0,r0,#0x12c00
        0x0000190e:    fb021110    ....    MLS      r1,r2,r0,r1
        0x00001912:    f9942024    ..$     LDRSB    r2,[r4,#0x24]
        0x00001916:    f8943023    ..#0    LDRB     r3,[r4,#0x23]
        0x0000191a:    4342        BC      MULS     r2,r0,r2
        0x0000191c:    4343        CC      MULS     r3,r0,r3
        0x0000191e:    f44f4000    O..@    MOV      r0,#0x8000
        0x00001922:    1292        ..      ASRS     r2,r2,#10
        0x00001924:    eb0020e3    ...     ADD      r0,r0,r3,ASR #11
        0x00001928:    4342        BC      MULS     r2,r0,r2
        0x0000192a:    f44f1000    O...    MOV      r0,#0x200000
        0x0000192e:    eb0020a2    ...     ADD      r0,r0,r2,ASR #10
        0x00001932:    f9b4201c    ...     LDRSH    r2,[r4,#0x1c]
        0x00001936:    f5014180    ...A    ADD      r1,r1,#0x4000
        0x0000193a:    4350        PC      MULS     r0,r2,r0
        0x0000193c:    f5005000    ...P    ADD      r0,r0,#0x2000
        0x00001940:    13c9        ..      ASRS     r1,r1,#15
        0x00001942:    1380        ..      ASRS     r0,r0,#14
        0x00001944:    4341        AC      MULS     r1,r0,r1
        0x00001946:    13c8        ..      ASRS     r0,r1,#15
        0x00001948:    4340        @C      MULS     r0,r0,r0
        0x0000194a:    f8942022    .."     LDRB     r2,[r4,#0x22]
        0x0000194e:    11c0        ..      ASRS     r0,r0,#7
        0x00001950:    4350        PC      MULS     r0,r2,r0
        0x00001952:    ebb11020    .. .    SUBS     r0,r1,r0,ASR #4
        0x00001956:    d500        ..      BPL      0x195a ; BME280_Get_ALL + 402
        0x00001958:    2000        .       MOVS     r0,#0
        0x0000195a:    f04f51c8    O..Q    MOV      r1,#0x19000000
        0x0000195e:    4288        .B      CMP      r0,r1
        0x00001960:    dd00        ..      BLE      0x1964 ; BME280_Get_ALL + 412
        0x00001962:    4608        .F      MOV      r0,r1
        0x00001964:    1300        ..      ASRS     r0,r0,#12
        0x00001966:    f003ff25    ..%.    BL       __aeabi_ui2f ; 0x57b4
        0x0000196a:    f06f0109    o...    MVN      r1,#9
        0x0000196e:    f004f8aa    ....    BL       __ARM_scalbnf ; 0x5ac6
        0x00001972:    f8c90000    ....    STR      r0,[r9,#0]
        0x00001976:    e78a        ..      B        0x188e ; BME280_Get_ALL + 198
    $d
        0x00001978:    ffff0600    ....    DCD    4294903296
        0x0000197c:    3c23d70a    ..#<    DCD    1008981770
    $t
    i.BME280_Get_DIG
    BME280_Get_DIG
        0x00001980:    b538        8.      PUSH     {r3-r5,lr}
        0x00001982:    4604        .F      MOV      r4,r0
        0x00001984:    2318        .#      MOVS     r3,#0x18
        0x00001986:    1d02        ..      ADDS     r2,r0,#4
        0x00001988:    2188        .!      MOVS     r1,#0x88
        0x0000198a:    f000f893    ....    BL       BME280_Read ; 0x1ab4
        0x0000198e:    bbc0        ..      CBNZ     r0,0x1a02 ; BME280_Get_DIG + 130
        0x00001990:    2301        .#      MOVS     r3,#1
        0x00001992:    f1040222    ..".    ADD      r2,r4,#0x22
        0x00001996:    21a1        .!      MOVS     r1,#0xa1
        0x00001998:    4620         F      MOV      r0,r4
        0x0000199a:    f000f88b    ....    BL       BME280_Read ; 0x1ab4
        0x0000199e:    bb80        ..      CBNZ     r0,0x1a02 ; BME280_Get_DIG + 130
        0x000019a0:    2302        .#      MOVS     r3,#2
        0x000019a2:    f104021c    ....    ADD      r2,r4,#0x1c
        0x000019a6:    21e1        .!      MOVS     r1,#0xe1
        0x000019a8:    4620         F      MOV      r0,r4
        0x000019aa:    f000f883    ....    BL       BME280_Read ; 0x1ab4
        0x000019ae:    bb40        @.      CBNZ     r0,0x1a02 ; BME280_Get_DIG + 130
        0x000019b0:    2301        .#      MOVS     r3,#1
        0x000019b2:    f1040223    ..#.    ADD      r2,r4,#0x23
        0x000019b6:    21e3        .!      MOVS     r1,#0xe3
        0x000019b8:    4620         F      MOV      r0,r4
        0x000019ba:    f000f87b    ..{.    BL       BME280_Read ; 0x1ab4
        0x000019be:    bb00        ..      CBNZ     r0,0x1a02 ; BME280_Get_DIG + 130
        0x000019c0:    2000        .       MOVS     r0,#0
        0x000019c2:    9000        ..      STR      r0,[sp,#0]
        0x000019c4:    2303        .#      MOVS     r3,#3
        0x000019c6:    466a        jF      MOV      r2,sp
        0x000019c8:    21e4        .!      MOVS     r1,#0xe4
        0x000019ca:    4620         F      MOV      r0,r4
        0x000019cc:    f000f872    ..r.    BL       BME280_Read ; 0x1ab4
        0x000019d0:    b9b8        ..      CBNZ     r0,0x1a02 ; BME280_Get_DIG + 130
        0x000019d2:    f89d1000    ....    LDRB     r1,[sp,#0]
        0x000019d6:    f89d0001    ....    LDRB     r0,[sp,#1]
        0x000019da:    2301        .#      MOVS     r3,#1
        0x000019dc:    f361101f    a...    BFI      r0,r1,#4,#28
        0x000019e0:    83e0        ..      STRH     r0,[r4,#0x1e]
        0x000019e2:    f89d0001    ....    LDRB     r0,[sp,#1]
        0x000019e6:    f89d1002    ....    LDRB     r1,[sp,#2]
        0x000019ea:    0900        ..      LSRS     r0,r0,#4
        0x000019ec:    ea402001    @..     ORR      r0,r0,r1,LSL #8
        0x000019f0:    8420         .      STRH     r0,[r4,#0x20]
        0x000019f2:    f1040224    ..$.    ADD      r2,r4,#0x24
        0x000019f6:    21e7        .!      MOVS     r1,#0xe7
        0x000019f8:    4620         F      MOV      r0,r4
        0x000019fa:    f000f85b    ..[.    BL       BME280_Read ; 0x1ab4
        0x000019fe:    2800        .(      CMP      r0,#0
        0x00001a00:    d000        ..      BEQ      0x1a04 ; BME280_Get_DIG + 132
        0x00001a02:    2001        .       MOVS     r0,#1
        0x00001a04:    bd38        8.      POP      {r3-r5,pc}
    i.BME280_ID
    BME280_ID
        0x00001a06:    b510        ..      PUSH     {r4,lr}
        0x00001a08:    460a        .F      MOV      r2,r1
        0x00001a0a:    2301        .#      MOVS     r3,#1
        0x00001a0c:    21d0        .!      MOVS     r1,#0xd0
        0x00001a0e:    f000f851    ..Q.    BL       BME280_Read ; 0x1ab4
        0x00001a12:    2800        .(      CMP      r0,#0
        0x00001a14:    d000        ..      BEQ      0x1a18 ; BME280_ID + 18
        0x00001a16:    2001        .       MOVS     r0,#1
        0x00001a18:    bd10        ..      POP      {r4,pc}
        0x00001a1a:    0000        ..      MOVS     r0,r0
    i.BME280_Init
    BME280_Init
        0x00001a1c:    b538        8.      PUSH     {r3-r5,lr}
        0x00001a1e:    481c        .H      LDR      r0,[pc,#112] ; [0x1a90] = 0x200052e4
        0x00001a20:    21ec        .!      MOVS     r1,#0xec
        0x00001a22:    2400        .$      MOVS     r4,#0
        0x00001a24:    f8001f26    ..&.    STRB     r1,[r0,#0x26]!
        0x00001a28:    2103        .!      MOVS     r1,#3
        0x00001a2a:    7041        Ap      STRB     r1,[r0,#1]
        0x00001a2c:    7084        .p      STRB     r4,[r0,#2]
        0x00001a2e:    70c4        .p      STRB     r4,[r0,#3]
        0x00001a30:    2105        .!      MOVS     r1,#5
        0x00001a32:    7141        Aq      STRB     r1,[r0,#5]
        0x00001a34:    7181        .q      STRB     r1,[r0,#6]
        0x00001a36:    7101        .q      STRB     r1,[r0,#4]
        0x00001a38:    f002fb38    ..8.    BL       swi2c_init2 ; 0x40ac
        0x00001a3c:    4814        .H      LDR      r0,[pc,#80] ; [0x1a90] = 0x200052e4
        0x00001a3e:    f000f8a7    ....    BL       BME280_Reset ; 0x1b90
        0x00001a42:    b108        ..      CBZ      r0,0x1a48 ; BME280_Init + 44
        0x00001a44:    21fa        .!      MOVS     r1,#0xfa
        0x00001a46:    e01b        ..      B        0x1a80 ; BME280_Init + 100
        0x00001a48:    f88d4000    ...@    STRB     r4,[sp,#0]
        0x00001a4c:    4669        iF      MOV      r1,sp
        0x00001a4e:    4810        .H      LDR      r0,[pc,#64] ; [0x1a90] = 0x200052e4
        0x00001a50:    f7ffffd9    ....    BL       BME280_ID ; 0x1a06
        0x00001a54:    b110        ..      CBZ      r0,0x1a5c ; BME280_Init + 64
        0x00001a56:    f44f7181    O..q    MOV      r1,#0x102
        0x00001a5a:    e011        ..      B        0x1a80 ; BME280_Init + 100
        0x00001a5c:    f89d1000    ....    LDRB     r1,[sp,#0]
        0x00001a60:    a00c        ..      ADR      r0,{pc}+0x34 ; 0x1a94
        0x00001a62:    f7fefc3f    ..?.    BL       __2printf ; 0x2e4
        0x00001a66:    480a        .H      LDR      r0,[pc,#40] ; [0x1a90] = 0x200052e4
        0x00001a68:    f7ffff8a    ....    BL       BME280_Get_DIG ; 0x1980
        0x00001a6c:    b110        ..      CBZ      r0,0x1a74 ; BME280_Init + 88
        0x00001a6e:    f44f7185    O..q    MOV      r1,#0x10a
        0x00001a72:    e005        ..      B        0x1a80 ; BME280_Init + 100
        0x00001a74:    4806        .H      LDR      r0,[pc,#24] ; [0x1a90] = 0x200052e4
        0x00001a76:    f7fffe64    ..d.    BL       BME280_Configuration ; 0x1742
        0x00001a7a:    b128        (.      CBZ      r0,0x1a88 ; BME280_Init + 108
        0x00001a7c:    f2401111    @...    MOV      r1,#0x111
        0x00001a80:    a008        ..      ADR      r0,{pc}+0x24 ; 0x1aa4
        0x00001a82:    f7fefc2f    ../.    BL       __2printf ; 0x2e4
        0x00001a86:    bd38        8.      POP      {r3-r5,pc}
        0x00001a88:    200a        .       MOVS     r0,#0xa
        0x00001a8a:    f001fa49    ..I.    BL       delay_ms ; 0x2f20
        0x00001a8e:    bd38        8.      POP      {r3-r5,pc}
    $d
        0x00001a90:    200052e4    .R.     DCD    536892132
        0x00001a94:    32454d42    BME2    DCD    843402562
        0x00001a98:    49203038    80 I    DCD    1226846264
        0x00001a9c:    78253a44    D:%x    DCD    2015705668
        0x00001aa0:    00000a0d    ....    DCD    2573
        0x00001aa4:    74696e69    init    DCD    1953066601
        0x00001aa8:    72726520     err    DCD    1920099616
        0x00001aac:    64256c40    @l%d    DCD    1680174144
        0x00001ab0:    00000a0d    ....    DCD    2573
    $t
    i.BME280_Read
    BME280_Read
        0x00001ab4:    e92d41f0    -..A    PUSH     {r4-r8,lr}
        0x00001ab8:    461e        .F      MOV      r6,r3
        0x00001aba:    4615        .F      MOV      r5,r2
        0x00001abc:    460f        .F      MOV      r7,r1
        0x00001abe:    4604        .F      MOV      r4,r0
        0x00001ac0:    f002fa72    ..r.    BL       start_i2c2 ; 0x3fa8
        0x00001ac4:    2800        .(      CMP      r0,#0
        0x00001ac6:    da05        ..      BGE      0x1ad4 ; BME280_Read + 32
        0x00001ac8:    f002fab0    ....    BL       stop_i2c2 ; 0x402c
        0x00001acc:    f46f6085    o..`    MVN      r0,#0x428
        0x00001ad0:    e8bd81f0    ....    POP      {r4-r8,pc}
        0x00001ad4:    f8940026    ..&.    LDRB     r0,[r4,#0x26]
        0x00001ad8:    f002fe58    ..X.    BL       write_i2c2 ; 0x478c
        0x00001adc:    2800        .(      CMP      r0,#0
        0x00001ade:    db10        ..      BLT      0x1b02 ; BME280_Read + 78
        0x00001ae0:    2801        .(      CMP      r0,#1
        0x00001ae2:    d00e        ..      BEQ      0x1b02 ; BME280_Read + 78
        0x00001ae4:    4638        8F      MOV      r0,r7
        0x00001ae6:    f002fe51    ..Q.    BL       write_i2c2 ; 0x478c
        0x00001aea:    2800        .(      CMP      r0,#0
        0x00001aec:    db0e        ..      BLT      0x1b0c ; BME280_Read + 88
        0x00001aee:    2801        .(      CMP      r0,#1
        0x00001af0:    d00c        ..      BEQ      0x1b0c ; BME280_Read + 88
        0x00001af2:    f002fa9b    ....    BL       stop_i2c2 ; 0x402c
        0x00001af6:    2800        .(      CMP      r0,#0
        0x00001af8:    da0d        ..      BGE      0x1b16 ; BME280_Read + 98
        0x00001afa:    f002fa97    ....    BL       stop_i2c2 ; 0x402c
        0x00001afe:    4823        #H      LDR      r0,[pc,#140] ; [0x1b8c] = 0xfffffbc2
        0x00001b00:    e7e6        ..      B        0x1ad0 ; BME280_Read + 28
        0x00001b02:    f002fa93    ....    BL       stop_i2c2 ; 0x402c
        0x00001b06:    4821        !H      LDR      r0,[pc,#132] ; [0x1b8c] = 0xfffffbc2
        0x00001b08:    300e        .0      ADDS     r0,r0,#0xe
        0x00001b0a:    e7e1        ..      B        0x1ad0 ; BME280_Read + 28
        0x00001b0c:    f002fa8e    ....    BL       stop_i2c2 ; 0x402c
        0x00001b10:    481e        .H      LDR      r0,[pc,#120] ; [0x1b8c] = 0xfffffbc2
        0x00001b12:    1dc0        ..      ADDS     r0,r0,#7
        0x00001b14:    e7dc        ..      B        0x1ad0 ; BME280_Read + 28
        0x00001b16:    f002fa47    ..G.    BL       start_i2c2 ; 0x3fa8
        0x00001b1a:    2800        .(      CMP      r0,#0
        0x00001b1c:    da04        ..      BGE      0x1b28 ; BME280_Read + 116
        0x00001b1e:    f002fa85    ....    BL       stop_i2c2 ; 0x402c
        0x00001b22:    481a        .H      LDR      r0,[pc,#104] ; [0x1b8c] = 0xfffffbc2
        0x00001b24:    1fc0        ..      SUBS     r0,r0,#7
        0x00001b26:    e7d3        ..      B        0x1ad0 ; BME280_Read + 28
        0x00001b28:    f8940026    ..&.    LDRB     r0,[r4,#0x26]
        0x00001b2c:    f0400001    @...    ORR      r0,r0,#1
        0x00001b30:    f002fe2c    ..,.    BL       write_i2c2 ; 0x478c
        0x00001b34:    2800        .(      CMP      r0,#0
        0x00001b36:    db04        ..      BLT      0x1b42 ; BME280_Read + 142
        0x00001b38:    2801        .(      CMP      r0,#1
        0x00001b3a:    d002        ..      BEQ      0x1b42 ; BME280_Read + 142
        0x00001b3c:    2400        .$      MOVS     r4,#0
        0x00001b3e:    1e77        w.      SUBS     r7,r6,#1
        0x00001b40:    e01d        ..      B        0x1b7e ; BME280_Read + 202
        0x00001b42:    f002fa73    ..s.    BL       stop_i2c2 ; 0x402c
        0x00001b46:    4811        .H      LDR      r0,[pc,#68] ; [0x1b8c] = 0xfffffbc2
        0x00001b48:    380e        .8      SUBS     r0,r0,#0xe
        0x00001b4a:    e7c1        ..      B        0x1ad0 ; BME280_Read + 28
        0x00001b4c:    42bc        .B      CMP      r4,r7
        0x00001b4e:    d109        ..      BNE      0x1b64 ; BME280_Read + 176
        0x00001b50:    2001        .       MOVS     r0,#1
        0x00001b52:    f002f979    ..y.    BL       read_i2c2 ; 0x3e48
        0x00001b56:    2800        .(      CMP      r0,#0
        0x00001b58:    da0e        ..      BGE      0x1b78 ; BME280_Read + 196
        0x00001b5a:    f002fa67    ..g.    BL       stop_i2c2 ; 0x402c
        0x00001b5e:    480b        .H      LDR      r0,[pc,#44] ; [0x1b8c] = 0xfffffbc2
        0x00001b60:    3819        .8      SUBS     r0,r0,#0x19
        0x00001b62:    e7b5        ..      B        0x1ad0 ; BME280_Read + 28
        0x00001b64:    2000        .       MOVS     r0,#0
        0x00001b66:    f002f96f    ..o.    BL       read_i2c2 ; 0x3e48
        0x00001b6a:    2800        .(      CMP      r0,#0
        0x00001b6c:    da04        ..      BGE      0x1b78 ; BME280_Read + 196
        0x00001b6e:    f002fa5d    ..].    BL       stop_i2c2 ; 0x402c
        0x00001b72:    f46f608c    o..`    MVN      r0,#0x460
        0x00001b76:    e7ab        ..      B        0x1ad0 ; BME280_Read + 28
        0x00001b78:    5528        (U      STRB     r0,[r5,r4]
        0x00001b7a:    1c64        d.      ADDS     r4,r4,#1
        0x00001b7c:    b2a4        ..      UXTH     r4,r4
        0x00001b7e:    42b4        .B      CMP      r4,r6
        0x00001b80:    d3e4        ..      BCC      0x1b4c ; BME280_Read + 152
        0x00001b82:    f002fa53    ..S.    BL       stop_i2c2 ; 0x402c
        0x00001b86:    2000        .       MOVS     r0,#0
        0x00001b88:    e7a2        ..      B        0x1ad0 ; BME280_Read + 28
    $d
        0x00001b8a:    0000        ..      DCW    0
        0x00001b8c:    fffffbc2    ....    DCD    4294966210
    $t
    i.BME280_Reset
    BME280_Reset
        0x00001b90:    b510        ..      PUSH     {r4,lr}
        0x00001b92:    22b6        ."      MOVS     r2,#0xb6
        0x00001b94:    21e0        .!      MOVS     r1,#0xe0
        0x00001b96:    f000f805    ....    BL       BME280_Write ; 0x1ba4
        0x00001b9a:    2800        .(      CMP      r0,#0
        0x00001b9c:    d000        ..      BEQ      0x1ba0 ; BME280_Reset + 16
        0x00001b9e:    2001        .       MOVS     r0,#1
        0x00001ba0:    bd10        ..      POP      {r4,pc}
        0x00001ba2:    0000        ..      MOVS     r0,r0
    i.BME280_Write
    BME280_Write
        0x00001ba4:    b570        p.      PUSH     {r4-r6,lr}
        0x00001ba6:    4614        .F      MOV      r4,r2
        0x00001ba8:    460d        .F      MOV      r5,r1
        0x00001baa:    4606        .F      MOV      r6,r0
        0x00001bac:    f002f9fc    ....    BL       start_i2c2 ; 0x3fa8
        0x00001bb0:    2800        .(      CMP      r0,#0
        0x00001bb2:    da04        ..      BGE      0x1bbe ; BME280_Write + 26
        0x00001bb4:    f002fa3a    ..:.    BL       stop_i2c2 ; 0x402c
        0x00001bb8:    f46f707f    o..p    MVN      r0,#0x3fc
        0x00001bbc:    bd70        p.      POP      {r4-r6,pc}
        0x00001bbe:    f8960026    ..&.    LDRB     r0,[r6,#0x26]
        0x00001bc2:    f002fde3    ....    BL       write_i2c2 ; 0x478c
        0x00001bc6:    2800        .(      CMP      r0,#0
        0x00001bc8:    db13        ..      BLT      0x1bf2 ; BME280_Write + 78
        0x00001bca:    2801        .(      CMP      r0,#1
        0x00001bcc:    d011        ..      BEQ      0x1bf2 ; BME280_Write + 78
        0x00001bce:    4628        (F      MOV      r0,r5
        0x00001bd0:    f002fddc    ....    BL       write_i2c2 ; 0x478c
        0x00001bd4:    2800        .(      CMP      r0,#0
        0x00001bd6:    db10        ..      BLT      0x1bfa ; BME280_Write + 86
        0x00001bd8:    2801        .(      CMP      r0,#1
        0x00001bda:    d00e        ..      BEQ      0x1bfa ; BME280_Write + 86
        0x00001bdc:    4620         F      MOV      r0,r4
        0x00001bde:    f002fdd5    ....    BL       write_i2c2 ; 0x478c
        0x00001be2:    2800        .(      CMP      r0,#0
        0x00001be4:    db0e        ..      BLT      0x1c04 ; BME280_Write + 96
        0x00001be6:    2801        .(      CMP      r0,#1
        0x00001be8:    d00c        ..      BEQ      0x1c04 ; BME280_Write + 96
        0x00001bea:    f002fa1f    ....    BL       stop_i2c2 ; 0x402c
        0x00001bee:    2000        .       MOVS     r0,#0
        0x00001bf0:    bd70        p.      POP      {r4-r6,pc}
        0x00001bf2:    f002fa1b    ....    BL       stop_i2c2 ; 0x402c
        0x00001bf6:    4806        .H      LDR      r0,[pc,#24] ; [0x1c10] = 0xfffffbfc
        0x00001bf8:    bd70        p.      POP      {r4-r6,pc}
        0x00001bfa:    f002fa17    ....    BL       stop_i2c2 ; 0x402c
        0x00001bfe:    4804        .H      LDR      r0,[pc,#16] ; [0x1c10] = 0xfffffbfc
        0x00001c00:    1fc0        ..      SUBS     r0,r0,#7
        0x00001c02:    bd70        p.      POP      {r4-r6,pc}
        0x00001c04:    f002fa12    ....    BL       stop_i2c2 ; 0x402c
        0x00001c08:    4801        .H      LDR      r0,[pc,#4] ; [0x1c10] = 0xfffffbfc
        0x00001c0a:    380e        .8      SUBS     r0,r0,#0xe
        0x00001c0c:    bd70        p.      POP      {r4-r6,pc}
    $d
        0x00001c0e:    0000        ..      DCW    0
        0x00001c10:    fffffbfc    ....    DCD    4294966268
    $t
    i.Bit_Modification
    Bit_Modification
        0x00001c14:    b5f0        ..      PUSH     {r4-r7,lr}
        0x00001c16:    25ff        .%      MOVS     r5,#0xff
        0x00001c18:    2601        .&      MOVS     r6,#1
        0x00001c1a:    460c        .F      MOV      r4,r1
        0x00001c1c:    1c52        R.      ADDS     r2,r2,#1
        0x00001c1e:    e004        ..      B        0x1c2a ; Bit_Modification + 22
        0x00001c20:    fa06f704    ....    LSL      r7,r6,r4
        0x00001c24:    43bd        .C      BICS     r5,r5,r7
        0x00001c26:    1c64        d.      ADDS     r4,r4,#1
        0x00001c28:    b2e4        ..      UXTB     r4,r4
        0x00001c2a:    4294        .B      CMP      r4,r2
        0x00001c2c:    d3f8        ..      BCC      0x1c20 ; Bit_Modification + 12
        0x00001c2e:    4028        (@      ANDS     r0,r0,r5
        0x00001c30:    408b        .@      LSLS     r3,r3,r1
        0x00001c32:    4303        .C      ORRS     r3,r3,r0
        0x00001c34:    b2d8        ..      UXTB     r0,r3
        0x00001c36:    bdf0        ..      POP      {r4-r7,pc}
    i.DELAY_TICK
    DELAY_TICK
        0x00001c38:    2103        .!      MOVS     r1,#3
        0x00001c3a:    fbb0f0f1    ....    UDIV     r0,r0,r1
        0x00001c3e:    2808        .(      CMP      r0,#8
        0x00001c40:    d902        ..      BLS      0x1c48 ; DELAY_TICK + 16
        0x00001c42:    3808        .8      SUBS     r0,r0,#8
        0x00001c44:    f7febb2c    ..,.    B        SysCtlDelay ; 0x2a0
        0x00001c48:    4770        pG      BX       lr
        0x00001c4a:    0000        ..      MOVS     r0,r0
    i.GPIO_DeInit
    GPIO_DeInit
        0x00001c4c:    4903        .I      LDR      r1,[pc,#12] ; [0x1c5c] = 0x40010000
        0x00001c4e:    4288        .B      CMP      r0,r1
        0x00001c50:    d102        ..      BNE      0x1c58 ; GPIO_DeInit + 12
        0x00001c52:    f04f31ff    O..1    MOV      r1,#0xffffffff
        0x00001c56:    61c1        .a      STR      r1,[r0,#0x1c]
        0x00001c58:    4770        pG      BX       lr
    $d
        0x00001c5a:    0000        ..      DCW    0
        0x00001c5c:    40010000    ...@    DCD    1073807360
    $t
    i.GPIO_PinRemapConfig
    GPIO_PinRemapConfig
        0x00001c60:    b10a        ..      CBZ      r2,0x1c66 ; GPIO_PinRemapConfig + 6
        0x00001c62:    6181        .a      STR      r1,[r0,#0x18]
        0x00001c64:    4770        pG      BX       lr
        0x00001c66:    61c1        .a      STR      r1,[r0,#0x1c]
        0x00001c68:    4770        pG      BX       lr
    i.GPIO_ReadInputData
    GPIO_ReadInputData
        0x00001c6a:    4603        .F      MOV      r3,r0
        0x00001c6c:    2000        .       MOVS     r0,#0
        0x00001c6e:    2201        ."      MOVS     r2,#1
        0x00001c70:    408a        .@      LSLS     r2,r2,r1
        0x00001c72:    615a        Za      STR      r2,[r3,#0x14]
        0x00001c74:    6819        .h      LDR      r1,[r3,#0]
        0x00001c76:    420a        .B      TST      r2,r1
        0x00001c78:    d000        ..      BEQ      0x1c7c ; GPIO_ReadInputData + 18
        0x00001c7a:    2001        .       MOVS     r0,#1
        0x00001c7c:    4770        pG      BX       lr
        0x00001c7e:    0000        ..      MOVS     r0,r0
    i.GPIO_ResetBit
    GPIO_ResetBit
        0x00001c80:    b510        ..      PUSH     {r4,lr}
        0x00001c82:    2201        ."      MOVS     r2,#1
        0x00001c84:    408a        .@      LSLS     r2,r2,r1
        0x00001c86:    6102        .a      STR      r2,[r0,#0x10]
        0x00001c88:    61c2        .a      STR      r2,[r0,#0x1c]
        0x00001c8a:    6242        Bb      STR      r2,[r0,#0x24]
        0x00001c8c:    4b16        .K      LDR      r3,[pc,#88] ; [0x1ce8] = 0x40010000
        0x00001c8e:    4298        .B      CMP      r0,r3
        0x00001c90:    d10c        ..      BNE      0x1cac ; GPIO_ResetBit + 44
        0x00001c92:    f0010407    ....    AND      r4,r1,#7
        0x00001c96:    2301        .#      MOVS     r3,#1
        0x00001c98:    40a3        .@      LSLS     r3,r3,r4
        0x00001c9a:    eb000083    ....    ADD      r0,r0,r3,LSL #2
        0x00001c9e:    2907        .)      CMP      r1,#7
        0x00001ca0:    d805        ..      BHI      0x1cae ; GPIO_ResetBit + 46
        0x00001ca2:    f8d01400    ....    LDR      r1,[r0,#0x400]
        0x00001ca6:    4391        .C      BICS     r1,r1,r2
        0x00001ca8:    f8c01400    ....    STR      r1,[r0,#0x400]
        0x00001cac:    bd10        ..      POP      {r4,pc}
        0x00001cae:    f1a10308    ....    SUB      r3,r1,#8
        0x00001cb2:    2b07        .+      CMP      r3,#7
        0x00001cb4:    d805        ..      BHI      0x1cc2 ; GPIO_ResetBit + 66
        0x00001cb6:    f8d01800    ....    LDR      r1,[r0,#0x800]
        0x00001cba:    4391        .C      BICS     r1,r1,r2
        0x00001cbc:    f8c01800    ....    STR      r1,[r0,#0x800]
        0x00001cc0:    bd10        ..      POP      {r4,pc}
        0x00001cc2:    f1a10310    ....    SUB      r3,r1,#0x10
        0x00001cc6:    2b07        .+      CMP      r3,#7
        0x00001cc8:    d805        ..      BHI      0x1cd6 ; GPIO_ResetBit + 86
        0x00001cca:    f8d01c00    ....    LDR      r1,[r0,#0xc00]
        0x00001cce:    4391        .C      BICS     r1,r1,r2
        0x00001cd0:    f8c01c00    ....    STR      r1,[r0,#0xc00]
        0x00001cd4:    bd10        ..      POP      {r4,pc}
        0x00001cd6:    3918        .9      SUBS     r1,r1,#0x18
        0x00001cd8:    2907        .)      CMP      r1,#7
        0x00001cda:    d8fb        ..      BHI      0x1cd4 ; GPIO_ResetBit + 84
        0x00001cdc:    f5005080    ...P    ADD      r0,r0,#0x1000
        0x00001ce0:    6801        .h      LDR      r1,[r0,#0]
        0x00001ce2:    4391        .C      BICS     r1,r1,r2
        0x00001ce4:    6001        .`      STR      r1,[r0,#0]
        0x00001ce6:    bd10        ..      POP      {r4,pc}
    $d
        0x00001ce8:    40010000    ...@    DCD    1073807360
    $t
    i.GPIO_SetBit
    GPIO_SetBit
        0x00001cec:    b510        ..      PUSH     {r4,lr}
        0x00001cee:    2201        ."      MOVS     r2,#1
        0x00001cf0:    408a        .@      LSLS     r2,r2,r1
        0x00001cf2:    6102        .a      STR      r2,[r0,#0x10]
        0x00001cf4:    61c2        .a      STR      r2,[r0,#0x1c]
        0x00001cf6:    6242        Bb      STR      r2,[r0,#0x24]
        0x00001cf8:    4b16        .K      LDR      r3,[pc,#88] ; [0x1d54] = 0x40010000
        0x00001cfa:    4298        .B      CMP      r0,r3
        0x00001cfc:    d10c        ..      BNE      0x1d18 ; GPIO_SetBit + 44
        0x00001cfe:    f0010407    ....    AND      r4,r1,#7
        0x00001d02:    2301        .#      MOVS     r3,#1
        0x00001d04:    40a3        .@      LSLS     r3,r3,r4
        0x00001d06:    eb000083    ....    ADD      r0,r0,r3,LSL #2
        0x00001d0a:    2907        .)      CMP      r1,#7
        0x00001d0c:    d805        ..      BHI      0x1d1a ; GPIO_SetBit + 46
        0x00001d0e:    f8d01400    ....    LDR      r1,[r0,#0x400]
        0x00001d12:    4311        .C      ORRS     r1,r1,r2
        0x00001d14:    f8c01400    ....    STR      r1,[r0,#0x400]
        0x00001d18:    bd10        ..      POP      {r4,pc}
        0x00001d1a:    f1a10308    ....    SUB      r3,r1,#8
        0x00001d1e:    2b07        .+      CMP      r3,#7
        0x00001d20:    d805        ..      BHI      0x1d2e ; GPIO_SetBit + 66
        0x00001d22:    f8d01800    ....    LDR      r1,[r0,#0x800]
        0x00001d26:    4311        .C      ORRS     r1,r1,r2
        0x00001d28:    f8c01800    ....    STR      r1,[r0,#0x800]
        0x00001d2c:    bd10        ..      POP      {r4,pc}
        0x00001d2e:    f1a10310    ....    SUB      r3,r1,#0x10
        0x00001d32:    2b07        .+      CMP      r3,#7
        0x00001d34:    d805        ..      BHI      0x1d42 ; GPIO_SetBit + 86
        0x00001d36:    f8d01c00    ....    LDR      r1,[r0,#0xc00]
        0x00001d3a:    4311        .C      ORRS     r1,r1,r2
        0x00001d3c:    f8c01c00    ....    STR      r1,[r0,#0xc00]
        0x00001d40:    bd10        ..      POP      {r4,pc}
        0x00001d42:    3918        .9      SUBS     r1,r1,#0x18
        0x00001d44:    2907        .)      CMP      r1,#7
        0x00001d46:    d8fb        ..      BHI      0x1d40 ; GPIO_SetBit + 84
        0x00001d48:    f5005080    ...P    ADD      r0,r0,#0x1000
        0x00001d4c:    6801        .h      LDR      r1,[r0,#0]
        0x00001d4e:    4311        .C      ORRS     r1,r1,r2
        0x00001d50:    6001        .`      STR      r1,[r0,#0]
        0x00001d52:    bd10        ..      POP      {r4,pc}
    $d
        0x00001d54:    40010000    ...@    DCD    1073807360
    $t
    i.GT911_Scan
    GT911_Scan
        0x00001d58:    e92d41f0    -..A    PUSH     {r4-r8,lr}
        0x00001d5c:    4605        .F      MOV      r5,r0
        0x00001d5e:    f1000228    ..(.    ADD      r2,r0,#0x28
        0x00001d62:    f248174e    H.N.    MOV      r7,#0x814e
        0x00001d66:    2101        .!      MOVS     r1,#1
        0x00001d68:    4638        8F      MOV      r0,r7
        0x00001d6a:    f000f89d    ....    BL       GT9XX_ReadData ; 0x1ea8
        0x00001d6e:    2100        .!      MOVS     r1,#0
        0x00001d70:    f8851029    ..).    STRB     r1,[r5,#0x29]
        0x00001d74:    2800        .(      CMP      r0,#0
        0x00001d76:    da02        ..      BGE      0x1d7e ; GT911_Scan + 38
        0x00001d78:    4815        .H      LDR      r0,[pc,#84] ; [0x1dd0] = 0xfffffb42
        0x00001d7a:    e8bd81f0    ....    POP      {r4-r8,pc}
        0x00001d7e:    f8950028    ..(.    LDRB     r0,[r5,#0x28]
        0x00001d82:    0601        ..      LSLS     r1,r0,#24
        0x00001d84:    d507        ..      BPL      0x1d96 ; GT911_Scan + 62
        0x00001d86:    f000000f    ....    AND      r0,r0,#0xf
        0x00001d8a:    f8850029    ..).    STRB     r0,[r5,#0x29]
        0x00001d8e:    2400        .$      MOVS     r4,#0
        0x00001d90:    f248164f    H.O.    MOV      r6,#0x814f
        0x00001d94:    e012        ..      B        0x1dbc ; GT911_Scan + 100
        0x00001d96:    480e        .H      LDR      r0,[pc,#56] ; [0x1dd0] = 0xfffffb42
        0x00001d98:    380f        .8      SUBS     r0,r0,#0xf
        0x00001d9a:    e7ee        ..      B        0x1d7a ; GT911_Scan + 34
        0x00001d9c:    eb0502c4    ....    ADD      r2,r5,r4,LSL #3
        0x00001da0:    eb0600c4    ....    ADD      r0,r6,r4,LSL #3
        0x00001da4:    b280        ..      UXTH     r0,r0
        0x00001da6:    2107        .!      MOVS     r1,#7
        0x00001da8:    1c52        R.      ADDS     r2,r2,#1
        0x00001daa:    f000f87d    ..}.    BL       GT9XX_ReadData ; 0x1ea8
        0x00001dae:    2800        .(      CMP      r0,#0
        0x00001db0:    da02        ..      BGE      0x1db8 ; GT911_Scan + 96
        0x00001db2:    4807        .H      LDR      r0,[pc,#28] ; [0x1dd0] = 0xfffffb42
        0x00001db4:    381a        .8      SUBS     r0,r0,#0x1a
        0x00001db6:    e7e0        ..      B        0x1d7a ; GT911_Scan + 34
        0x00001db8:    1c64        d.      ADDS     r4,r4,#1
        0x00001dba:    b2a4        ..      UXTH     r4,r4
        0x00001dbc:    f8950029    ..).    LDRB     r0,[r5,#0x29]
        0x00001dc0:    42a0        .B      CMP      r0,r4
        0x00001dc2:    d8eb        ..      BHI      0x1d9c ; GT911_Scan + 68
        0x00001dc4:    2100        .!      MOVS     r1,#0
        0x00001dc6:    4638        8F      MOV      r0,r7
        0x00001dc8:    f000f8e2    ....    BL       GT9XX_WriteData ; 0x1f90
        0x00001dcc:    2000        .       MOVS     r0,#0
        0x00001dce:    e7d4        ..      B        0x1d7a ; GT911_Scan + 34
    $d
        0x00001dd0:    fffffb42    B...    DCD    4294966082
    $t
    i.GT911_init
    GT911_init
        0x00001dd4:    b51c        ..      PUSH     {r2-r4,lr}
        0x00001dd6:    4c1f        .L      LDR      r4,[pc,#124] ; [0x1e54] = 0x40010000
        0x00001dd8:    2112        .!      MOVS     r1,#0x12
        0x00001dda:    4620         F      MOV      r0,r4
        0x00001ddc:    f7ffff50    ..P.    BL       GPIO_ResetBit ; 0x1c80
        0x00001de0:    2113        .!      MOVS     r1,#0x13
        0x00001de2:    4620         F      MOV      r0,r4
        0x00001de4:    f7ffff4c    ..L.    BL       GPIO_ResetBit ; 0x1c80
        0x00001de8:    200a        .       MOVS     r0,#0xa
        0x00001dea:    f001f899    ....    BL       delay_ms ; 0x2f20
        0x00001dee:    f002f93b    ..;.    BL       swi2c_init ; 0x4068
        0x00001df2:    2112        .!      MOVS     r1,#0x12
        0x00001df4:    4620         F      MOV      r0,r4
        0x00001df6:    f7ffff79    ..y.    BL       GPIO_SetBit ; 0x1cec
        0x00001dfa:    200a        .       MOVS     r0,#0xa
        0x00001dfc:    f001f890    ....    BL       delay_ms ; 0x2f20
        0x00001e00:    00e1        ..      LSLS     r1,r4,#3
        0x00001e02:    6161        aa      STR      r1,[r4,#0x14]
        0x00001e04:    aa01        ..      ADD      r2,sp,#4
        0x00001e06:    2104        .!      MOVS     r1,#4
        0x00001e08:    f2481040    H.@.    MOV      r0,#0x8140
        0x00001e0c:    f000f84c    ..L.    BL       GT9XX_ReadData ; 0x1ea8
        0x00001e10:    2800        .(      CMP      r0,#0
        0x00001e12:    db1d        ..      BLT      0x1e50 ; GT911_init + 124
        0x00001e14:    a901        ..      ADD      r1,sp,#4
        0x00001e16:    a010        ..      ADR      r0,{pc}+0x42 ; 0x1e58
        0x00001e18:    f7fefa64    ..d.    BL       __2printf ; 0x2e4
        0x00001e1c:    466a        jF      MOV      r2,sp
        0x00001e1e:    2102        .!      MOVS     r1,#2
        0x00001e20:    f2481046    H.F.    MOV      r0,#0x8146
        0x00001e24:    f000f840    ..@.    BL       GT9XX_ReadData ; 0x1ea8
        0x00001e28:    2800        .(      CMP      r0,#0
        0x00001e2a:    db11        ..      BLT      0x1e50 ; GT911_init + 124
        0x00001e2c:    f8bd1000    ....    LDRH     r1,[sp,#0]
        0x00001e30:    a00d        ..      ADR      r0,{pc}+0x38 ; 0x1e68
        0x00001e32:    f7fefa57    ..W.    BL       __2printf ; 0x2e4
        0x00001e36:    466a        jF      MOV      r2,sp
        0x00001e38:    2102        .!      MOVS     r1,#2
        0x00001e3a:    f2481048    H.H.    MOV      r0,#0x8148
        0x00001e3e:    f000f833    ..3.    BL       GT9XX_ReadData ; 0x1ea8
        0x00001e42:    2800        .(      CMP      r0,#0
        0x00001e44:    db04        ..      BLT      0x1e50 ; GT911_init + 124
        0x00001e46:    f8bd1000    ....    LDRH     r1,[sp,#0]
        0x00001e4a:    a00f        ..      ADR      r0,{pc}+0x3e ; 0x1e88
        0x00001e4c:    f7fefa4a    ..J.    BL       __2printf ; 0x2e4
        0x00001e50:    bd1c        ..      POP      {r2-r4,pc}
    $d
        0x00001e52:    0000        ..      DCW    0
        0x00001e54:    40010000    ...@    DCD    1073807360
        0x00001e58:    63756f54    Touc    DCD    1668640596
        0x00001e5c:    44492068    h ID    DCD    1145643112
        0x00001e60:    7325203a    : %s    DCD    1931812922
        0x00001e64:    00000a0d    ....    DCD    2573
        0x00001e68:    6f632078    x co    DCD    1868767352
        0x00001e6c:    6964726f    ordi    DCD    1768190575
        0x00001e70:    6574616e    nate    DCD    1702125934
        0x00001e74:    73657220     res    DCD    1936028192
        0x00001e78:    74756c6f    olut    DCD    1953852527
        0x00001e7c:    3a6e6f69    ion:    DCD    980316009
        0x00001e80:    0d642520     %d.    DCD    224666912
        0x00001e84:    0000000a    ....    DCD    10
        0x00001e88:    6f632079    y co    DCD    1868767353
        0x00001e8c:    6964726f    ordi    DCD    1768190575
        0x00001e90:    6574616e    nate    DCD    1702125934
        0x00001e94:    73657220     res    DCD    1936028192
        0x00001e98:    74756c6f    olut    DCD    1953852527
        0x00001e9c:    3a6e6f69    ion:    DCD    980316009
        0x00001ea0:    0d642520     %d.    DCD    224666912
        0x00001ea4:    0000000a    ....    DCD    10
    $t
    i.GT9XX_ReadData
    GT9XX_ReadData
        0x00001ea8:    e92d41f0    -..A    PUSH     {r4-r8,lr}
        0x00001eac:    4615        .F      MOV      r5,r2
        0x00001eae:    460e        .F      MOV      r6,r1
        0x00001eb0:    4604        .F      MOV      r4,r0
        0x00001eb2:    f002f855    ..U.    BL       start_i2c ; 0x3f60
        0x00001eb6:    2800        .(      CMP      r0,#0
        0x00001eb8:    da04        ..      BGE      0x1ec4 ; GT9XX_ReadData + 28
        0x00001eba:    f002f899    ....    BL       stop_i2c ; 0x3ff0
        0x00001ebe:    4833        3H      LDR      r0,[pc,#204] ; [0x1f8c] = 0xfffffbd1
        0x00001ec0:    e8bd81f0    ....    POP      {r4-r8,pc}
        0x00001ec4:    20ba        .       MOVS     r0,#0xba
        0x00001ec6:    f002fc1f    ....    BL       write_i2c ; 0x4708
        0x00001eca:    2800        .(      CMP      r0,#0
        0x00001ecc:    db18        ..      BLT      0x1f00 ; GT9XX_ReadData + 88
        0x00001ece:    2801        .(      CMP      r0,#1
        0x00001ed0:    d016        ..      BEQ      0x1f00 ; GT9XX_ReadData + 88
        0x00001ed2:    0a20         .      LSRS     r0,r4,#8
        0x00001ed4:    f002fc18    ....    BL       write_i2c ; 0x4708
        0x00001ed8:    2800        .(      CMP      r0,#0
        0x00001eda:    db16        ..      BLT      0x1f0a ; GT9XX_ReadData + 98
        0x00001edc:    2801        .(      CMP      r0,#1
        0x00001ede:    d014        ..      BEQ      0x1f0a ; GT9XX_ReadData + 98
        0x00001ee0:    b2e0        ..      UXTB     r0,r4
        0x00001ee2:    f002fc11    ....    BL       write_i2c ; 0x4708
        0x00001ee6:    2800        .(      CMP      r0,#0
        0x00001ee8:    db14        ..      BLT      0x1f14 ; GT9XX_ReadData + 108
        0x00001eea:    2801        .(      CMP      r0,#1
        0x00001eec:    d012        ..      BEQ      0x1f14 ; GT9XX_ReadData + 108
        0x00001eee:    f002f87f    ....    BL       stop_i2c ; 0x3ff0
        0x00001ef2:    2800        .(      CMP      r0,#0
        0x00001ef4:    da13        ..      BGE      0x1f1e ; GT9XX_ReadData + 118
        0x00001ef6:    f002f87b    ..{.    BL       stop_i2c ; 0x3ff0
        0x00001efa:    4824        $H      LDR      r0,[pc,#144] ; [0x1f8c] = 0xfffffbd1
        0x00001efc:    381c        .8      SUBS     r0,r0,#0x1c
        0x00001efe:    e7df        ..      B        0x1ec0 ; GT9XX_ReadData + 24
        0x00001f00:    f002f876    ..v.    BL       stop_i2c ; 0x3ff0
        0x00001f04:    4821        !H      LDR      r0,[pc,#132] ; [0x1f8c] = 0xfffffbd1
        0x00001f06:    1fc0        ..      SUBS     r0,r0,#7
        0x00001f08:    e7da        ..      B        0x1ec0 ; GT9XX_ReadData + 24
        0x00001f0a:    f002f871    ..q.    BL       stop_i2c ; 0x3ff0
        0x00001f0e:    481f        .H      LDR      r0,[pc,#124] ; [0x1f8c] = 0xfffffbd1
        0x00001f10:    380e        .8      SUBS     r0,r0,#0xe
        0x00001f12:    e7d5        ..      B        0x1ec0 ; GT9XX_ReadData + 24
        0x00001f14:    f002f86c    ..l.    BL       stop_i2c ; 0x3ff0
        0x00001f18:    481c        .H      LDR      r0,[pc,#112] ; [0x1f8c] = 0xfffffbd1
        0x00001f1a:    3815        .8      SUBS     r0,r0,#0x15
        0x00001f1c:    e7d0        ..      B        0x1ec0 ; GT9XX_ReadData + 24
        0x00001f1e:    f002f81f    ....    BL       start_i2c ; 0x3f60
        0x00001f22:    2800        .(      CMP      r0,#0
        0x00001f24:    da04        ..      BGE      0x1f30 ; GT9XX_ReadData + 136
        0x00001f26:    f002f863    ..c.    BL       stop_i2c ; 0x3ff0
        0x00001f2a:    4818        .H      LDR      r0,[pc,#96] ; [0x1f8c] = 0xfffffbd1
        0x00001f2c:    3823        #8      SUBS     r0,r0,#0x23
        0x00001f2e:    e7c7        ..      B        0x1ec0 ; GT9XX_ReadData + 24
        0x00001f30:    20bb        .       MOVS     r0,#0xbb
        0x00001f32:    f002fbe9    ....    BL       write_i2c ; 0x4708
        0x00001f36:    2800        .(      CMP      r0,#0
        0x00001f38:    db04        ..      BLT      0x1f44 ; GT9XX_ReadData + 156
        0x00001f3a:    2801        .(      CMP      r0,#1
        0x00001f3c:    d002        ..      BEQ      0x1f44 ; GT9XX_ReadData + 156
        0x00001f3e:    2400        .$      MOVS     r4,#0
        0x00001f40:    1e77        w.      SUBS     r7,r6,#1
        0x00001f42:    e01d        ..      B        0x1f80 ; GT9XX_ReadData + 216
        0x00001f44:    f002f854    ..T.    BL       stop_i2c ; 0x3ff0
        0x00001f48:    f46f608b    o..`    MVN      r0,#0x458
        0x00001f4c:    e7b8        ..      B        0x1ec0 ; GT9XX_ReadData + 24
        0x00001f4e:    42bc        .B      CMP      r4,r7
        0x00001f50:    d109        ..      BNE      0x1f66 ; GT9XX_ReadData + 190
        0x00001f52:    2001        .       MOVS     r0,#1
        0x00001f54:    f001ff38    ..8.    BL       read_i2c ; 0x3dc8
        0x00001f58:    2800        .(      CMP      r0,#0
        0x00001f5a:    da0e        ..      BGE      0x1f7a ; GT9XX_ReadData + 210
        0x00001f5c:    f002f848    ..H.    BL       stop_i2c ; 0x3ff0
        0x00001f60:    480a        .H      LDR      r0,[pc,#40] ; [0x1f8c] = 0xfffffbd1
        0x00001f62:    3835        58      SUBS     r0,r0,#0x35
        0x00001f64:    e7ac        ..      B        0x1ec0 ; GT9XX_ReadData + 24
        0x00001f66:    2000        .       MOVS     r0,#0
        0x00001f68:    f001ff2e    ....    BL       read_i2c ; 0x3dc8
        0x00001f6c:    2800        .(      CMP      r0,#0
        0x00001f6e:    da04        ..      BGE      0x1f7a ; GT9XX_ReadData + 210
        0x00001f70:    f002f83e    ..>.    BL       stop_i2c ; 0x3ff0
        0x00001f74:    4805        .H      LDR      r0,[pc,#20] ; [0x1f8c] = 0xfffffbd1
        0x00001f76:    383f        ?8      SUBS     r0,r0,#0x3f
        0x00001f78:    e7a2        ..      B        0x1ec0 ; GT9XX_ReadData + 24
        0x00001f7a:    5528        (U      STRB     r0,[r5,r4]
        0x00001f7c:    1c64        d.      ADDS     r4,r4,#1
        0x00001f7e:    b2a4        ..      UXTH     r4,r4
        0x00001f80:    42b4        .B      CMP      r4,r6
        0x00001f82:    d3e4        ..      BCC      0x1f4e ; GT9XX_ReadData + 166
        0x00001f84:    f002f834    ..4.    BL       stop_i2c ; 0x3ff0
        0x00001f88:    2000        .       MOVS     r0,#0
        0x00001f8a:    e799        ..      B        0x1ec0 ; GT9XX_ReadData + 24
    $d
        0x00001f8c:    fffffbd1    ....    DCD    4294966225
    $t
    i.GT9XX_WriteData
    GT9XX_WriteData
        0x00001f90:    b570        p.      PUSH     {r4-r6,lr}
        0x00001f92:    460c        .F      MOV      r4,r1
        0x00001f94:    4605        .F      MOV      r5,r0
        0x00001f96:    f001ffe3    ....    BL       start_i2c ; 0x3f60
        0x00001f9a:    2800        .(      CMP      r0,#0
        0x00001f9c:    da03        ..      BGE      0x1fa6 ; GT9XX_WriteData + 22
        0x00001f9e:    f002f827    ..'.    BL       stop_i2c ; 0x3ff0
        0x00001fa2:    481b        .H      LDR      r0,[pc,#108] ; [0x2010] = 0xfffffbfc
        0x00001fa4:    bd70        p.      POP      {r4-r6,pc}
        0x00001fa6:    20ba        .       MOVS     r0,#0xba
        0x00001fa8:    f002fbae    ....    BL       write_i2c ; 0x4708
        0x00001fac:    2800        .(      CMP      r0,#0
        0x00001fae:    db1a        ..      BLT      0x1fe6 ; GT9XX_WriteData + 86
        0x00001fb0:    2801        .(      CMP      r0,#1
        0x00001fb2:    d018        ..      BEQ      0x1fe6 ; GT9XX_WriteData + 86
        0x00001fb4:    0a28        (.      LSRS     r0,r5,#8
        0x00001fb6:    f002fba7    ....    BL       write_i2c ; 0x4708
        0x00001fba:    2800        .(      CMP      r0,#0
        0x00001fbc:    db18        ..      BLT      0x1ff0 ; GT9XX_WriteData + 96
        0x00001fbe:    2801        .(      CMP      r0,#1
        0x00001fc0:    d016        ..      BEQ      0x1ff0 ; GT9XX_WriteData + 96
        0x00001fc2:    b2e8        ..      UXTB     r0,r5
        0x00001fc4:    f002fba0    ....    BL       write_i2c ; 0x4708
        0x00001fc8:    2800        .(      CMP      r0,#0
        0x00001fca:    db16        ..      BLT      0x1ffa ; GT9XX_WriteData + 106
        0x00001fcc:    2801        .(      CMP      r0,#1
        0x00001fce:    d014        ..      BEQ      0x1ffa ; GT9XX_WriteData + 106
        0x00001fd0:    4620         F      MOV      r0,r4
        0x00001fd2:    f002fb99    ....    BL       write_i2c ; 0x4708
        0x00001fd6:    2800        .(      CMP      r0,#0
        0x00001fd8:    db14        ..      BLT      0x2004 ; GT9XX_WriteData + 116
        0x00001fda:    2801        .(      CMP      r0,#1
        0x00001fdc:    d012        ..      BEQ      0x2004 ; GT9XX_WriteData + 116
        0x00001fde:    f002f807    ....    BL       stop_i2c ; 0x3ff0
        0x00001fe2:    2000        .       MOVS     r0,#0
        0x00001fe4:    bd70        p.      POP      {r4-r6,pc}
        0x00001fe6:    f002f803    ....    BL       stop_i2c ; 0x3ff0
        0x00001fea:    4809        .H      LDR      r0,[pc,#36] ; [0x2010] = 0xfffffbfc
        0x00001fec:    1fc0        ..      SUBS     r0,r0,#7
        0x00001fee:    bd70        p.      POP      {r4-r6,pc}
        0x00001ff0:    f001fffe    ....    BL       stop_i2c ; 0x3ff0
        0x00001ff4:    4806        .H      LDR      r0,[pc,#24] ; [0x2010] = 0xfffffbfc
        0x00001ff6:    380e        .8      SUBS     r0,r0,#0xe
        0x00001ff8:    bd70        p.      POP      {r4-r6,pc}
        0x00001ffa:    f001fff9    ....    BL       stop_i2c ; 0x3ff0
        0x00001ffe:    f46f6083    o..`    MVN      r0,#0x418
        0x00002002:    bd70        p.      POP      {r4-r6,pc}
        0x00002004:    f001fff4    ....    BL       stop_i2c ; 0x3ff0
        0x00002008:    4801        .H      LDR      r0,[pc,#4] ; [0x2010] = 0xfffffbfc
        0x0000200a:    381c        .8      SUBS     r0,r0,#0x1c
        0x0000200c:    bd70        p.      POP      {r4-r6,pc}
    $d
        0x0000200e:    0000        ..      DCW    0
        0x00002010:    fffffbfc    ....    DCD    4294966268
    $t
    i.LCD_Clear
    LCD_Clear
        0x00002014:    b570        p.      PUSH     {r4-r6,lr}
        0x00002016:    2400        .$      MOVS     r4,#0
        0x00002018:    4606        .F      MOV      r6,r0
        0x0000201a:    f44f3516    O..5    MOV      r5,#0x25800
        0x0000201e:    f240133f    @.?.    MOV      r3,#0x13f
        0x00002022:    f24012df    @...    MOV      r2,#0x1df
        0x00002026:    4621        !F      MOV      r1,r4
        0x00002028:    4620         F      MOV      r0,r4
        0x0000202a:    f000f906    ....    BL       LCD_Set_Window ; 0x223a
        0x0000202e:    202c        ,       MOVS     r0,#0x2c
        0x00002030:    0701        ..      LSLS     r1,r0,#28
        0x00002032:    6008        .`      STR      r0,[r1,#0]
        0x00002034:    604e        N`      STR      r6,[r1,#4]
        0x00002036:    1c64        d.      ADDS     r4,r4,#1
        0x00002038:    42ac        .B      CMP      r4,r5
        0x0000203a:    d3fb        ..      BCC      0x2034 ; LCD_Clear + 32
        0x0000203c:    bd70        p.      POP      {r4-r6,pc}
    i.LCD_DrawPoint_color
    LCD_DrawPoint_color
        0x0000203e:    b510        ..      PUSH     {r4,lr}
        0x00002040:    4614        .F      MOV      r4,r2
        0x00002042:    f240133f    @.?.    MOV      r3,#0x13f
        0x00002046:    f24012df    @...    MOV      r2,#0x1df
        0x0000204a:    f000f8f6    ....    BL       LCD_Set_Window ; 0x223a
        0x0000204e:    212c        ,!      MOVS     r1,#0x2c
        0x00002050:    0708        ..      LSLS     r0,r1,#28
        0x00002052:    6001        .`      STR      r1,[r0,#0]
        0x00002054:    6044        D`      STR      r4,[r0,#4]
        0x00002056:    bd10        ..      POP      {r4,pc}
    i.LCD_Init
    LCD_Init
        0x00002058:    e92d47f0    -..G    PUSH     {r4-r10,lr}
        0x0000205c:    f8df9178    ..x.    LDR      r9,[pc,#376] ; [0x21d8] = 0x40010000
        0x00002060:    2111        .!      MOVS     r1,#0x11
        0x00002062:    4648        HF      MOV      r0,r9
        0x00002064:    f7fffe0c    ....    BL       GPIO_ResetBit ; 0x1c80
        0x00002068:    200a        .       MOVS     r0,#0xa
        0x0000206a:    f000ff59    ..Y.    BL       delay_ms ; 0x2f20
        0x0000206e:    2111        .!      MOVS     r1,#0x11
        0x00002070:    4648        HF      MOV      r0,r9
        0x00002072:    f7fffe3b    ..;.    BL       GPIO_SetBit ; 0x1cec
        0x00002076:    200a        .       MOVS     r0,#0xa
        0x00002078:    f000ff52    ..R.    BL       delay_ms ; 0x2f20
        0x0000207c:    f04f4440    O.@D    MOV      r4,#0xc0000000
        0x00002080:    2001        .       MOVS     r0,#1
        0x00002082:    7260        `r      STRB     r0,[r4,#9]
        0x00002084:    2502        .%      MOVS     r5,#2
        0x00002086:    72a5        .r      STRB     r5,[r4,#0xa]
        0x00002088:    72e5        .r      STRB     r5,[r4,#0xb]
        0x0000208a:    2124        $!      MOVS     r1,#0x24
        0x0000208c:    7321        !s      STRB     r1,[r4,#0xc]
        0x0000208e:    260a        .&      MOVS     r6,#0xa
        0x00002090:    7366        fs      STRB     r6,[r4,#0xd]
        0x00002092:    7220         r      STRB     r0,[r4,#8]
        0x00002094:    20d3        .       MOVS     r0,#0xd3
        0x00002096:    6020         `      STR      r0,[r4,#0]
        0x00002098:    f000f8a8    ....    BL       LCD_RD_DATA ; 0x21ec
        0x0000209c:    f000f8a6    ....    BL       LCD_RD_DATA ; 0x21ec
        0x000020a0:    f000f8a4    ....    BL       LCD_RD_DATA ; 0x21ec
        0x000020a4:    f64f78ff    O..x    MOV      r8,#0xffff
        0x000020a8:    ea082700    ...'    AND      r7,r8,r0,LSL #8
        0x000020ac:    f000f89e    ....    BL       LCD_RD_DATA ; 0x21ec
        0x000020b0:    ea400107    @...    ORR      r1,r0,r7
        0x000020b4:    a049        I.      ADR      r0,{pc}+0x128 ; 0x21dc
        0x000020b6:    f7fef915    ....    BL       __2printf ; 0x2e4
        0x000020ba:    20f7        .       MOVS     r0,#0xf7
        0x000020bc:    6020         `      STR      r0,[r4,#0]
        0x000020be:    20a9        .       MOVS     r0,#0xa9
        0x000020c0:    6060        ``      STR      r0,[r4,#4]
        0x000020c2:    2051        Q       MOVS     r0,#0x51
        0x000020c4:    6060        ``      STR      r0,[r4,#4]
        0x000020c6:    202c        ,       MOVS     r0,#0x2c
        0x000020c8:    6060        ``      STR      r0,[r4,#4]
        0x000020ca:    2082        .       MOVS     r0,#0x82
        0x000020cc:    6060        ``      STR      r0,[r4,#4]
        0x000020ce:    20c0        .       MOVS     r0,#0xc0
        0x000020d0:    6020         `      STR      r0,[r4,#0]
        0x000020d2:    2011        .       MOVS     r0,#0x11
        0x000020d4:    6060        ``      STR      r0,[r4,#4]
        0x000020d6:    2009        .       MOVS     r0,#9
        0x000020d8:    6060        ``      STR      r0,[r4,#4]
        0x000020da:    20c1        .       MOVS     r0,#0xc1
        0x000020dc:    6020         `      STR      r0,[r4,#0]
        0x000020de:    2041        A       MOVS     r0,#0x41
        0x000020e0:    6060        ``      STR      r0,[r4,#4]
        0x000020e2:    20c5        .       MOVS     r0,#0xc5
        0x000020e4:    6020         `      STR      r0,[r4,#0]
        0x000020e6:    2000        .       MOVS     r0,#0
        0x000020e8:    6060        ``      STR      r0,[r4,#4]
        0x000020ea:    6066        f`      STR      r6,[r4,#4]
        0x000020ec:    2080        .       MOVS     r0,#0x80
        0x000020ee:    6060        ``      STR      r0,[r4,#4]
        0x000020f0:    20b1        .       MOVS     r0,#0xb1
        0x000020f2:    6020         `      STR      r0,[r4,#0]
        0x000020f4:    20b0        .       MOVS     r0,#0xb0
        0x000020f6:    6060        ``      STR      r0,[r4,#4]
        0x000020f8:    2011        .       MOVS     r0,#0x11
        0x000020fa:    6060        ``      STR      r0,[r4,#4]
        0x000020fc:    20b4        .       MOVS     r0,#0xb4
        0x000020fe:    6020         `      STR      r0,[r4,#0]
        0x00002100:    6065        e`      STR      r5,[r4,#4]
        0x00002102:    20b6        .       MOVS     r0,#0xb6
        0x00002104:    6020         `      STR      r0,[r4,#0]
        0x00002106:    6065        e`      STR      r5,[r4,#4]
        0x00002108:    2022        "       MOVS     r0,#0x22
        0x0000210a:    6060        ``      STR      r0,[r4,#4]
        0x0000210c:    20b7        .       MOVS     r0,#0xb7
        0x0000210e:    6020         `      STR      r0,[r4,#0]
        0x00002110:    20c6        .       MOVS     r0,#0xc6
        0x00002112:    6060        ``      STR      r0,[r4,#4]
        0x00002114:    20be        .       MOVS     r0,#0xbe
        0x00002116:    6020         `      STR      r0,[r4,#0]
        0x00002118:    2000        .       MOVS     r0,#0
        0x0000211a:    6060        ``      STR      r0,[r4,#4]
        0x0000211c:    2004        .       MOVS     r0,#4
        0x0000211e:    6060        ``      STR      r0,[r4,#4]
        0x00002120:    20e9        .       MOVS     r0,#0xe9
        0x00002122:    6020         `      STR      r0,[r4,#0]
        0x00002124:    2000        .       MOVS     r0,#0
        0x00002126:    6060        ``      STR      r0,[r4,#4]
        0x00002128:    2036        6       MOVS     r0,#0x36
        0x0000212a:    6020         `      STR      r0,[r4,#0]
        0x0000212c:    2008        .       MOVS     r0,#8
        0x0000212e:    6060        ``      STR      r0,[r4,#4]
        0x00002130:    203a        :       MOVS     r0,#0x3a
        0x00002132:    6020         `      STR      r0,[r4,#0]
        0x00002134:    2055        U       MOVS     r0,#0x55
        0x00002136:    6060        ``      STR      r0,[r4,#4]
        0x00002138:    20e0        .       MOVS     r0,#0xe0
        0x0000213a:    6020         `      STR      r0,[r4,#0]
        0x0000213c:    2000        .       MOVS     r0,#0
        0x0000213e:    6060        ``      STR      r0,[r4,#4]
        0x00002140:    2007        .       MOVS     r0,#7
        0x00002142:    6060        ``      STR      r0,[r4,#4]
        0x00002144:    2010        .       MOVS     r0,#0x10
        0x00002146:    6060        ``      STR      r0,[r4,#4]
        0x00002148:    2009        .       MOVS     r0,#9
        0x0000214a:    6060        ``      STR      r0,[r4,#4]
        0x0000214c:    2017        .       MOVS     r0,#0x17
        0x0000214e:    6060        ``      STR      r0,[r4,#4]
        0x00002150:    200b        .       MOVS     r0,#0xb
        0x00002152:    6060        ``      STR      r0,[r4,#4]
        0x00002154:    2041        A       MOVS     r0,#0x41
        0x00002156:    6060        ``      STR      r0,[r4,#4]
        0x00002158:    2089        .       MOVS     r0,#0x89
        0x0000215a:    6060        ``      STR      r0,[r4,#4]
        0x0000215c:    204b        K       MOVS     r0,#0x4b
        0x0000215e:    6060        ``      STR      r0,[r4,#4]
        0x00002160:    6066        f`      STR      r6,[r4,#4]
        0x00002162:    200c        .       MOVS     r0,#0xc
        0x00002164:    6060        ``      STR      r0,[r4,#4]
        0x00002166:    200e        .       MOVS     r0,#0xe
        0x00002168:    6060        ``      STR      r0,[r4,#4]
        0x0000216a:    2018        .       MOVS     r0,#0x18
        0x0000216c:    6060        ``      STR      r0,[r4,#4]
        0x0000216e:    201b        .       MOVS     r0,#0x1b
        0x00002170:    6060        ``      STR      r0,[r4,#4]
        0x00002172:    200f        .       MOVS     r0,#0xf
        0x00002174:    6060        ``      STR      r0,[r4,#4]
        0x00002176:    20e1        .       MOVS     r0,#0xe1
        0x00002178:    6020         `      STR      r0,[r4,#0]
        0x0000217a:    2000        .       MOVS     r0,#0
        0x0000217c:    6060        ``      STR      r0,[r4,#4]
        0x0000217e:    2017        .       MOVS     r0,#0x17
        0x00002180:    6060        ``      STR      r0,[r4,#4]
        0x00002182:    201a        .       MOVS     r0,#0x1a
        0x00002184:    6060        ``      STR      r0,[r4,#4]
        0x00002186:    2004        .       MOVS     r0,#4
        0x00002188:    6060        ``      STR      r0,[r4,#4]
        0x0000218a:    200e        .       MOVS     r0,#0xe
        0x0000218c:    6060        ``      STR      r0,[r4,#4]
        0x0000218e:    2006        .       MOVS     r0,#6
        0x00002190:    6060        ``      STR      r0,[r4,#4]
        0x00002192:    202f        /       MOVS     r0,#0x2f
        0x00002194:    6060        ``      STR      r0,[r4,#4]
        0x00002196:    2045        E       MOVS     r0,#0x45
        0x00002198:    6060        ``      STR      r0,[r4,#4]
        0x0000219a:    2043        C       MOVS     r0,#0x43
        0x0000219c:    6060        ``      STR      r0,[r4,#4]
        0x0000219e:    6065        e`      STR      r5,[r4,#4]
        0x000021a0:    6066        f`      STR      r6,[r4,#4]
        0x000021a2:    2009        .       MOVS     r0,#9
        0x000021a4:    6060        ``      STR      r0,[r4,#4]
        0x000021a6:    2032        2       MOVS     r0,#0x32
        0x000021a8:    6060        ``      STR      r0,[r4,#4]
        0x000021aa:    2036        6       MOVS     r0,#0x36
        0x000021ac:    6060        ``      STR      r0,[r4,#4]
        0x000021ae:    200f        .       MOVS     r0,#0xf
        0x000021b0:    6060        ``      STR      r0,[r4,#4]
        0x000021b2:    2011        .       MOVS     r0,#0x11
        0x000021b4:    6020         `      STR      r0,[r4,#0]
        0x000021b6:    2064        d       MOVS     r0,#0x64
        0x000021b8:    f000feb2    ....    BL       delay_ms ; 0x2f20
        0x000021bc:    2029        )       MOVS     r0,#0x29
        0x000021be:    6020         `      STR      r0,[r4,#0]
        0x000021c0:    2006        .       MOVS     r0,#6
        0x000021c2:    f000f818    ....    BL       LCD_Scan_Dir ; 0x21f6
        0x000021c6:    2106        .!      MOVS     r1,#6
        0x000021c8:    4648        HF      MOV      r0,r9
        0x000021ca:    f7fffd8f    ....    BL       GPIO_SetBit ; 0x1cec
        0x000021ce:    4640        @F      MOV      r0,r8
        0x000021d0:    e8bd47f0    ...G    POP      {r4-r10,lr}
        0x000021d4:    f7ffbf1e    ....    B.W      LCD_Clear ; 0x2014
    $d
        0x000021d8:    40010000    ...@    DCD    1073807360
        0x000021dc:    44434c20     LCD    DCD    1145261088
        0x000021e0:    3a444920     ID:    DCD    977553696
        0x000021e4:    0a0d7825    %x..    DCD    168654885
        0x000021e8:    00000000    ....    DCD    0
    $t
    i.LCD_RD_DATA
    LCD_RD_DATA
        0x000021ec:    f04f4040    O.@@    MOV      r0,#0xc0000000
        0x000021f0:    6840        @h      LDR      r0,[r0,#4]
        0x000021f2:    b280        ..      UXTH     r0,r0
        0x000021f4:    4770        pG      BX       lr
    i.LCD_Scan_Dir
    LCD_Scan_Dir
        0x000021f6:    2108        .!      MOVS     r1,#8
        0x000021f8:    2808        .(      CMP      r0,#8
        0x000021fa:    d212        ..      BCS      0x2222 ; LCD_Scan_Dir + 44
        0x000021fc:    e8dff000    ....    TBB      [pc,r0]
    $d
        0x00002200:    08060411    ....    DCD    134611985
        0x00002204:    100e0c0a    ....    DCD    269356042
    $t
        0x00002208:    2188        .!      MOVS     r1,#0x88
        0x0000220a:    e00a        ..      B        0x2222 ; LCD_Scan_Dir + 44
        0x0000220c:    2148        H!      MOVS     r1,#0x48
        0x0000220e:    e008        ..      B        0x2222 ; LCD_Scan_Dir + 44
        0x00002210:    21c8        .!      MOVS     r1,#0xc8
        0x00002212:    e006        ..      B        0x2222 ; LCD_Scan_Dir + 44
        0x00002214:    2128        (!      MOVS     r1,#0x28
        0x00002216:    e004        ..      B        0x2222 ; LCD_Scan_Dir + 44
        0x00002218:    2168        h!      MOVS     r1,#0x68
        0x0000221a:    e002        ..      B        0x2222 ; LCD_Scan_Dir + 44
        0x0000221c:    21a8        .!      MOVS     r1,#0xa8
        0x0000221e:    e000        ..      B        0x2222 ; LCD_Scan_Dir + 44
        0x00002220:    21e8        .!      MOVS     r1,#0xe8
        0x00002222:    2036        6       MOVS     r0,#0x36
        0x00002224:    0742        B.      LSLS     r2,r0,#29
        0x00002226:    6010        .`      STR      r0,[r2,#0]
        0x00002228:    6051        Q`      STR      r1,[r2,#4]
        0x0000222a:    2100        .!      MOVS     r1,#0
        0x0000222c:    f240133f    @.?.    MOV      r3,#0x13f
        0x00002230:    f24012df    @...    MOV      r2,#0x1df
        0x00002234:    4608        .F      MOV      r0,r1
        0x00002236:    f3af8000    ....    NOP.W    
    i.LCD_Set_Window
    LCD_Set_Window
        0x0000223a:    b530        0.      PUSH     {r4,r5,lr}
        0x0000223c:    f04f4440    O.@D    MOV      r4,#0xc0000000
        0x00002240:    252a        *%      MOVS     r5,#0x2a
        0x00002242:    6025        %`      STR      r5,[r4,#0]
        0x00002244:    0a05        ..      LSRS     r5,r0,#8
        0x00002246:    6065        e`      STR      r5,[r4,#4]
        0x00002248:    b2c0        ..      UXTB     r0,r0
        0x0000224a:    6060        ``      STR      r0,[r4,#4]
        0x0000224c:    0a10        ..      LSRS     r0,r2,#8
        0x0000224e:    6060        ``      STR      r0,[r4,#4]
        0x00002250:    b2d0        ..      UXTB     r0,r2
        0x00002252:    6060        ``      STR      r0,[r4,#4]
        0x00002254:    202b        +       MOVS     r0,#0x2b
        0x00002256:    6020         `      STR      r0,[r4,#0]
        0x00002258:    0a08        ..      LSRS     r0,r1,#8
        0x0000225a:    6060        ``      STR      r0,[r4,#4]
        0x0000225c:    b2c8        ..      UXTB     r0,r1
        0x0000225e:    6060        ``      STR      r0,[r4,#4]
        0x00002260:    0a18        ..      LSRS     r0,r3,#8
        0x00002262:    6060        ``      STR      r0,[r4,#4]
        0x00002264:    b2d8        ..      UXTB     r0,r3
        0x00002266:    6060        ``      STR      r0,[r4,#4]
        0x00002268:    bd30        0.      POP      {r4,r5,pc}
        0x0000226a:    0000        ..      MOVS     r0,r0
    i.LCD_ShowChar
    LCD_ShowChar
        0x0000226c:    e92d4ffe    -..O    PUSH     {r1-r11,lr}
        0x00002270:    460c        .F      MOV      r4,r1
        0x00002272:    4605        .F      MOV      r5,r0
        0x00002274:    3a20         :      SUBS     r2,r2,#0x20
        0x00002276:    492a        *I      LDR      r1,[pc,#168] ; [0x2320] = 0x5b42
        0x00002278:    b2d0        ..      UXTB     r0,r2
        0x0000227a:    eb011000    ....    ADD      r0,r1,r0,LSL #4
        0x0000227e:    e9cd4001    ...@    STRD     r4,r0,[sp,#4]
        0x00002282:    ea4f1a13    O...    LSR      r10,r3,#4
        0x00002286:    4698        .F      MOV      r8,r3
        0x00002288:    f04f0900    O...    MOV      r9,#0
        0x0000228c:    f1aa0b01    ....    SUB      r11,r10,#1
        0x00002290:    9802        ..      LDR      r0,[sp,#8]
        0x00002292:    2600        .&      MOVS     r6,#0
        0x00002294:    f8107009    ...p    LDRB     r7,[r0,r9]
        0x00002298:    0638        8.      LSLS     r0,r7,#24
        0x0000229a:    d509        ..      BPL      0x22b0 ; LCD_ShowChar + 68
        0x0000229c:    ea5f1018    _...    LSRS     r0,r8,#4
        0x000022a0:    d003        ..      BEQ      0x22aa ; LCD_ShowChar + 62
        0x000022a2:    4920         I      LDR      r1,[pc,#128] ; [0x2324] = 0x20000008
        0x000022a4:    4650        PF      MOV      r0,r10
        0x000022a6:    6809        .h      LDR      r1,[r1,#0]
        0x000022a8:    e00b        ..      B        0x22c2 ; LCD_ShowChar + 86
        0x000022aa:    481e        .H      LDR      r0,[pc,#120] ; [0x2324] = 0x20000008
        0x000022ac:    6802        .h      LDR      r2,[r0,#0]
        0x000022ae:    e01a        ..      B        0x22e6 ; LCD_ShowChar + 122
        0x000022b0:    ea5f70c8    _..p    LSLS     r0,r8,#31
        0x000022b4:    d01b        ..      BEQ      0x22ee ; LCD_ShowChar + 130
        0x000022b6:    ea5f1018    _...    LSRS     r0,r8,#4
        0x000022ba:    d012        ..      BEQ      0x22e2 ; LCD_ShowChar + 118
        0x000022bc:    4919        .I      LDR      r1,[pc,#100] ; [0x2324] = 0x20000008
        0x000022be:    4650        PF      MOV      r0,r10
        0x000022c0:    6849        Ih      LDR      r1,[r1,#4]
        0x000022c2:    fb04b200    ....    MLA      r2,r4,r0,r11
        0x000022c6:    9100        ..      STR      r1,[sp,#0]
        0x000022c8:    fb05b100    ....    MLA      r1,r5,r0,r11
        0x000022cc:    b293        ..      UXTH     r3,r2
        0x000022ce:    b28a        ..      UXTH     r2,r1
        0x000022d0:    fb04f100    ....    MUL      r1,r4,r0
        0x000022d4:    fb05f00a    ....    MUL      r0,r5,r10
        0x000022d8:    b289        ..      UXTH     r1,r1
        0x000022da:    b280        ..      UXTH     r0,r0
        0x000022dc:    f000f84a    ..J.    BL       LCD_fill ; 0x2374
        0x000022e0:    e005        ..      B        0x22ee ; LCD_ShowChar + 130
        0x000022e2:    4810        .H      LDR      r0,[pc,#64] ; [0x2324] = 0x20000008
        0x000022e4:    6842        Bh      LDR      r2,[r0,#4]
        0x000022e6:    4621        !F      MOV      r1,r4
        0x000022e8:    4628        (F      MOV      r0,r5
        0x000022ea:    f7fffea8    ....    BL       LCD_DrawPoint_color ; 0x203e
        0x000022ee:    0678        x.      LSLS     r0,r7,#25
        0x000022f0:    0e07        ..      LSRS     r7,r0,#24
        0x000022f2:    1c64        d.      ADDS     r4,r4,#1
        0x000022f4:    9801        ..      LDR      r0,[sp,#4]
        0x000022f6:    b2a4        ..      UXTH     r4,r4
        0x000022f8:    1a20         .      SUBS     r0,r4,r0
        0x000022fa:    2810        .(      CMP      r0,#0x10
        0x000022fc:    d00c        ..      BEQ      0x2318 ; LCD_ShowChar + 172
        0x000022fe:    1c76        v.      ADDS     r6,r6,#1
        0x00002300:    b2f6        ..      UXTB     r6,r6
        0x00002302:    2e08        ..      CMP      r6,#8
        0x00002304:    d3c8        ..      BCC      0x2298 ; LCD_ShowChar + 44
        0x00002306:    f1090001    ....    ADD      r0,r9,#1
        0x0000230a:    f00009ff    ....    AND      r9,r0,#0xff
        0x0000230e:    f1b90f10    ....    CMP      r9,#0x10
        0x00002312:    d3bd        ..      BCC      0x2290 ; LCD_ShowChar + 36
        0x00002314:    e8bd8ffe    ....    POP      {r1-r11,pc}
        0x00002318:    1c6d        m.      ADDS     r5,r5,#1
        0x0000231a:    b2ad        ..      UXTH     r5,r5
        0x0000231c:    9c01        ..      LDR      r4,[sp,#4]
        0x0000231e:    e7f2        ..      B        0x2306 ; LCD_ShowChar + 154
    $d
        0x00002320:    00005b42    B[..    DCD    23362
        0x00002324:    20000008    ...     DCD    536870920
    $t
    i.LCD_ShowString
    LCD_ShowString
        0x00002328:    e92d4ff0    -..O    PUSH     {r4-r11,lr}
        0x0000232c:    4604        .F      MOV      r4,r0
        0x0000232e:    4680        .F      MOV      r8,r0
        0x00002330:    1910        ..      ADDS     r0,r2,r4
        0x00002332:    460d        .F      MOV      r5,r1
        0x00002334:    fa1ffa80    ....    UXTH     r10,r0
        0x00002338:    e9dd6b09    ...k    LDRD     r6,r11,[sp,#0x24]
        0x0000233c:    1958        X.      ADDS     r0,r3,r5
        0x0000233e:    fa1ff980    ....    UXTH     r9,r0
        0x00002342:    2710        .'      MOVS     r7,#0x10
        0x00002344:    e00f        ..      B        0x2366 ; LCD_ShowString + 62
        0x00002346:    4554        TE      CMP      r4,r10
        0x00002348:    d302        ..      BCC      0x2350 ; LCD_ShowString + 40
        0x0000234a:    19e8        ..      ADDS     r0,r5,r7
        0x0000234c:    4644        DF      MOV      r4,r8
        0x0000234e:    b285        ..      UXTH     r5,r0
        0x00002350:    454d        ME      CMP      r5,r9
        0x00002352:    d20d        ..      BCS      0x2370 ; LCD_ShowString + 72
        0x00002354:    465b        [F      MOV      r3,r11
        0x00002356:    4629        )F      MOV      r1,r5
        0x00002358:    4620         F      MOV      r0,r4
        0x0000235a:    f7ffff87    ....    BL       LCD_ShowChar ; 0x226c
        0x0000235e:    eb040057    ..W.    ADD      r0,r4,r7,LSR #1
        0x00002362:    b284        ..      UXTH     r4,r0
        0x00002364:    1c76        v.      ADDS     r6,r6,#1
        0x00002366:    7832        2x      LDRB     r2,[r6,#0]
        0x00002368:    f1a20020    .. .    SUB      r0,r2,#0x20
        0x0000236c:    285e        ^(      CMP      r0,#0x5e
        0x0000236e:    d9ea        ..      BLS      0x2346 ; LCD_ShowString + 30
        0x00002370:    e8bd8ff0    ....    POP      {r4-r11,pc}
    i.LCD_fill
    LCD_fill
        0x00002374:    b5f0        ..      PUSH     {r4-r7,lr}
        0x00002376:    1a15        ..      SUBS     r5,r2,r0
        0x00002378:    1a5f        _.      SUBS     r7,r3,r1
        0x0000237a:    1c6d        m.      ADDS     r5,r5,#1
        0x0000237c:    1c7f        ..      ADDS     r7,r7,#1
        0x0000237e:    2400        .$      MOVS     r4,#0
        0x00002380:    437d        }C      MULS     r5,r7,r5
        0x00002382:    9e05        ..      LDR      r6,[sp,#0x14]
        0x00002384:    f7ffff59    ..Y.    BL       LCD_Set_Window ; 0x223a
        0x00002388:    212c        ,!      MOVS     r1,#0x2c
        0x0000238a:    0708        ..      LSLS     r0,r1,#28
        0x0000238c:    6001        .`      STR      r1,[r0,#0]
        0x0000238e:    e001        ..      B        0x2394 ; LCD_fill + 32
        0x00002390:    6046        F`      STR      r6,[r0,#4]
        0x00002392:    1c64        d.      ADDS     r4,r4,#1
        0x00002394:    42ac        .B      CMP      r4,r5
        0x00002396:    d3fb        ..      BCC      0x2390 ; LCD_fill + 28
        0x00002398:    bdf0        ..      POP      {r4-r7,pc}
        0x0000239a:    0000        ..      MOVS     r0,r0
    i.NVIC_Init
    NVIC_Init
        0x0000239c:    b530        0.      PUSH     {r4,r5,lr}
        0x0000239e:    230f        .#      MOVS     r3,#0xf
        0x000023a0:    78c2        .x      LDRB     r2,[r0,#3]
        0x000023a2:    7801        .x      LDRB     r1,[r0,#0]
        0x000023a4:    2501        .%      MOVS     r5,#1
        0x000023a6:    b1f2        ..      CBZ      r2,0x23e6 ; NVIC_Init + 74
        0x000023a8:    4a14        .J      LDR      r2,[pc,#80] ; [0x23fc] = 0xe000ed0c
        0x000023aa:    6812        .h      LDR      r2,[r2,#0]
        0x000023ac:    f10121e0    ...!    ADD      r1,r1,#0xe000e000
        0x000023b0:    f40262e0    ...b    AND      r2,r2,#0x700
        0x000023b4:    f5c262e0    ...b    RSB      r2,r2,#0x700
        0x000023b8:    0a12        ..      LSRS     r2,r2,#8
        0x000023ba:    f1c20404    ....    RSB      r4,r2,#4
        0x000023be:    40d3        .@      LSRS     r3,r3,r2
        0x000023c0:    7842        Bx      LDRB     r2,[r0,#1]
        0x000023c2:    40a2        .@      LSLS     r2,r2,r4
        0x000023c4:    7884        .x      LDRB     r4,[r0,#2]
        0x000023c6:    401c        .@      ANDS     r4,r4,r3
        0x000023c8:    4314        .C      ORRS     r4,r4,r2
        0x000023ca:    0122        ".      LSLS     r2,r4,#4
        0x000023cc:    f8812400    ...$    STRB     r2,[r1,#0x400]
        0x000023d0:    7800        .x      LDRB     r0,[r0,#0]
        0x000023d2:    f000011f    ....    AND      r1,r0,#0x1f
        0x000023d6:    408d        .@      LSLS     r5,r5,r1
        0x000023d8:    0940        @.      LSRS     r0,r0,#5
        0x000023da:    0080        ..      LSLS     r0,r0,#2
        0x000023dc:    f10020e0    ...     ADD      r0,r0,#0xe000e000
        0x000023e0:    f8c05100    ...Q    STR      r5,[r0,#0x100]
        0x000023e4:    bd30        0.      POP      {r4,r5,pc}
        0x000023e6:    f001001f    ....    AND      r0,r1,#0x1f
        0x000023ea:    4085        .@      LSLS     r5,r5,r0
        0x000023ec:    0948        H.      LSRS     r0,r1,#5
        0x000023ee:    0080        ..      LSLS     r0,r0,#2
        0x000023f0:    f10020e0    ...     ADD      r0,r0,#0xe000e000
        0x000023f4:    f8c05180    ...Q    STR      r5,[r0,#0x180]
        0x000023f8:    bd30        0.      POP      {r4,r5,pc}
    $d
        0x000023fa:    0000        ..      DCW    0
        0x000023fc:    e000ed0c    ....    DCD    3758157068
    $t
    i.RCC_APB1PeriphResetCmd
    RCC_APB1PeriphResetCmd
        0x00002400:    4a04        .J      LDR      r2,[pc,#16] ; [0x2414] = 0x40003000
        0x00002402:    2900        .)      CMP      r1,#0
        0x00002404:    6811        .h      LDR      r1,[r2,#0]
        0x00002406:    d001        ..      BEQ      0x240c ; RCC_APB1PeriphResetCmd + 12
        0x00002408:    4381        .C      BICS     r1,r1,r0
        0x0000240a:    e000        ..      B        0x240e ; RCC_APB1PeriphResetCmd + 14
        0x0000240c:    4301        .C      ORRS     r1,r1,r0
        0x0000240e:    6011        .`      STR      r1,[r2,#0]
        0x00002410:    4770        pG      BX       lr
    $d
        0x00002412:    0000        ..      DCW    0
        0x00002414:    40003000    .0.@    DCD    1073754112
    $t
    i.SCD_CMD_CALL
    SCD_CMD_CALL
        0x00002418:    b570        p.      PUSH     {r4-r6,lr}
        0x0000241a:    4614        .F      MOV      r4,r2
        0x0000241c:    4605        .F      MOV      r5,r0
        0x0000241e:    6bc0        .k      LDR      r0,[r0,#0x3c]
        0x00002420:    2204        ."      MOVS     r2,#4
        0x00002422:    eb0202c4    ....    ADD      r2,r2,r4,LSL #3
        0x00002426:    5c80        .\      LDRB     r0,[r0,r2]
        0x00002428:    2832        2(      CMP      r0,#0x32
        0x0000242a:    d108        ..      BNE      0x243e ; SCD_CMD_CALL + 38
        0x0000242c:    4608        .F      MOV      r0,r1
        0x0000242e:    f000fd71    ..q.    BL       cz_atol ; 0x2f14
        0x00002432:    6be9        .k      LDR      r1,[r5,#0x3c]
        0x00002434:    f8511034    Q.4.    LDR      r1,[r1,r4,LSL #3]
        0x00002438:    e8bd4070    ..p@    POP      {r4-r6,lr}
        0x0000243c:    4708        .G      BX       r1
        0x0000243e:    bd70        p.      POP      {r4-r6,pc}
    i.SCD_CMD_CHG
    SCD_CMD_CHG
        0x00002440:    b510        ..      PUSH     {r4,lr}
        0x00002442:    4604        .F      MOV      r4,r0
        0x00002444:    4608        .F      MOV      r0,r1
        0x00002446:    f000fd65    ..e.    BL       cz_atol ; 0x2f14
        0x0000244a:    2805        .(      CMP      r0,#5
        0x0000244c:    d201        ..      BCS      0x2452 ; SCD_CMD_CHG + 18
        0x0000244e:    f8a40050    ..P.    STRH     r0,[r4,#0x50]
        0x00002452:    bd10        ..      POP      {r4,pc}
    i.SCD_CMD_CONF
    SCD_CMD_CONF
        0x00002454:    b570        p.      PUSH     {r4-r6,lr}
        0x00002456:    4614        .F      MOV      r4,r2
        0x00002458:    4605        .F      MOV      r5,r0
        0x0000245a:    2a14        .*      CMP      r2,#0x14
        0x0000245c:    d204        ..      BCS      0x2468 ; SCD_CMD_CONF + 20
        0x0000245e:    4608        .F      MOV      r0,r1
        0x00002460:    f000fd58    ..X.    BL       cz_atol ; 0x2f14
        0x00002464:    f8250014    %...    STRH     r0,[r5,r4,LSL #1]
        0x00002468:    bd70        p.      POP      {r4-r6,pc}
    i.SCD_CMD_DUMP
    SCD_CMD_DUMP
        0x0000246a:    b510        ..      PUSH     {r4,lr}
        0x0000246c:    4604        .F      MOV      r4,r0
        0x0000246e:    f8a0205a    ..Z     STRH     r2,[r0,#0x5a]
        0x00002472:    4608        .F      MOV      r0,r1
        0x00002474:    f000fd4e    ..N.    BL       cz_atol ; 0x2f14
        0x00002478:    2800        .(      CMP      r0,#0
        0x0000247a:    dc01        ..      BGT      0x2480 ; SCD_CMD_DUMP + 22
        0x0000247c:    2001        .       MOVS     r0,#1
        0x0000247e:    e004        ..      B        0x248a ; SCD_CMD_DUMP + 32
        0x00002480:    f44f41fa    O..A    MOV      r1,#0x7d00
        0x00002484:    4288        .B      CMP      r0,r1
        0x00002486:    dd00        ..      BLE      0x248a ; SCD_CMD_DUMP + 32
        0x00002488:    4608        .F      MOV      r0,r1
        0x0000248a:    f8a4005c    ..\.    STRH     r0,[r4,#0x5c]
        0x0000248e:    bd10        ..      POP      {r4,pc}
    i.SCD_CMD_SET
    SCD_CMD_SET
        0x00002490:    e92d41f0    -..A    PUSH     {r4-r8,lr}
        0x00002494:    6bc4        .k      LDR      r4,[r0,#0x3c]
        0x00002496:    4615        .F      MOV      r5,r2
        0x00002498:    eb0406c5    ....    ADD      r6,r4,r5,LSL #3
        0x0000249c:    4688        .F      MOV      r8,r1
        0x0000249e:    88b0        ..      LDRH     r0,[r6,#4]
        0x000024a0:    2824        $(      CMP      r0,#0x24
        0x000024a2:    d105        ..      BNE      0x24b0 ; SCD_CMD_SET + 32
        0x000024a4:    f8547035    T.5p    LDR      r7,[r4,r5,LSL #3]
        0x000024a8:    4608        .F      MOV      r0,r1
        0x000024aa:    f000fc29    ..).    BL       atof_tyj ; 0x2d00
        0x000024ae:    6038        8`      STR      r0,[r7,#0]
        0x000024b0:    88b0        ..      LDRH     r0,[r6,#4]
        0x000024b2:    2802        .(      CMP      r0,#2
        0x000024b4:    d105        ..      BNE      0x24c2 ; SCD_CMD_SET + 50
        0x000024b6:    f8547035    T.5p    LDR      r7,[r4,r5,LSL #3]
        0x000024ba:    4640        @F      MOV      r0,r8
        0x000024bc:    f000fd2a    ..*.    BL       cz_atol ; 0x2f14
        0x000024c0:    8038        8.      STRH     r0,[r7,#0]
        0x000024c2:    88b0        ..      LDRH     r0,[r6,#4]
        0x000024c4:    2812        .(      CMP      r0,#0x12
        0x000024c6:    d105        ..      BNE      0x24d4 ; SCD_CMD_SET + 68
        0x000024c8:    f8547035    T.5p    LDR      r7,[r4,r5,LSL #3]
        0x000024cc:    4640        @F      MOV      r0,r8
        0x000024ce:    f000fd21    ..!.    BL       cz_atol ; 0x2f14
        0x000024d2:    8038        8.      STRH     r0,[r7,#0]
        0x000024d4:    88b0        ..      LDRH     r0,[r6,#4]
        0x000024d6:    2804        .(      CMP      r0,#4
        0x000024d8:    d105        ..      BNE      0x24e6 ; SCD_CMD_SET + 86
        0x000024da:    f8547035    T.5p    LDR      r7,[r4,r5,LSL #3]
        0x000024de:    4640        @F      MOV      r0,r8
        0x000024e0:    f000fd18    ....    BL       cz_atol ; 0x2f14
        0x000024e4:    6038        8`      STR      r0,[r7,#0]
        0x000024e6:    88b0        ..      LDRH     r0,[r6,#4]
        0x000024e8:    2814        .(      CMP      r0,#0x14
        0x000024ea:    d105        ..      BNE      0x24f8 ; SCD_CMD_SET + 104
        0x000024ec:    f8544035    T.5@    LDR      r4,[r4,r5,LSL #3]
        0x000024f0:    4640        @F      MOV      r0,r8
        0x000024f2:    f000fd0f    ....    BL       cz_atol ; 0x2f14
        0x000024f6:    6020         `      STR      r0,[r4,#0]
        0x000024f8:    e8bd81f0    ....    POP      {r4-r8,pc}
    i.SCD_Rev1Byte
    SCD_Rev1Byte
        0x000024fc:    b570        p.      PUSH     {r4-r6,lr}
        0x000024fe:    4604        .F      MOV      r4,r0
        0x00002500:    6a85        .j      LDR      r5,[r0,#0x28]
        0x00002502:    f9b00048    ..H.    LDRSH    r0,[r0,#0x48]
        0x00002506:    2921        !)      CMP      r1,#0x21
        0x00002508:    d00a        ..      BEQ      0x2520 ; SCD_Rev1Byte + 36
        0x0000250a:    f9342f46    4.F/    LDRSH    r2,[r4,#0x46]!
        0x0000250e:    eb020282    ....    ADD      r2,r2,r2,LSL #2
        0x00002512:    eb0502c2    ....    ADD      r2,r5,r2,LSL #3
        0x00002516:    4402        .D      ADD      r2,r2,r0
        0x00002518:    1c40        @.      ADDS     r0,r0,#1
        0x0000251a:    8060        `.      STRH     r0,[r4,#2]
        0x0000251c:    7011        .p      STRB     r1,[r2,#0]
        0x0000251e:    bd70        p.      POP      {r4-r6,pc}
        0x00002520:    2800        .(      CMP      r0,#0
        0x00002522:    ddfc        ..      BLE      0x251e ; SCD_Rev1Byte + 34
        0x00002524:    2101        .!      MOVS     r1,#1
        0x00002526:    2000        .       MOVS     r0,#0
        0x00002528:    e008        ..      B        0x253c ; SCD_Rev1Byte + 64
        0x0000252a:    5c2a        *\      LDRB     r2,[r5,r0]
        0x0000252c:    182b        +.      ADDS     r3,r5,r0
        0x0000252e:    f8933028    ..(0    LDRB     r3,[r3,#0x28]
        0x00002532:    429a        .B      CMP      r2,r3
        0x00002534:    d000        ..      BEQ      0x2538 ; SCD_Rev1Byte + 60
        0x00002536:    2100        .!      MOVS     r1,#0
        0x00002538:    1c40        @.      ADDS     r0,r0,#1
        0x0000253a:    b200        ..      SXTH     r0,r0
        0x0000253c:    f9b42048    ..H     LDRSH    r2,[r4,#0x48]
        0x00002540:    4282        .B      CMP      r2,r0
        0x00002542:    dcf2        ..      BGT      0x252a ; SCD_Rev1Byte + 46
        0x00002544:    2600        .&      MOVS     r6,#0
        0x00002546:    b151        Q.      CBZ      r1,0x255e ; SCD_Rev1Byte + 98
        0x00002548:    f9b40048    ..H.    LDRSH    r0,[r4,#0x48]
        0x0000254c:    542e        .T      STRB     r6,[r5,r0]
        0x0000254e:    4620         F      MOV      r0,r4
        0x00002550:    f000f812    ....    BL       SCD_cmd_handle ; 0x2578
        0x00002554:    f8a46046    ..F`    STRH     r6,[r4,#0x46]
        0x00002558:    f8856028    ..(`    STRB     r6,[r5,#0x28]
        0x0000255c:    e008        ..      B        0x2570 ; SCD_Rev1Byte + 116
        0x0000255e:    f8b40046    ..F.    LDRH     r0,[r4,#0x46]
        0x00002562:    b110        ..      CBZ      r0,0x256a ; SCD_Rev1Byte + 110
        0x00002564:    f8a46046    ..F`    STRH     r6,[r4,#0x46]
        0x00002568:    e002        ..      B        0x2570 ; SCD_Rev1Byte + 116
        0x0000256a:    2001        .       MOVS     r0,#1
        0x0000256c:    f8a40046    ..F.    STRH     r0,[r4,#0x46]
        0x00002570:    f8a46048    ..H`    STRH     r6,[r4,#0x48]
        0x00002574:    bd70        p.      POP      {r4-r6,pc}
        0x00002576:    0000        ..      MOVS     r0,r0
    i.SCD_cmd_handle
    SCD_cmd_handle
        0x00002578:    e92d0ff0    -...    PUSH     {r4-r11}
        0x0000257c:    4681        .F      MOV      r9,r0
        0x0000257e:    6a80        .j      LDR      r0,[r0,#0x28]
        0x00002580:    2200        ."      MOVS     r2,#0
        0x00002582:    4935        5I      LDR      r1,[pc,#212] ; [0x2658] = 0x613c
        0x00002584:    e004        ..      B        0x2590 ; SCD_cmd_handle + 24
        0x00002586:    1c52        R.      ADDS     r2,r2,#1
        0x00002588:    b212        ..      SXTH     r2,r2
        0x0000258a:    5c83        .\      LDRB     r3,[r0,r2]
        0x0000258c:    2b00        .+      CMP      r3,#0
        0x0000258e:    d05f        _.      BEQ      0x2650 ; SCD_cmd_handle + 216
        0x00002590:    5c83        .\      LDRB     r3,[r0,r2]
        0x00002592:    f8113023    ..#0    LDRB     r3,[r1,r3,LSL #2]
        0x00002596:    075b        [.      LSLS     r3,r3,#29
        0x00002598:    d0f5        ..      BEQ      0x2586 ; SCD_cmd_handle + 14
        0x0000259a:    5c83        .\      LDRB     r3,[r0,r2]
        0x0000259c:    f8113023    ..#0    LDRB     r3,[r1,r3,LSL #2]
        0x000025a0:    079b        ..      LSLS     r3,r3,#30
        0x000025a2:    d055        U.      BEQ      0x2650 ; SCD_cmd_handle + 216
        0x000025a4:    2400        .$      MOVS     r4,#0
        0x000025a6:    468a        .F      MOV      r10,r1
        0x000025a8:    e001        ..      B        0x25ae ; SCD_cmd_handle + 54
        0x000025aa:    1c64        d.      ADDS     r4,r4,#1
        0x000025ac:    b224        $.      SXTH     r4,r4
        0x000025ae:    18a1        ..      ADDS     r1,r4,r2
        0x000025b0:    5c43        C\      LDRB     r3,[r0,r1]
        0x000025b2:    f81a1023    ..#.    LDRB     r1,[r10,r3,LSL #2]
        0x000025b6:    0789        ..      LSLS     r1,r1,#30
        0x000025b8:    d1f7        ..      BNE      0x25aa ; SCD_cmd_handle + 50
        0x000025ba:    1e4f        O.      SUBS     r7,r1,#1
        0x000025bc:    f8df809c    ....    LDR      r8,[pc,#156] ; [0x265c] = 0x200000c8
        0x000025c0:    2300        .#      MOVS     r3,#0
        0x000025c2:    2501        .%      MOVS     r5,#1
        0x000025c4:    2100        .!      MOVS     r1,#0
        0x000025c6:    e00a        ..      B        0x25de ; SCD_cmd_handle + 102
        0x000025c8:    188e        ..      ADDS     r6,r1,r2
        0x000025ca:    5d86        .]      LDRB     r6,[r0,r6]
        0x000025cc:    f858c023    X.#.    LDR      r12,[r8,r3,LSL #2]
        0x000025d0:    f81cc001    ....    LDRB     r12,[r12,r1]
        0x000025d4:    4566        fE      CMP      r6,r12
        0x000025d6:    d000        ..      BEQ      0x25da ; SCD_cmd_handle + 98
        0x000025d8:    2500        .%      MOVS     r5,#0
        0x000025da:    1c49        I.      ADDS     r1,r1,#1
        0x000025dc:    b209        ..      SXTH     r1,r1
        0x000025de:    42a1        .B      CMP      r1,r4
        0x000025e0:    dbf2        ..      BLT      0x25c8 ; SCD_cmd_handle + 80
        0x000025e2:    b10d        ..      CBZ      r5,0x25e8 ; SCD_cmd_handle + 112
        0x000025e4:    461f        .F      MOV      r7,r3
        0x000025e6:    e003        ..      B        0x25f0 ; SCD_cmd_handle + 120
        0x000025e8:    1c5b        [.      ADDS     r3,r3,#1
        0x000025ea:    b21b        ..      SXTH     r3,r3
        0x000025ec:    2b05        .+      CMP      r3,#5
        0x000025ee:    dbe8        ..      BLT      0x25c2 ; SCD_cmd_handle + 74
        0x000025f0:    18a1        ..      ADDS     r1,r4,r2
        0x000025f2:    b209        ..      SXTH     r1,r1
        0x000025f4:    5c42        B\      LDRB     r2,[r0,r1]
        0x000025f6:    4653        SF      MOV      r3,r10
        0x000025f8:    f81a2022    .."     LDRB     r2,[r10,r2,LSL #2]
        0x000025fc:    0752        R.      LSLS     r2,r2,#29
        0x000025fe:    d527        '.      BPL      0x2650 ; SCD_cmd_handle + 216
        0x00002600:    2200        ."      MOVS     r2,#0
        0x00002602:    f06f042f    o./.    MVN      r4,#0x2f
        0x00002606:    e008        ..      B        0x261a ; SCD_cmd_handle + 162
        0x00002608:    5c45        E\      LDRB     r5,[r0,r1]
        0x0000260a:    eb020282    ....    ADD      r2,r2,r2,LSL #2
        0x0000260e:    eb040242    ..B.    ADD      r2,r4,r2,LSL #1
        0x00002612:    442a        *D      ADD      r2,r2,r5
        0x00002614:    1c49        I.      ADDS     r1,r1,#1
        0x00002616:    b212        ..      SXTH     r2,r2
        0x00002618:    b209        ..      SXTH     r1,r1
        0x0000261a:    5c45        E\      LDRB     r5,[r0,r1]
        0x0000261c:    f8135025    ..%P    LDRB     r5,[r3,r5,LSL #2]
        0x00002620:    076d        m.      LSLS     r5,r5,#29
        0x00002622:    d4f1        ..      BMI      0x2608 ; SCD_cmd_handle + 144
        0x00002624:    5c43        C\      LDRB     r3,[r0,r1]
        0x00002626:    2b23        #+      CMP      r3,#0x23
        0x00002628:    d112        ..      BNE      0x2650 ; SCD_cmd_handle + 216
        0x0000262a:    1c49        I.      ADDS     r1,r1,#1
        0x0000262c:    b209        ..      SXTH     r1,r1
        0x0000262e:    2f05        ./      CMP      r7,#5
        0x00002630:    d20e        ..      BCS      0x2650 ; SCD_cmd_handle + 216
        0x00002632:    f9b93044    ..D0    LDRSH    r3,[r9,#0x44]
        0x00002636:    4293        .B      CMP      r3,r2
        0x00002638:    dd0a        ..      BLE      0x2650 ; SCD_cmd_handle + 216
        0x0000263a:    2a00        .*      CMP      r2,#0
        0x0000263c:    db08        ..      BLT      0x2650 ; SCD_cmd_handle + 216
        0x0000263e:    4401        .D      ADD      r1,r1,r0
        0x00002640:    4806        .H      LDR      r0,[pc,#24] ; [0x265c] = 0x200000c8
        0x00002642:    3014        .0      ADDS     r0,r0,#0x14
        0x00002644:    f8503027    P.'0    LDR      r3,[r0,r7,LSL #2]
        0x00002648:    4648        HF      MOV      r0,r9
        0x0000264a:    e8bd0ff0    ....    POP      {r4-r11}
        0x0000264e:    4718        .G      BX       r3
        0x00002650:    e8bd0ff0    ....    POP      {r4-r11}
        0x00002654:    4770        pG      BX       lr
    $d
        0x00002656:    0000        ..      DCW    0
        0x00002658:    0000613c    <a..    DCD    24892
        0x0000265c:    200000c8    ...     DCD    536871112
    $t
    i.SCO_DEBUG
    SCO_DEBUG
        0x00002660:    f8b00050    ..P.    LDRH     r0,[r0,#0x50]
        0x00002664:    2802        .(      CMP      r0,#2
        0x00002666:    d002        ..      BEQ      0x266e ; SCO_DEBUG + 14
        0x00002668:    f44f7080    O..p    MOV      r0,#0x100
        0x0000266c:    4770        pG      BX       lr
        0x0000266e:    2000        .       MOVS     r0,#0
        0x00002670:    4770        pG      BX       lr
        0x00002672:    0000        ..      MOVS     r0,r0
    i.SCO_DUMP
    SCO_DUMP
        0x00002674:    e92d41f0    -..A    PUSH     {r4-r8,lr}
        0x00002678:    4604        .F      MOV      r4,r0
        0x0000267a:    f9b46058    ..X`    LDRSH    r6,[r4,#0x58]
        0x0000267e:    f9b4705c    ..\p    LDRSH    r7,[r4,#0x5c]
        0x00002682:    21cd        .!      MOVS     r1,#0xcd
        0x00002684:    23cc        .#      MOVS     r3,#0xcc
        0x00002686:    4d5f        _M      LDR      r5,[pc,#380] ; [0x2804] = 0x200000c4
        0x00002688:    2202        ."      MOVS     r2,#2
        0x0000268a:    2000        .       MOVS     r0,#0
        0x0000268c:    42be        .B      CMP      r6,r7
        0x0000268e:    db23        #.      BLT      0x26d8 ; SCO_DUMP + 100
        0x00002690:    f8b46056    ..V`    LDRH     r6,[r4,#0x56]
        0x00002694:    b94e        N.      CBNZ     r6,0x26aa ; SCO_DUMP + 54
        0x00002696:    6b66        fk      LDR      r6,[r4,#0x34]
        0x00002698:    7031        1p      STRB     r1,[r6,#0]
        0x0000269a:    6b61        ak      LDR      r1,[r4,#0x34]
        0x0000269c:    704b        Kp      STRB     r3,[r1,#1]
        0x0000269e:    6b63        ck      LDR      r3,[r4,#0x34]
        0x000026a0:    210c        .!      MOVS     r1,#0xc
        0x000026a2:    7099        .p      STRB     r1,[r3,#2]
        0x000026a4:    6b63        ck      LDR      r3,[r4,#0x34]
        0x000026a6:    2140        @!      MOVS     r1,#0x40
        0x000026a8:    70d9        .p      STRB     r1,[r3,#3]
        0x000026aa:    f9b41056    ..V.    LDRSH    r1,[r4,#0x56]
        0x000026ae:    2908        .)      CMP      r1,#8
        0x000026b0:    db35        5.      BLT      0x271e ; SCO_DUMP + 170
        0x000026b2:    f8a40056    ..V.    STRH     r0,[r4,#0x56]
        0x000026b6:    f8a40058    ..X.    STRH     r0,[r4,#0x58]
        0x000026ba:    8068        h.      STRH     r0,[r5,#2]
        0x000026bc:    f8a4205e    ..^     STRH     r2,[r4,#0x5e]
        0x000026c0:    f8a40060    ..`.    STRH     r0,[r4,#0x60]
        0x000026c4:    f8b41050    ..P.    LDRH     r1,[r4,#0x50]
        0x000026c8:    2903        .)      CMP      r1,#3
        0x000026ca:    d101        ..      BNE      0x26d0 ; SCO_DUMP + 92
        0x000026cc:    f8a40050    ..P.    STRH     r0,[r4,#0x50]
        0x000026d0:    f44f7080    O..p    MOV      r0,#0x100
        0x000026d4:    e8bd81f0    ....    POP      {r4-r8,pc}
        0x000026d8:    f9b4605e    ..^`    LDRSH    r6,[r4,#0x5e]
        0x000026dc:    f24037e9    @..7    MOV      r7,#0x3e9
        0x000026e0:    42be        .B      CMP      r6,r7
        0x000026e2:    dd2e        ..      BLE      0x2742 ; SCO_DUMP + 206
        0x000026e4:    f8b46056    ..V`    LDRH     r6,[r4,#0x56]
        0x000026e8:    b9ae        ..      CBNZ     r6,0x2716 ; SCO_DUMP + 162
        0x000026ea:    f8b46060    ..``    LDRH     r6,[r4,#0x60]
        0x000026ee:    b156        V.      CBZ      r6,0x2706 ; SCO_DUMP + 146
        0x000026f0:    6b66        fk      LDR      r6,[r4,#0x34]
        0x000026f2:    7031        1p      STRB     r1,[r6,#0]
        0x000026f4:    6b61        ak      LDR      r1,[r4,#0x34]
        0x000026f6:    704b        Kp      STRB     r3,[r1,#1]
        0x000026f8:    6b63        ck      LDR      r3,[r4,#0x34]
        0x000026fa:    218c        .!      MOVS     r1,#0x8c
        0x000026fc:    7099        .p      STRB     r1,[r3,#2]
        0x000026fe:    6b63        ck      LDR      r3,[r4,#0x34]
        0x00002700:    213f        ?!      MOVS     r1,#0x3f
        0x00002702:    70d9        .p      STRB     r1,[r3,#3]
        0x00002704:    e007        ..      B        0x2716 ; SCO_DUMP + 162
        0x00002706:    6b61        ak      LDR      r1,[r4,#0x34]
        0x00002708:    7008        .p      STRB     r0,[r1,#0]
        0x0000270a:    6b61        ak      LDR      r1,[r4,#0x34]
        0x0000270c:    7048        Hp      STRB     r0,[r1,#1]
        0x0000270e:    6b61        ak      LDR      r1,[r4,#0x34]
        0x00002710:    7088        .p      STRB     r0,[r1,#2]
        0x00002712:    6b61        ak      LDR      r1,[r4,#0x34]
        0x00002714:    70c8        .p      STRB     r0,[r1,#3]
        0x00002716:    f9b41056    ..V.    LDRSH    r1,[r4,#0x56]
        0x0000271a:    2908        .)      CMP      r1,#8
        0x0000271c:    da08        ..      BGE      0x2730 ; SCO_DUMP + 188
        0x0000271e:    f9b40056    ..V.    LDRSH    r0,[r4,#0x56]
        0x00002722:    f8541f34    T.4.    LDR      r1,[r4,#0x34]!
        0x00002726:    4401        .D      ADD      r1,r1,r0
        0x00002728:    1c40        @.      ADDS     r0,r0,#1
        0x0000272a:    8460        `.      STRH     r0,[r4,#0x22]
        0x0000272c:    7808        .x      LDRB     r0,[r1,#0]
        0x0000272e:    e7d1        ..      B        0x26d4 ; SCO_DUMP + 96
        0x00002730:    f8a40056    ..V.    STRH     r0,[r4,#0x56]
        0x00002734:    8068        h.      STRH     r0,[r5,#2]
        0x00002736:    f8a4205e    ..^     STRH     r2,[r4,#0x5e]
        0x0000273a:    2001        .       MOVS     r0,#1
        0x0000273c:    f8a40060    ..`.    STRH     r0,[r4,#0x60]
        0x00002740:    e79b        ..      B        0x267a ; SCO_DUMP + 6
        0x00002742:    f9b41056    ..V.    LDRSH    r1,[r4,#0x56]
        0x00002746:    2904        .)      CMP      r1,#4
        0x00002748:    da49        I.      BGE      0x27de ; SCO_DUMP + 362
        0x0000274a:    f8b40056    ..V.    LDRH     r0,[r4,#0x56]
        0x0000274e:    bb38        8.      CBNZ     r0,0x27a0 ; SCO_DUMP + 300
        0x00002750:    f9b4105a    ..Z.    LDRSH    r1,[r4,#0x5a]
        0x00002754:    6be0        .k      LDR      r0,[r4,#0x3c]
        0x00002756:    2204        ."      MOVS     r2,#4
        0x00002758:    eb0201c1    ....    ADD      r1,r2,r1,LSL #3
        0x0000275c:    f9b4205a    ..Z     LDRSH    r2,[r4,#0x5a]
        0x00002760:    5c41        A\      LDRB     r1,[r0,r1]
        0x00002762:    f8500032    P.2.    LDR      r0,[r0,r2,LSL #3]
        0x00002766:    2902        .)      CMP      r1,#2
        0x00002768:    d00e        ..      BEQ      0x2788 ; SCO_DUMP + 276
        0x0000276a:    2904        .)      CMP      r1,#4
        0x0000276c:    d011        ..      BEQ      0x2792 ; SCO_DUMP + 286
        0x0000276e:    2914        .)      CMP      r1,#0x14
        0x00002770:    d026        &.      BEQ      0x27c0 ; SCO_DUMP + 332
        0x00002772:    2924        $)      CMP      r1,#0x24
        0x00002774:    d029        ).      BEQ      0x27ca ; SCO_DUMP + 342
        0x00002776:    2932        2)      CMP      r1,#0x32
        0x00002778:    d00f        ..      BEQ      0x279a ; SCO_DUMP + 294
        0x0000277a:    f9b41058    ..X.    LDRSH    r1,[r4,#0x58]
        0x0000277e:    f9300011    0...    LDRSH    r0,[r0,r1,LSL #1]
        0x00002782:    f002ffff    ....    BL       __aeabi_i2f ; 0x5784
        0x00002786:    e00a        ..      B        0x279e ; SCO_DUMP + 298
        0x00002788:    f9b41058    ..X.    LDRSH    r1,[r4,#0x58]
        0x0000278c:    f8300011    0...    LDRH     r0,[r0,r1,LSL #1]
        0x00002790:    e003        ..      B        0x279a ; SCO_DUMP + 294
        0x00002792:    f9b41058    ..X.    LDRSH    r1,[r4,#0x58]
        0x00002796:    f8500021    P.!.    LDR      r0,[r0,r1,LSL #2]
        0x0000279a:    f003f80b    ....    BL       __aeabi_ui2f ; 0x57b4
        0x0000279e:    6420         d      STR      r0,[r4,#0x40]
        0x000027a0:    f1040040    ..@.    ADD      r0,r4,#0x40
        0x000027a4:    f9341f56    4.V.    LDRSH    r1,[r4,#0x56]!
        0x000027a8:    f0210101    !...    BIC      r1,r1,#1
        0x000027ac:    4401        .D      ADD      r1,r1,r0
        0x000027ae:    8820         .      LDRH     r0,[r4,#0]
        0x000027b0:    07c2        ..      LSLS     r2,r0,#31
        0x000027b2:    f1000001    ....    ADD      r0,r0,#1
        0x000027b6:    8020         .      STRH     r0,[r4,#0]
        0x000027b8:    8808        ..      LDRH     r0,[r1,#0]
        0x000027ba:    d00b        ..      BEQ      0x27d4 ; SCO_DUMP + 352
        0x000027bc:    0a00        ..      LSRS     r0,r0,#8
        0x000027be:    e789        ..      B        0x26d4 ; SCO_DUMP + 96
        0x000027c0:    f9b41058    ..X.    LDRSH    r1,[r4,#0x58]
        0x000027c4:    f8500021    P.!.    LDR      r0,[r0,r1,LSL #2]
        0x000027c8:    e7db        ..      B        0x2782 ; SCO_DUMP + 270
        0x000027ca:    f9b41058    ..X.    LDRSH    r1,[r4,#0x58]
        0x000027ce:    f8500021    P.!.    LDR      r0,[r0,r1,LSL #2]
        0x000027d2:    e7e4        ..      B        0x279e ; SCO_DUMP + 298
        0x000027d4:    8869        i.      LDRH     r1,[r5,#2]
        0x000027d6:    4401        .D      ADD      r1,r1,r0
        0x000027d8:    8069        i.      STRH     r1,[r5,#2]
        0x000027da:    b2c0        ..      UXTB     r0,r0
        0x000027dc:    e77a        z.      B        0x26d4 ; SCO_DUMP + 96
        0x000027de:    f8a40056    ..V.    STRH     r0,[r4,#0x56]
        0x000027e2:    f8b40058    ..X.    LDRH     r0,[r4,#0x58]
        0x000027e6:    1c40        @.      ADDS     r0,r0,#1
        0x000027e8:    f8a40058    ..X.    STRH     r0,[r4,#0x58]
        0x000027ec:    f8b4005e    ..^.    LDRH     r0,[r4,#0x5e]
        0x000027f0:    1c40        @.      ADDS     r0,r0,#1
        0x000027f2:    f8a4005e    ..^.    STRH     r0,[r4,#0x5e]
        0x000027f6:    6b61        ak      LDR      r1,[r4,#0x34]
        0x000027f8:    8868        h.      LDRH     r0,[r5,#2]
        0x000027fa:    7108        .q      STRB     r0,[r1,#4]
        0x000027fc:    6b61        ak      LDR      r1,[r4,#0x34]
        0x000027fe:    0a00        ..      LSRS     r0,r0,#8
        0x00002800:    7148        Hq      STRB     r0,[r1,#5]
        0x00002802:    e73a        :.      B        0x267a ; SCO_DUMP + 6
    $d
        0x00002804:    200000c4    ...     DCD    536871108
    $t
    i.SCO_PRINT
    SCO_PRINT
        0x00002808:    f8b01066    ..f.    LDRH     r1,[r0,#0x66]
        0x0000280c:    2200        ."      MOVS     r2,#0
        0x0000280e:    2904        .)      CMP      r1,#4
        0x00002810:    d101        ..      BNE      0x2816 ; SCO_PRINT + 14
        0x00002812:    f8a02066    ..f     STRH     r2,[r0,#0x66]
        0x00002816:    f8b01066    ..f.    LDRH     r1,[r0,#0x66]
        0x0000281a:    b9f9        ..      CBNZ     r1,0x285c ; SCO_PRINT + 84
        0x0000281c:    f9b01064    ..d.    LDRSH    r1,[r0,#0x64]
        0x00002820:    f9b03062    ..b0    LDRSH    r3,[r0,#0x62]
        0x00002824:    4299        .B      CMP      r1,r3
        0x00002826:    da1a        ..      BGE      0x285e ; SCO_PRINT + 86
        0x00002828:    f9b01064    ..d.    LDRSH    r1,[r0,#0x64]
        0x0000282c:    6ac3        .j      LDR      r3,[r0,#0x2c]
        0x0000282e:    440b        .D      ADD      r3,r3,r1
        0x00002830:    1c49        I.      ADDS     r1,r1,#1
        0x00002832:    f8a01064    ..d.    STRH     r1,[r0,#0x64]
        0x00002836:    7819        .x      LDRB     r1,[r3,#0]
        0x00002838:    6b83        .k      LDR      r3,[r0,#0x38]
        0x0000283a:    7019        .p      STRB     r1,[r3,#0]
        0x0000283c:    f9b01064    ..d.    LDRSH    r1,[r0,#0x64]
        0x00002840:    f9b03062    ..b0    LDRSH    r3,[r0,#0x62]
        0x00002844:    4299        .B      CMP      r1,r3
        0x00002846:    da11        ..      BGE      0x286c ; SCO_PRINT + 100
        0x00002848:    f9b01064    ..d.    LDRSH    r1,[r0,#0x64]
        0x0000284c:    6ac2        .j      LDR      r2,[r0,#0x2c]
        0x0000284e:    440a        .D      ADD      r2,r2,r1
        0x00002850:    1c49        I.      ADDS     r1,r1,#1
        0x00002852:    f8a01064    ..d.    STRH     r1,[r0,#0x64]
        0x00002856:    7811        .x      LDRB     r1,[r2,#0]
        0x00002858:    6b82        .k      LDR      r2,[r0,#0x38]
        0x0000285a:    7051        Qp      STRB     r1,[r2,#1]
        0x0000285c:    e008        ..      B        0x2870 ; SCO_PRINT + 104
        0x0000285e:    f8a02064    ..d     STRH     r2,[r0,#0x64]
        0x00002862:    f8a02062    ..b     STRH     r2,[r0,#0x62]
        0x00002866:    f44f7080    O..p    MOV      r0,#0x100
        0x0000286a:    4770        pG      BX       lr
        0x0000286c:    6b81        .k      LDR      r1,[r0,#0x38]
        0x0000286e:    704a        Jp      STRB     r2,[r1,#1]
        0x00002870:    f9b01066    ..f.    LDRSH    r1,[r0,#0x66]
        0x00002874:    f8502f38    P.8/    LDR      r2,[r0,#0x38]!
        0x00002878:    440a        .D      ADD      r2,r2,r1
        0x0000287a:    1c49        I.      ADDS     r1,r1,#1
        0x0000287c:    85c1        ..      STRH     r1,[r0,#0x2e]
        0x0000287e:    7810        .x      LDRB     r0,[r2,#0]
        0x00002880:    4770        pG      BX       lr
        0x00002882:    0000        ..      MOVS     r0,r0
    i.SCO_VAR
    SCO_VAR
        0x00002884:    b5f8        ..      PUSH     {r3-r7,lr}
        0x00002886:    4604        .F      MOV      r4,r0
        0x00002888:    2000        .       MOVS     r0,#0
        0x0000288a:    9000        ..      STR      r0,[sp,#0]
        0x0000288c:    f8b41054    ..T.    LDRH     r1,[r4,#0x54]
        0x00002890:    4e44        DN      LDR      r6,[pc,#272] ; [0x29a4] = 0x200000c4
        0x00002892:    b191        ..      CBZ      r1,0x28ba ; SCO_VAR + 54
        0x00002894:    f9b41054    ..T.    LDRSH    r1,[r4,#0x54]
        0x00002898:    f9b42044    ..D     LDRSH    r2,[r4,#0x44]
        0x0000289c:    4291        .B      CMP      r1,r2
        0x0000289e:    f9b41052    ..R.    LDRSH    r1,[r4,#0x52]
        0x000028a2:    dd2b        +.      BLE      0x28fc ; SCO_VAR + 120
        0x000028a4:    2904        .)      CMP      r1,#4
        0x000028a6:    da1c        ..      BGE      0x28e2 ; SCO_VAR + 94
        0x000028a8:    f9b40052    ..R.    LDRSH    r0,[r4,#0x52]
        0x000028ac:    f8541f30    T.0.    LDR      r1,[r4,#0x30]!
        0x000028b0:    4401        .D      ADD      r1,r1,r0
        0x000028b2:    1c40        @.      ADDS     r0,r0,#1
        0x000028b4:    8460        `.      STRH     r0,[r4,#0x22]
        0x000028b6:    7808        .x      LDRB     r0,[r1,#0]
        0x000028b8:    bdf8        ..      POP      {r3-r7,pc}
        0x000028ba:    f9b41052    ..R.    LDRSH    r1,[r4,#0x52]
        0x000028be:    2900        .)      CMP      r1,#0
        0x000028c0:    da06        ..      BGE      0x28d0 ; SCO_VAR + 76
        0x000028c2:    f9340f52    4.R.    LDRSH    r0,[r4,#0x52]!
        0x000028c6:    eb0d0100    ....    ADD      r1,sp,r0
        0x000028ca:    1c40        @.      ADDS     r0,r0,#1
        0x000028cc:    8020         .      STRH     r0,[r4,#0]
        0x000028ce:    e7f2        ..      B        0x28b6 ; SCO_VAR + 50
        0x000028d0:    f8a40052    ..R.    STRH     r0,[r4,#0x52]
        0x000028d4:    f8b41054    ..T.    LDRH     r1,[r4,#0x54]
        0x000028d8:    1c49        I.      ADDS     r1,r1,#1
        0x000028da:    f8a41054    ..T.    STRH     r1,[r4,#0x54]
        0x000028de:    8030        0.      STRH     r0,[r6,#0]
        0x000028e0:    e05b        [.      B        0x299a ; SCO_VAR + 278
        0x000028e2:    f8a40052    ..R.    STRH     r0,[r4,#0x52]
        0x000028e6:    f8a40054    ..T.    STRH     r0,[r4,#0x54]
        0x000028ea:    f8b41050    ..P.    LDRH     r1,[r4,#0x50]
        0x000028ee:    2901        .)      CMP      r1,#1
        0x000028f0:    d101        ..      BNE      0x28f6 ; SCO_VAR + 114
        0x000028f2:    f8a40050    ..P.    STRH     r0,[r4,#0x50]
        0x000028f6:    f44f7080    O..p    MOV      r0,#0x100
        0x000028fa:    bdf8        ..      POP      {r3-r7,pc}
        0x000028fc:    4a29        )J      LDR      r2,[pc,#164] ; [0x29a4] = 0x200000c4
        0x000028fe:    2904        .)      CMP      r1,#4
        0x00002900:    8815        ..      LDRH     r5,[r2,#0]
        0x00002902:    da3e        >.      BGE      0x2982 ; SCO_VAR + 254
        0x00002904:    f8b40052    ..R.    LDRH     r0,[r4,#0x52]
        0x00002908:    bb18        ..      CBNZ     r0,0x2952 ; SCO_VAR + 206
        0x0000290a:    f9b41054    ..T.    LDRSH    r1,[r4,#0x54]
        0x0000290e:    6be0        .k      LDR      r0,[r4,#0x3c]
        0x00002910:    f06f0203    o...    MVN      r2,#3
        0x00002914:    eb0201c1    ....    ADD      r1,r2,r1,LSL #3
        0x00002918:    f9b42054    ..T     LDRSH    r2,[r4,#0x54]
        0x0000291c:    5c41        A\      LDRB     r1,[r0,r1]
        0x0000291e:    f06f0307    o...    MVN      r3,#7
        0x00002922:    eb0302c2    ....    ADD      r2,r3,r2,LSL #3
        0x00002926:    2902        .)      CMP      r1,#2
        0x00002928:    5880        .X      LDR      r0,[r0,r2]
        0x0000292a:    d00c        ..      BEQ      0x2946 ; SCO_VAR + 194
        0x0000292c:    2904        .)      CMP      r1,#4
        0x0000292e:    d00c        ..      BEQ      0x294a ; SCO_VAR + 198
        0x00002930:    2914        .)      CMP      r1,#0x14
        0x00002932:    d01e        ..      BEQ      0x2972 ; SCO_VAR + 238
        0x00002934:    2924        $)      CMP      r1,#0x24
        0x00002936:    d01e        ..      BEQ      0x2976 ; SCO_VAR + 242
        0x00002938:    2932        2)      CMP      r1,#0x32
        0x0000293a:    d007        ..      BEQ      0x294c ; SCO_VAR + 200
        0x0000293c:    f9b00000    ....    LDRSH    r0,[r0,#0]
        0x00002940:    f002ff20    .. .    BL       __aeabi_i2f ; 0x5784
        0x00002944:    e004        ..      B        0x2950 ; SCO_VAR + 204
        0x00002946:    8800        ..      LDRH     r0,[r0,#0]
        0x00002948:    e000        ..      B        0x294c ; SCO_VAR + 200
        0x0000294a:    6800        .h      LDR      r0,[r0,#0]
        0x0000294c:    f002ff32    ..2.    BL       __aeabi_ui2f ; 0x57b4
        0x00002950:    6420         d      STR      r0,[r4,#0x40]
        0x00002952:    f1040040    ..@.    ADD      r0,r4,#0x40
        0x00002956:    f9341f52    4.R.    LDRSH    r1,[r4,#0x52]!
        0x0000295a:    f0210101    !...    BIC      r1,r1,#1
        0x0000295e:    4401        .D      ADD      r1,r1,r0
        0x00002960:    8820         .      LDRH     r0,[r4,#0]
        0x00002962:    07c2        ..      LSLS     r2,r0,#31
        0x00002964:    f1000001    ....    ADD      r0,r0,#1
        0x00002968:    8020         .      STRH     r0,[r4,#0]
        0x0000296a:    8808        ..      LDRH     r0,[r1,#0]
        0x0000296c:    d005        ..      BEQ      0x297a ; SCO_VAR + 246
        0x0000296e:    0a00        ..      LSRS     r0,r0,#8
        0x00002970:    bdf8        ..      POP      {r3-r7,pc}
        0x00002972:    6800        .h      LDR      r0,[r0,#0]
        0x00002974:    e7e4        ..      B        0x2940 ; SCO_VAR + 188
        0x00002976:    6800        .h      LDR      r0,[r0,#0]
        0x00002978:    e7ea        ..      B        0x2950 ; SCO_VAR + 204
        0x0000297a:    1941        A.      ADDS     r1,r0,r5
        0x0000297c:    8031        1.      STRH     r1,[r6,#0]
        0x0000297e:    b2c0        ..      UXTB     r0,r0
        0x00002980:    bdf8        ..      POP      {r3-r7,pc}
        0x00002982:    f8a40052    ..R.    STRH     r0,[r4,#0x52]
        0x00002986:    f8b40054    ..T.    LDRH     r0,[r4,#0x54]
        0x0000298a:    1c40        @.      ADDS     r0,r0,#1
        0x0000298c:    f8a40054    ..T.    STRH     r0,[r4,#0x54]
        0x00002990:    6b20         k      LDR      r0,[r4,#0x30]
        0x00002992:    7005        .p      STRB     r5,[r0,#0]
        0x00002994:    6b21        !k      LDR      r1,[r4,#0x30]
        0x00002996:    0a28        (.      LSRS     r0,r5,#8
        0x00002998:    7048        Hp      STRB     r0,[r1,#1]
        0x0000299a:    4620         F      MOV      r0,r4
        0x0000299c:    f7ffff72    ..r.    BL       SCO_VAR ; 0x2884
        0x000029a0:    bdf8        ..      POP      {r3-r7,pc}
    $d
        0x000029a2:    0000        ..      DCW    0
        0x000029a4:    200000c4    ...     DCD    536871108
    $t
    i.SCO_get
    SCO_get
        0x000029a8:    b53e        >.      PUSH     {r1-r5,lr}
        0x000029aa:    4604        .F      MOV      r4,r0
        0x000029ac:    483d        =H      LDR      r0,[pc,#244] ; [0x2aa4] = 0x6134
        0x000029ae:    2100        .!      MOVS     r1,#0
        0x000029b0:    9102        ..      STR      r1,[sp,#8]
        0x000029b2:    e9d02000    ...     LDRD     r2,r0,[r0,#0]
        0x000029b6:    e9cd2000    ...     STRD     r2,r0,[sp,#0]
        0x000029ba:    f8b4004c    ..L.    LDRH     r0,[r4,#0x4c]
        0x000029be:    b1a8        ..      CBZ      r0,0x29ec ; SCO_get + 68
        0x000029c0:    f9b4004c    ..L.    LDRSH    r0,[r4,#0x4c]
        0x000029c4:    eb040040    ..@.    ADD      r0,r4,r0,LSL #1
        0x000029c8:    f9300c02    0...    LDRSH    r0,[r0,#-2]
        0x000029cc:    f9b42044    ..D     LDRSH    r2,[r4,#0x44]
        0x000029d0:    4290        .B      CMP      r0,r2
        0x000029d2:    f9b4004a    ..J.    LDRSH    r0,[r4,#0x4a]
        0x000029d6:    dd17        ..      BLE      0x2a08 ; SCO_get + 96
        0x000029d8:    2804        .(      CMP      r0,#4
        0x000029da:    da0f        ..      BGE      0x29fc ; SCO_get + 84
        0x000029dc:    f9340f4a    4.J.    LDRSH    r0,[r4,#0x4a]!
        0x000029e0:    4669        iF      MOV      r1,sp
        0x000029e2:    4401        .D      ADD      r1,r1,r0
        0x000029e4:    1c40        @.      ADDS     r0,r0,#1
        0x000029e6:    8020         .      STRH     r0,[r4,#0]
        0x000029e8:    7808        .x      LDRB     r0,[r1,#0]
        0x000029ea:    bd3e        >.      POP      {r1-r5,pc}
        0x000029ec:    f9b4004a    ..J.    LDRSH    r0,[r4,#0x4a]
        0x000029f0:    2800        .(      CMP      r0,#0
        0x000029f2:    da4c        L.      BGE      0x2a8e ; SCO_get + 230
        0x000029f4:    f9340f4a    4.J.    LDRSH    r0,[r4,#0x4a]!
        0x000029f8:    a902        ..      ADD      r1,sp,#8
        0x000029fa:    e7f2        ..      B        0x29e2 ; SCO_get + 58
        0x000029fc:    f8241f4a    $.J.    STRH     r1,[r4,#0x4a]!
        0x00002a00:    8061        a.      STRH     r1,[r4,#2]
        0x00002a02:    f44f7080    O..p    MOV      r0,#0x100
        0x00002a06:    bd3e        >.      POP      {r1-r5,pc}
        0x00002a08:    2804        .(      CMP      r0,#4
        0x00002a0a:    da40        @.      BGE      0x2a8e ; SCO_get + 230
        0x00002a0c:    f8b4004a    ..J.    LDRH     r0,[r4,#0x4a]
        0x00002a10:    bb38        8.      CBNZ     r0,0x2a62 ; SCO_get + 186
        0x00002a12:    f9b4104c    ..L.    LDRSH    r1,[r4,#0x4c]
        0x00002a16:    6be0        .k      LDR      r0,[r4,#0x3c]
        0x00002a18:    eb040141    ..A.    ADD      r1,r4,r1,LSL #1
        0x00002a1c:    f9311c02    1...    LDRSH    r1,[r1,#-2]
        0x00002a20:    2204        ."      MOVS     r2,#4
        0x00002a22:    eb0201c1    ....    ADD      r1,r2,r1,LSL #3
        0x00002a26:    f9b4204c    ..L     LDRSH    r2,[r4,#0x4c]
        0x00002a2a:    5c41        A\      LDRB     r1,[r0,r1]
        0x00002a2c:    eb040242    ..B.    ADD      r2,r4,r2,LSL #1
        0x00002a30:    f9322c02    2..,    LDRSH    r2,[r2,#-2]
        0x00002a34:    2902        .)      CMP      r1,#2
        0x00002a36:    f8500032    P.2.    LDR      r0,[r0,r2,LSL #3]
        0x00002a3a:    d00c        ..      BEQ      0x2a56 ; SCO_get + 174
        0x00002a3c:    2904        .)      CMP      r1,#4
        0x00002a3e:    d00c        ..      BEQ      0x2a5a ; SCO_get + 178
        0x00002a40:    2914        .)      CMP      r1,#0x14
        0x00002a42:    d01e        ..      BEQ      0x2a82 ; SCO_get + 218
        0x00002a44:    2924        $)      CMP      r1,#0x24
        0x00002a46:    d01e        ..      BEQ      0x2a86 ; SCO_get + 222
        0x00002a48:    2932        2)      CMP      r1,#0x32
        0x00002a4a:    d007        ..      BEQ      0x2a5c ; SCO_get + 180
        0x00002a4c:    f9b00000    ....    LDRSH    r0,[r0,#0]
        0x00002a50:    f002fe98    ....    BL       __aeabi_i2f ; 0x5784
        0x00002a54:    e004        ..      B        0x2a60 ; SCO_get + 184
        0x00002a56:    8800        ..      LDRH     r0,[r0,#0]
        0x00002a58:    e000        ..      B        0x2a5c ; SCO_get + 180
        0x00002a5a:    6800        .h      LDR      r0,[r0,#0]
        0x00002a5c:    f002feaa    ....    BL       __aeabi_ui2f ; 0x57b4
        0x00002a60:    6420         d      STR      r0,[r4,#0x40]
        0x00002a62:    f1040040    ..@.    ADD      r0,r4,#0x40
        0x00002a66:    f9341f4a    4.J.    LDRSH    r1,[r4,#0x4a]!
        0x00002a6a:    f0210101    !...    BIC      r1,r1,#1
        0x00002a6e:    4401        .D      ADD      r1,r1,r0
        0x00002a70:    8820         .      LDRH     r0,[r4,#0]
        0x00002a72:    07c2        ..      LSLS     r2,r0,#31
        0x00002a74:    f1000001    ....    ADD      r0,r0,#1
        0x00002a78:    8020         .      STRH     r0,[r4,#0]
        0x00002a7a:    d006        ..      BEQ      0x2a8a ; SCO_get + 226
        0x00002a7c:    8808        ..      LDRH     r0,[r1,#0]
        0x00002a7e:    0a00        ..      LSRS     r0,r0,#8
        0x00002a80:    bd3e        >.      POP      {r1-r5,pc}
        0x00002a82:    6800        .h      LDR      r0,[r0,#0]
        0x00002a84:    e7e4        ..      B        0x2a50 ; SCO_get + 168
        0x00002a86:    6800        .h      LDR      r0,[r0,#0]
        0x00002a88:    e7ea        ..      B        0x2a60 ; SCO_get + 184
        0x00002a8a:    7808        .x      LDRB     r0,[r1,#0]
        0x00002a8c:    bd3e        >.      POP      {r1-r5,pc}
        0x00002a8e:    f8a4104a    ..J.    STRH     r1,[r4,#0x4a]
        0x00002a92:    f8b4004c    ..L.    LDRH     r0,[r4,#0x4c]
        0x00002a96:    1c40        @.      ADDS     r0,r0,#1
        0x00002a98:    f8a4004c    ..L.    STRH     r0,[r4,#0x4c]
        0x00002a9c:    4620         F      MOV      r0,r4
        0x00002a9e:    f7ffff83    ....    BL       SCO_get ; 0x29a8
        0x00002aa2:    bd3e        >.      POP      {r1-r5,pc}
    $d
        0x00002aa4:    00006134    4a..    DCD    24884
    $t
    i.SysTick_Handler
    SysTick_Handler
        0x00002aa8:    b510        ..      PUSH     {r4,lr}
        0x00002aaa:    2080        .       MOVS     r0,#0x80
        0x00002aac:    f3808811    ....    MSR      BASEPRI,r0
        0x00002ab0:    f3bf8f4f    ..O.    DSB      
        0x00002ab4:    f3bf8f6f    ..o.    ISB      
        0x00002ab8:    f002fa30    ..0.    BL       xTaskIncrementTick ; 0x4f1c
        0x00002abc:    b118        ..      CBZ      r0,0x2ac6 ; SysTick_Handler + 30
        0x00002abe:    4904        .I      LDR      r1,[pc,#16] ; [0x2ad0] = 0xe000ed04
        0x00002ac0:    f04f5080    O..P    MOV      r0,#0x10000000
        0x00002ac4:    6008        .`      STR      r0,[r1,#0]
        0x00002ac6:    2000        .       MOVS     r0,#0
        0x00002ac8:    f3808811    ....    MSR      BASEPRI,r0
        0x00002acc:    bd10        ..      POP      {r4,pc}
    $d
        0x00002ace:    0000        ..      DCW    0
        0x00002ad0:    e000ed04    ....    DCD    3758157060
    $t
    i.SystemInit
    SystemInit
        0x00002ad4:    4902        .I      LDR      r1,[pc,#8] ; [0x2ae0] = 0x20000000
        0x00002ad6:    4801        .H      LDR      r0,[pc,#4] ; [0x2adc] = 0x5f5e100
        0x00002ad8:    6008        .`      STR      r0,[r1,#0]
        0x00002ada:    4770        pG      BX       lr
    $d
        0x00002adc:    05f5e100    ....    DCD    100000000
        0x00002ae0:    20000000    ...     DCD    536870912
    $t
    i.UART0_Handler
    UART0_Handler
        0x00002ae4:    b510        ..      PUSH     {r4,lr}
        0x00002ae6:    f04f2440    O.@$    MOV      r4,#0x40004000
        0x00002aea:    4620         F      MOV      r0,r4
        0x00002aec:    f000f81c    ....    BL       UART_ReceiveData ; 0x2b28
        0x00002af0:    4601        .F      MOV      r1,r0
        0x00002af2:    4804        .H      LDR      r0,[pc,#16] ; [0x2b04] = 0x2000538c
        0x00002af4:    f7fffd02    ....    BL       SCD_Rev1Byte ; 0x24fc
        0x00002af8:    4620         F      MOV      r0,r4
        0x00002afa:    e8bd4010    ...@    POP      {r4,lr}
        0x00002afe:    2102        .!      MOVS     r1,#2
        0x00002b00:    f000b802    ....    B.W      UART_ITCLEAR ; 0x2b08
    $d
        0x00002b04:    2000538c    .S.     DCD    536892300
    $t
    i.UART_ITCLEAR
    UART_ITCLEAR
        0x00002b08:    68c2        .h      LDR      r2,[r0,#0xc]
        0x00002b0a:    430a        .C      ORRS     r2,r2,r1
        0x00002b0c:    60c2        .`      STR      r2,[r0,#0xc]
        0x00002b0e:    4770        pG      BX       lr
    i.UART_Init
    UART_Init
        0x00002b10:    4b04        .K      LDR      r3,[pc,#16] ; [0x2b24] = 0x20000000
        0x00002b12:    680a        .h      LDR      r2,[r1,#0]
        0x00002b14:    681b        .h      LDR      r3,[r3,#0]
        0x00002b16:    fbb3f2f2    ....    UDIV     r2,r3,r2
        0x00002b1a:    6102        .a      STR      r2,[r0,#0x10]
        0x00002b1c:    7909        .y      LDRB     r1,[r1,#4]
        0x00002b1e:    6081        .`      STR      r1,[r0,#8]
        0x00002b20:    4770        pG      BX       lr
    $d
        0x00002b22:    0000        ..      DCW    0
        0x00002b24:    20000000    ...     DCD    536870912
    $t
    i.UART_ReceiveData
    UART_ReceiveData
        0x00002b28:    6841        Ah      LDR      r1,[r0,#4]
        0x00002b2a:    0789        ..      LSLS     r1,r1,#30
        0x00002b2c:    d5fc        ..      BPL      UART_ReceiveData ; 0x2b28
        0x00002b2e:    6800        .h      LDR      r0,[r0,#0]
        0x00002b30:    b2c0        ..      UXTB     r0,r0
        0x00002b32:    4770        pG      BX       lr
    i.UartPutc
    UartPutc
        0x00002b34:    f04f2140    O.@!    MOV      r1,#0x40004000
        0x00002b38:    684a        Jh      LDR      r2,[r1,#4]
        0x00002b3a:    07d2        ..      LSLS     r2,r2,#31
        0x00002b3c:    d1fc        ..      BNE      0x2b38 ; UartPutc + 4
        0x00002b3e:    6008        .`      STR      r0,[r1,#0]
        0x00002b40:    4770        pG      BX       lr
    i.__ARM_fpclassify
    __ARM_fpclassify
        0x00002b42:    0049        I.      LSLS     r1,r1,#1
        0x00002b44:    ea5020c1    P..     ORRS     r0,r0,r1,LSL #11
        0x00002b48:    bf18        ..      IT       NE
        0x00002b4a:    2004        .       MOVNE    r0,#4
        0x00002b4c:    0d4a        J.      LSRS     r2,r1,#21
        0x00002b4e:    bf18        ..      IT       NE
        0x00002b50:    f0400001    @...    ORRNE    r0,r0,#1
        0x00002b54:    f24072ff    @..r    MOV      r2,#0x7ff
        0x00002b58:    ebb25f51    ..Q_    CMP      r2,r1,LSR #21
        0x00002b5c:    bf08        ..      IT       EQ
        0x00002b5e:    f0400002    @...    ORREQ    r0,r0,#2
        0x00002b62:    2801        .(      CMP      r0,#1
        0x00002b64:    bf08        ..      IT       EQ
        0x00002b66:    2005        .       MOVEQ    r0,#5
        0x00002b68:    4770        pG      BX       lr
        0x00002b6a:    0000        ..      MOVS     r0,r0
    i._atof_pow10
    _atof_pow10
        0x00002b6c:    b570        p.      PUSH     {r4-r6,lr}
        0x00002b6e:    460c        .F      MOV      r4,r1
        0x00002b70:    4d08        .M      LDR      r5,[pc,#32] ; [0x2b94] = 0x41200000
        0x00002b72:    e003        ..      B        0x2b7c ; _atof_pow10 + 16
        0x00002b74:    4629        )F      MOV      r1,r5
        0x00002b76:    f002fe31    ..1.    BL       __aeabi_fmul ; 0x57dc
        0x00002b7a:    1e64        d.      SUBS     r4,r4,#1
        0x00002b7c:    2c00        .,      CMP      r4,#0
        0x00002b7e:    dcf9        ..      BGT      0x2b74 ; _atof_pow10 + 8
        0x00002b80:    4d05        .M      LDR      r5,[pc,#20] ; [0x2b98] = 0x3dcccccd
        0x00002b82:    2c00        .,      CMP      r4,#0
        0x00002b84:    da04        ..      BGE      0x2b90 ; _atof_pow10 + 36
        0x00002b86:    4629        )F      MOV      r1,r5
        0x00002b88:    f002fe28    ..(.    BL       __aeabi_fmul ; 0x57dc
        0x00002b8c:    1c64        d.      ADDS     r4,r4,#1
        0x00002b8e:    e7f8        ..      B        0x2b82 ; _atof_pow10 + 22
        0x00002b90:    bd70        p.      POP      {r4-r6,pc}
    $d
        0x00002b92:    0000        ..      DCW    0
        0x00002b94:    41200000    .. A    DCD    1092616192
        0x00002b98:    3dcccccd    ...=    DCD    1036831949
    $t
    i._cz_strtoxl
    _cz_strtoxl
        0x00002b9c:    e92d47f0    -..G    PUSH     {r4-r10,lr}
        0x00002ba0:    4684        .F      MOV      r12,r0
        0x00002ba2:    b109        ..      CBZ      r1,0x2ba8 ; _cz_strtoxl + 12
        0x00002ba4:    f8c1c000    ....    STR      r12,[r1,#0]
        0x00002ba8:    2500        .%      MOVS     r5,#0
        0x00002baa:    f89c4000    ...@    LDRB     r4,[r12,#0]
        0x00002bae:    f10c0001    ....    ADD      r0,r12,#1
        0x00002bb2:    4e4e        NN      LDR      r6,[pc,#312] ; [0x2cec] = 0x613c
        0x00002bb4:    e001        ..      B        0x2bba ; _cz_strtoxl + 30
        0x00002bb6:    f8104b01    ...K    LDRB     r4,[r0],#1
        0x00002bba:    f8167024    ..$p    LDRB     r7,[r6,r4,LSL #2]
        0x00002bbe:    073f        ?.      LSLS     r7,r7,#28
        0x00002bc0:    d4f9        ..      BMI      0x2bb6 ; _cz_strtoxl + 26
        0x00002bc2:    2c2b        +,      CMP      r4,#0x2b
        0x00002bc4:    d101        ..      BNE      0x2bca ; _cz_strtoxl + 46
        0x00002bc6:    f8104b01    ...K    LDRB     r4,[r0],#1
        0x00002bca:    2c2d        -,      CMP      r4,#0x2d
        0x00002bcc:    d103        ..      BNE      0x2bd6 ; _cz_strtoxl + 58
        0x00002bce:    f8104b01    ...K    LDRB     r4,[r0],#1
        0x00002bd2:    f0430301    C...    ORR      r3,r3,#1
        0x00002bd6:    2c2b        +,      CMP      r4,#0x2b
        0x00002bd8:    d101        ..      BNE      0x2bde ; _cz_strtoxl + 66
        0x00002bda:    f8104b01    ...K    LDRB     r4,[r0],#1
        0x00002bde:    2a00        .*      CMP      r2,#0
        0x00002be0:    db03        ..      BLT      0x2bea ; _cz_strtoxl + 78
        0x00002be2:    2a01        .*      CMP      r2,#1
        0x00002be4:    d001        ..      BEQ      0x2bea ; _cz_strtoxl + 78
        0x00002be6:    2a24        $*      CMP      r2,#0x24
        0x00002be8:    dd05        ..      BLE      0x2bf6 ; _cz_strtoxl + 90
        0x00002bea:    b109        ..      CBZ      r1,0x2bf0 ; _cz_strtoxl + 84
        0x00002bec:    f8c1c000    ....    STR      r12,[r1,#0]
        0x00002bf0:    2000        .       MOVS     r0,#0
        0x00002bf2:    e8bd87f0    ....    POP      {r4-r10,pc}
        0x00002bf6:    b122        ".      CBZ      r2,0x2c02 ; _cz_strtoxl + 102
        0x00002bf8:    2a10        .*      CMP      r2,#0x10
        0x00002bfa:    d015        ..      BEQ      0x2c28 ; _cz_strtoxl + 140
        0x00002bfc:    2a02        .*      CMP      r2,#2
        0x00002bfe:    d01b        ..      BEQ      0x2c38 ; _cz_strtoxl + 156
        0x00002c00:    e023        #.      B        0x2c4a ; _cz_strtoxl + 174
        0x00002c02:    2c30        0,      CMP      r4,#0x30
        0x00002c04:    d001        ..      BEQ      0x2c0a ; _cz_strtoxl + 110
        0x00002c06:    220a        ."      MOVS     r2,#0xa
        0x00002c08:    e01f        ..      B        0x2c4a ; _cz_strtoxl + 174
        0x00002c0a:    7802        .x      LDRB     r2,[r0,#0]
        0x00002c0c:    2a78        x*      CMP      r2,#0x78
        0x00002c0e:    d007        ..      BEQ      0x2c20 ; _cz_strtoxl + 132
        0x00002c10:    2a58        X*      CMP      r2,#0x58
        0x00002c12:    d005        ..      BEQ      0x2c20 ; _cz_strtoxl + 132
        0x00002c14:    2a62        b*      CMP      r2,#0x62
        0x00002c16:    d005        ..      BEQ      0x2c24 ; _cz_strtoxl + 136
        0x00002c18:    2a42        B*      CMP      r2,#0x42
        0x00002c1a:    d003        ..      BEQ      0x2c24 ; _cz_strtoxl + 136
        0x00002c1c:    2208        ."      MOVS     r2,#8
        0x00002c1e:    e014        ..      B        0x2c4a ; _cz_strtoxl + 174
        0x00002c20:    2210        ."      MOVS     r2,#0x10
        0x00002c22:    e003        ..      B        0x2c2c ; _cz_strtoxl + 144
        0x00002c24:    2202        ."      MOVS     r2,#2
        0x00002c26:    e009        ..      B        0x2c3c ; _cz_strtoxl + 160
        0x00002c28:    2c30        0,      CMP      r4,#0x30
        0x00002c2a:    d10e        ..      BNE      0x2c4a ; _cz_strtoxl + 174
        0x00002c2c:    7807        .x      LDRB     r7,[r0,#0]
        0x00002c2e:    2f78        x/      CMP      r7,#0x78
        0x00002c30:    d009        ..      BEQ      0x2c46 ; _cz_strtoxl + 170
        0x00002c32:    2f58        X/      CMP      r7,#0x58
        0x00002c34:    d007        ..      BEQ      0x2c46 ; _cz_strtoxl + 170
        0x00002c36:    e008        ..      B        0x2c4a ; _cz_strtoxl + 174
        0x00002c38:    2c30        0,      CMP      r4,#0x30
        0x00002c3a:    d106        ..      BNE      0x2c4a ; _cz_strtoxl + 174
        0x00002c3c:    7807        .x      LDRB     r7,[r0,#0]
        0x00002c3e:    2f62        b/      CMP      r7,#0x62
        0x00002c40:    d001        ..      BEQ      0x2c46 ; _cz_strtoxl + 170
        0x00002c42:    2f42        B/      CMP      r7,#0x42
        0x00002c44:    d101        ..      BNE      0x2c4a ; _cz_strtoxl + 174
        0x00002c46:    7844        Dx      LDRB     r4,[r0,#1]
        0x00002c48:    1c80        ..      ADDS     r0,r0,#2
        0x00002c4a:    f04f39ff    O..9    MOV      r9,#0xffffffff
        0x00002c4e:    fbb9f7f2    ....    UDIV     r7,r9,r2
        0x00002c52:    46b2        .F      MOV      r10,r6
        0x00002c54:    f85a6024    Z.$`    LDR      r6,[r10,r4,LSL #2]
        0x00002c58:    ea5f7846    _.Fx    LSLS     r8,r6,#29
        0x00002c5c:    d501        ..      BPL      0x2c62 ; _cz_strtoxl + 198
        0x00002c5e:    3c30        0<      SUBS     r4,r4,#0x30
        0x00002c60:    e004        ..      B        0x2c6c ; _cz_strtoxl + 208
        0x00002c62:    07b4        ..      LSLS     r4,r6,#30
        0x00002c64:    d014        ..      BEQ      0x2c90 ; _cz_strtoxl + 244
        0x00002c66:    f3c62407    ...$    UBFX     r4,r6,#8,#8
        0x00002c6a:    3c37        7<      SUBS     r4,r4,#0x37
        0x00002c6c:    4294        .B      CMP      r4,r2
        0x00002c6e:    d20f        ..      BCS      0x2c90 ; _cz_strtoxl + 244
        0x00002c70:    f0430302    C...    ORR      r3,r3,#2
        0x00002c74:    42bd        .B      CMP      r5,r7
        0x00002c76:    d302        ..      BCC      0x2c7e ; _cz_strtoxl + 226
        0x00002c78:    d104        ..      BNE      0x2c84 ; _cz_strtoxl + 232
        0x00002c7a:    42bc        .B      CMP      r4,r7
        0x00002c7c:    d802        ..      BHI      0x2c84 ; _cz_strtoxl + 232
        0x00002c7e:    fb054502    ...E    MLA      r5,r5,r2,r4
        0x00002c82:    e002        ..      B        0x2c8a ; _cz_strtoxl + 238
        0x00002c84:    f0430304    C...    ORR      r3,r3,#4
        0x00002c88:    b111        ..      CBZ      r1,0x2c90 ; _cz_strtoxl + 244
        0x00002c8a:    f8104b01    ...K    LDRB     r4,[r0],#1
        0x00002c8e:    e7e1        ..      B        0x2c54 ; _cz_strtoxl + 184
        0x00002c90:    1e40        @.      SUBS     r0,r0,#1
        0x00002c92:    f04f4400    O..D    MOV      r4,#0x80000000
        0x00002c96:    079a        ..      LSLS     r2,r3,#30
        0x00002c98:    d403        ..      BMI      0x2ca2 ; _cz_strtoxl + 262
        0x00002c9a:    b131        1.      CBZ      r1,0x2caa ; _cz_strtoxl + 270
        0x00002c9c:    f8c1c000    ....    STR      r12,[r1,#0]
        0x00002ca0:    e003        ..      B        0x2caa ; _cz_strtoxl + 270
        0x00002ca2:    071a        ..      LSLS     r2,r3,#28
        0x00002ca4:    d503        ..      BPL      0x2cae ; _cz_strtoxl + 274
        0x00002ca6:    07da        ..      LSLS     r2,r3,#31
        0x00002ca8:    d001        ..      BEQ      0x2cae ; _cz_strtoxl + 274
        0x00002caa:    2500        .%      MOVS     r5,#0
        0x00002cac:    e016        ..      B        0x2cdc ; _cz_strtoxl + 320
        0x00002cae:    075e        ^.      LSLS     r6,r3,#29
        0x00002cb0:    f06f4200    o..B    MVN      r2,#0x80000000
        0x00002cb4:    d409        ..      BMI      0x2cca ; _cz_strtoxl + 302
        0x00002cb6:    071e        ..      LSLS     r6,r3,#28
        0x00002cb8:    d410        ..      BMI      0x2cdc ; _cz_strtoxl + 320
        0x00002cba:    07de        ..      LSLS     r6,r3,#31
        0x00002cbc:    d002        ..      BEQ      0x2cc4 ; _cz_strtoxl + 296
        0x00002cbe:    42a5        .B      CMP      r5,r4
        0x00002cc0:    d809        ..      BHI      0x2cd6 ; _cz_strtoxl + 314
        0x00002cc2:    e00b        ..      B        0x2cdc ; _cz_strtoxl + 320
        0x00002cc4:    4295        .B      CMP      r5,r2
        0x00002cc6:    d808        ..      BHI      0x2cda ; _cz_strtoxl + 318
        0x00002cc8:    e008        ..      B        0x2cdc ; _cz_strtoxl + 320
        0x00002cca:    071d        ..      LSLS     r5,r3,#28
        0x00002ccc:    d501        ..      BPL      0x2cd2 ; _cz_strtoxl + 310
        0x00002cce:    464d        MF      MOV      r5,r9
        0x00002cd0:    e004        ..      B        0x2cdc ; _cz_strtoxl + 320
        0x00002cd2:    07dd        ..      LSLS     r5,r3,#31
        0x00002cd4:    d001        ..      BEQ      0x2cda ; _cz_strtoxl + 318
        0x00002cd6:    4625        %F      MOV      r5,r4
        0x00002cd8:    e000        ..      B        0x2cdc ; _cz_strtoxl + 320
        0x00002cda:    4615        .F      MOV      r5,r2
        0x00002cdc:    b101        ..      CBZ      r1,0x2ce0 ; _cz_strtoxl + 324
        0x00002cde:    6008        .`      STR      r0,[r1,#0]
        0x00002ce0:    07d8        ..      LSLS     r0,r3,#31
        0x00002ce2:    d000        ..      BEQ      0x2ce6 ; _cz_strtoxl + 330
        0x00002ce4:    426d        mB      RSBS     r5,r5,#0
        0x00002ce6:    4628        (F      MOV      r0,r5
        0x00002ce8:    e783        ..      B        0x2bf2 ; _cz_strtoxl + 86
    $d
        0x00002cea:    0000        ..      DCW    0
        0x00002cec:    0000613c    <a..    DCD    24892
    $t
    i._is_digit
    _is_digit
        0x00002cf0:    3830        08      SUBS     r0,r0,#0x30
        0x00002cf2:    280a        .(      CMP      r0,#0xa
        0x00002cf4:    d201        ..      BCS      0x2cfa ; _is_digit + 10
        0x00002cf6:    2001        .       MOVS     r0,#1
        0x00002cf8:    4770        pG      BX       lr
        0x00002cfa:    2000        .       MOVS     r0,#0
        0x00002cfc:    4770        pG      BX       lr
        0x00002cfe:    0000        ..      MOVS     r0,r0
    i.atof_tyj
    atof_tyj
        0x00002d00:    b5f8        ..      PUSH     {r3-r7,lr}
        0x00002d02:    2100        .!      MOVS     r1,#0
        0x00002d04:    460d        .F      MOV      r5,r1
        0x00002d06:    460e        .F      MOV      r6,r1
        0x00002d08:    2401        .$      MOVS     r4,#1
        0x00002d0a:    4b27        'K      LDR      r3,[pc,#156] ; [0x2da8] = 0x613c
        0x00002d0c:    9100        ..      STR      r1,[sp,#0]
        0x00002d0e:    e009        ..      B        0x2d24 ; atof_tyj + 36
        0x00002d10:    06d2        ..      LSLS     r2,r2,#27
        0x00002d12:    d506        ..      BPL      0x2d22 ; atof_tyj + 34
        0x00002d14:    292d        -)      CMP      r1,#0x2d
        0x00002d16:    d003        ..      BEQ      0x2d20 ; atof_tyj + 32
        0x00002d18:    292b        +)      CMP      r1,#0x2b
        0x00002d1a:    d002        ..      BEQ      0x2d22 ; atof_tyj + 34
        0x00002d1c:    2000        .       MOVS     r0,#0
        0x00002d1e:    bdf8        ..      POP      {r3-r7,pc}
        0x00002d20:    4264        dB      RSBS     r4,r4,#0
        0x00002d22:    1c40        @.      ADDS     r0,r0,#1
        0x00002d24:    7801        .x      LDRB     r1,[r0,#0]
        0x00002d26:    f8532021    S.!     LDR      r2,[r3,r1,LSL #2]
        0x00002d2a:    0757        W.      LSLS     r7,r2,#29
        0x00002d2c:    d0f0        ..      BEQ      0x2d10 ; atof_tyj + 16
        0x00002d2e:    2300        .#      MOVS     r3,#0
        0x00002d30:    220a        ."      MOVS     r2,#0xa
        0x00002d32:    4669        iF      MOV      r1,sp
        0x00002d34:    f7ffff32    ..2.    BL       _cz_strtoxl ; 0x2b9c
        0x00002d38:    4607        .F      MOV      r7,r0
        0x00002d3a:    9800        ..      LDR      r0,[sp,#0]
        0x00002d3c:    7801        .x      LDRB     r1,[r0,#0]
        0x00002d3e:    292e        .)      CMP      r1,#0x2e
        0x00002d40:    d110        ..      BNE      0x2d64 ; atof_tyj + 100
        0x00002d42:    1c45        E.      ADDS     r5,r0,#1
        0x00002d44:    2300        .#      MOVS     r3,#0
        0x00002d46:    220a        ."      MOVS     r2,#0xa
        0x00002d48:    4669        iF      MOV      r1,sp
        0x00002d4a:    4628        (F      MOV      r0,r5
        0x00002d4c:    f7ffff26    ..&.    BL       _cz_strtoxl ; 0x2b9c
        0x00002d50:    4601        .F      MOV      r1,r0
        0x00002d52:    9800        ..      LDR      r0,[sp,#0]
        0x00002d54:    1b45        E.      SUBS     r5,r0,r5
        0x00002d56:    4608        .F      MOV      r0,r1
        0x00002d58:    f002fd14    ....    BL       __aeabi_i2f ; 0x5784
        0x00002d5c:    4269        iB      RSBS     r1,r5,#0
        0x00002d5e:    f7ffff05    ....    BL       _atof_pow10 ; 0x2b6c
        0x00002d62:    4605        .F      MOV      r5,r0
        0x00002d64:    9800        ..      LDR      r0,[sp,#0]
        0x00002d66:    7801        .x      LDRB     r1,[r0,#0]
        0x00002d68:    2965        e)      CMP      r1,#0x65
        0x00002d6a:    d001        ..      BEQ      0x2d70 ; atof_tyj + 112
        0x00002d6c:    2945        E)      CMP      r1,#0x45
        0x00002d6e:    d106        ..      BNE      0x2d7e ; atof_tyj + 126
        0x00002d70:    2300        .#      MOVS     r3,#0
        0x00002d72:    220a        ."      MOVS     r2,#0xa
        0x00002d74:    4669        iF      MOV      r1,sp
        0x00002d76:    1c40        @.      ADDS     r0,r0,#1
        0x00002d78:    f7ffff10    ....    BL       _cz_strtoxl ; 0x2b9c
        0x00002d7c:    4606        .F      MOV      r6,r0
        0x00002d7e:    2c01        .,      CMP      r4,#1
        0x00002d80:    4638        8F      MOV      r0,r7
        0x00002d82:    d00a        ..      BEQ      0x2d9a ; atof_tyj + 154
        0x00002d84:    f002fcfe    ....    BL       __aeabi_i2f ; 0x5784
        0x00002d88:    4601        .F      MOV      r1,r0
        0x00002d8a:    f0854000    ...@    EOR      r0,r5,#0x80000000
        0x00002d8e:    f002fdf1    ....    BL       __aeabi_fsub ; 0x5974
        0x00002d92:    4631        1F      MOV      r1,r6
        0x00002d94:    f7fffeea    ....    BL       _atof_pow10 ; 0x2b6c
        0x00002d98:    bdf8        ..      POP      {r3-r7,pc}
        0x00002d9a:    f002fcf3    ....    BL       __aeabi_i2f ; 0x5784
        0x00002d9e:    4629        )F      MOV      r1,r5
        0x00002da0:    f002fb8a    ....    BL       __aeabi_fadd ; 0x54b8
        0x00002da4:    e7f5        ..      B        0x2d92 ; atof_tyj + 146
    $d
        0x00002da6:    0000        ..      DCW    0
        0x00002da8:    0000613c    <a..    DCD    24892
    $t
    i.bme280RefreshTask
    bme280RefreshTask
        0x00002dac:    b086        ..      SUB      sp,sp,#0x18
        0x00002dae:    4c3c        <L      LDR      r4,[pc,#240] ; [0x2ea0] = 0x2000008c
        0x00002db0:    f44f79fa    O..y    MOV      r9,#0x1f4
        0x00002db4:    4b3a        :K      LDR      r3,[pc,#232] ; [0x2ea0] = 0x2000008c
        0x00002db6:    483b        ;H      LDR      r0,[pc,#236] ; [0x2ea4] = 0x200052e4
        0x00002db8:    3310        .3      ADDS     r3,r3,#0x10
        0x00002dba:    1f1a        ..      SUBS     r2,r3,#4
        0x00002dbc:    1f11        ..      SUBS     r1,r2,#4
        0x00002dbe:    f7fefd03    ....    BL       BME280_Get_ALL ; 0x17c8
        0x00002dc2:    b108        ..      CBZ      r0,0x2dc8 ; bme280RefreshTask + 28
        0x00002dc4:    a038        8.      ADR      r0,{pc}+0xe4 ; 0x2ea8
        0x00002dc6:    e065        e.      B        0x2e94 ; bme280RefreshTask + 232
        0x00002dc8:    f04f31ff    O..1    MOV      r1,#0xffffffff
        0x00002dcc:    6a20         j      LDR      r0,[r4,#0x20]
        0x00002dce:    f001ff65    ..e.    BL       xQueueSemaphoreTake ; 0x4c9c
        0x00002dd2:    2800        .(      CMP      r0,#0
        0x00002dd4:    d05d        ].      BEQ      0x2e92 ; bme280RefreshTask + 230
        0x00002dd6:    4d39        9M      LDR      r5,[pc,#228] ; [0x2ebc] = 0x20000008
        0x00002dd8:    f44f4078    O.x@    MOV      r0,#0xf800
        0x00002ddc:    4e38        8N      LDR      r6,[pc,#224] ; [0x2ec0] = 0x2000000c
        0x00002dde:    6028        (`      STR      r0,[r5,#0]
        0x00002de0:    f44f5000    O..P    MOV      r0,#0x2000
        0x00002de4:    6030        0`      STR      r0,[r6,#0]
        0x00002de6:    68a0        .h      LDR      r0,[r4,#8]
        0x00002de8:    f002fb3a    ..:.    BL       __aeabi_f2d ; 0x5460
        0x00002dec:    4602        .F      MOV      r2,r0
        0x00002dee:    460b        .F      MOV      r3,r1
        0x00002df0:    a134        4.      ADR      r1,{pc}+0xd4 ; 0x2ec4
        0x00002df2:    a802        ..      ADD      r0,sp,#8
        0x00002df4:    f7fdfa82    ....    BL       __2sprintf ; 0x2fc
        0x00002df8:    2751        Q'      MOVS     r7,#0x51
        0x00002dfa:    f10d0808    ....    ADD      r8,sp,#8
        0x00002dfe:    e9cd8700    ....    STRD     r8,r7,[sp,#0]
        0x00002e02:    2310        .#      MOVS     r3,#0x10
        0x00002e04:    2230        0"      MOVS     r2,#0x30
        0x00002e06:    4619        .F      MOV      r1,r3
        0x00002e08:    2020                MOVS     r0,#0x20
        0x00002e0a:    f7fffa8d    ....    BL       LCD_ShowString ; 0x2328
        0x00002e0e:    a902        ..      ADD      r1,sp,#8
        0x00002e10:    a02e        ..      ADR      r0,{pc}+0xbc ; 0x2ecc
        0x00002e12:    f7fdfa67    ..g.    BL       __2printf ; 0x2e4
        0x00002e16:    f44f60fc    O..`    MOV      r0,#0x7e0
        0x00002e1a:    6028        (`      STR      r0,[r5,#0]
        0x00002e1c:    f44f7080    O..p    MOV      r0,#0x100
        0x00002e20:    6030        0`      STR      r0,[r6,#0]
        0x00002e22:    f04f517c    O.|Q    MOV      r1,#0x3f000000
        0x00002e26:    6920         i      LDR      r0,[r4,#0x10]
        0x00002e28:    f002fb46    ..F.    BL       __aeabi_fadd ; 0x54b8
        0x00002e2c:    f002fc6e    ..n.    BL       __aeabi_f2iz ; 0x570c
        0x00002e30:    4602        .F      MOV      r2,r0
        0x00002e32:    a129        ).      ADR      r1,{pc}+0xa6 ; 0x2ed8
        0x00002e34:    a802        ..      ADD      r0,sp,#8
        0x00002e36:    f7fdfa61    ..a.    BL       __2sprintf ; 0x2fc
        0x00002e3a:    e9cd8700    ....    STRD     r8,r7,[sp,#0]
        0x00002e3e:    2310        .#      MOVS     r3,#0x10
        0x00002e40:    2230        0"      MOVS     r2,#0x30
        0x00002e42:    2120         !      MOVS     r1,#0x20
        0x00002e44:    201c        .       MOVS     r0,#0x1c
        0x00002e46:    f7fffa6f    ..o.    BL       LCD_ShowString ; 0x2328
        0x00002e4a:    a902        ..      ADD      r1,sp,#8
        0x00002e4c:    a023        #.      ADR      r0,{pc}+0x90 ; 0x2edc
        0x00002e4e:    f7fdfa49    ..I.    BL       __2printf ; 0x2e4
        0x00002e52:    201f        .       MOVS     r0,#0x1f
        0x00002e54:    6028        (`      STR      r0,[r5,#0]
        0x00002e56:    2004        .       MOVS     r0,#4
        0x00002e58:    6030        0`      STR      r0,[r6,#0]
        0x00002e5a:    68e0        .h      LDR      r0,[r4,#0xc]
        0x00002e5c:    f002fb00    ....    BL       __aeabi_f2d ; 0x5460
        0x00002e60:    4602        .F      MOV      r2,r0
        0x00002e62:    460b        .F      MOV      r3,r1
        0x00002e64:    a117        ..      ADR      r1,{pc}+0x60 ; 0x2ec4
        0x00002e66:    a802        ..      ADD      r0,sp,#8
        0x00002e68:    f7fdfa48    ..H.    BL       __2sprintf ; 0x2fc
        0x00002e6c:    e9cd8700    ....    STRD     r8,r7,[sp,#0]
        0x00002e70:    2230        0"      MOVS     r2,#0x30
        0x00002e72:    2310        .#      MOVS     r3,#0x10
        0x00002e74:    4611        .F      MOV      r1,r2
        0x00002e76:    2020                MOVS     r0,#0x20
        0x00002e78:    f7fffa56    ..V.    BL       LCD_ShowString ; 0x2328
        0x00002e7c:    a902        ..      ADD      r1,sp,#8
        0x00002e7e:    a01b        ..      ADR      r0,{pc}+0x6e ; 0x2eec
        0x00002e80:    f7fdfa30    ..0.    BL       __2printf ; 0x2e4
        0x00002e84:    2300        .#      MOVS     r3,#0
        0x00002e86:    461a        .F      MOV      r2,r3
        0x00002e88:    4619        .F      MOV      r1,r3
        0x00002e8a:    6a20         j      LDR      r0,[r4,#0x20]
        0x00002e8c:    f001fdae    ....    BL       xQueueGenericSend ; 0x49ec
        0x00002e90:    e002        ..      B        0x2e98 ; bme280RefreshTask + 236
        0x00002e92:    a01a        ..      ADR      r0,{pc}+0x6a ; 0x2efc
        0x00002e94:    f7fdfa26    ..&.    BL       __2printf ; 0x2e4
        0x00002e98:    4648        HF      MOV      r0,r9
        0x00002e9a:    f001fadd    ....    BL       vTaskDelay ; 0x4458
        0x00002e9e:    e789        ..      B        0x2db4 ; bme280RefreshTask + 8
    $d
        0x00002ea0:    2000008c    ...     DCD    536871052
        0x00002ea4:    200052e4    .R.     DCD    536892132
        0x00002ea8:    32656d62    bme2    DCD    845507938
        0x00002eac:    72203038    80 r    DCD    1914712120
        0x00002eb0:    20646165    ead     DCD    543449445
        0x00002eb4:    21727265    err!    DCD    561148517
        0x00002eb8:    00000a0d    ....    DCD    2573
        0x00002ebc:    20000008    ...     DCD    536870920
        0x00002ec0:    2000000c    ...     DCD    536870924
        0x00002ec4:    322e3025    %0.2    DCD    841887781
        0x00002ec8:    00000066    f...    DCD    102
        0x00002ecc:    706d6554    Temp    DCD    1886217556
        0x00002ed0:    4373253d    =%sC    DCD    1131619645
        0x00002ed4:    0000202c    , ..    DCD    8236
        0x00002ed8:    00643625    %6d.    DCD    6567461
        0x00002edc:    73657250    Pres    DCD    1936028240
        0x00002ee0:    73253d73    s=%s    DCD    1931820403
        0x00002ee4:    202c6150    Pa,     DCD    539779408
        0x00002ee8:    00000000    ....    DCD    0
        0x00002eec:    3d6d7548    Hum=    DCD    1030583624
        0x00002ef0:    25257325    %s%%    DCD    623211301
        0x00002ef4:    0a0d4852    RH..    DCD    168642642
        0x00002ef8:    00000000    ....    DCD    0
        0x00002efc:    5378754d    MuxS    DCD    1400403277
        0x00002f00:    634c6d65    emLc    DCD    1665953125
        0x00002f04:    61742064    d ta    DCD    1635000420
        0x00002f08:    6520656b    ke e    DCD    1696621931
        0x00002f0c:    0d217272    rr!.    DCD    220295794
        0x00002f10:    0000000a    ....    DCD    10
    $t
    i.cz_atol
    cz_atol
        0x00002f14:    2300        .#      MOVS     r3,#0
        0x00002f16:    220a        ."      MOVS     r2,#0xa
        0x00002f18:    4619        .F      MOV      r1,r3
        0x00002f1a:    f7ffbe3f    ..?.    B.W      _cz_strtoxl ; 0x2b9c
        0x00002f1e:    0000        ..      MOVS     r0,r0
    i.delay_ms
    delay_ms
        0x00002f20:    4904        .I      LDR      r1,[pc,#16] ; [0x2f34] = 0x20000000
        0x00002f22:    f44f727a    O.zr    MOV      r2,#0x3e8
        0x00002f26:    6809        .h      LDR      r1,[r1,#0]
        0x00002f28:    fbb1f1f2    ....    UDIV     r1,r1,r2
        0x00002f2c:    4348        HC      MULS     r0,r1,r0
        0x00002f2e:    f7febe83    ....    B        DELAY_TICK ; 0x1c38
    $d
        0x00002f32:    0000        ..      DCW    0
        0x00002f34:    20000000    ...     DCD    536870912
    $t
    i.epwm_ahb_init
    epwm_ahb_init
        0x00002f38:    480a        .H      LDR      r0,[pc,#40] ; [0x2f64] = 0xc0030000
        0x00002f3a:    2100        .!      MOVS     r1,#0
        0x00002f3c:    6001        .`      STR      r1,[r0,#0]
        0x00002f3e:    490a        .I      LDR      r1,[pc,#40] ; [0x2f68] = 0x20000000
        0x00002f40:    f6494240    I.@B    MOV      r2,#0x9c40
        0x00002f44:    6809        .h      LDR      r1,[r1,#0]
        0x00002f46:    fbb1f1f2    ....    UDIV     r1,r1,r2
        0x00002f4a:    1e49        I.      SUBS     r1,r1,#1
        0x00002f4c:    8081        ..      STRH     r1,[r0,#4]
        0x00002f4e:    8881        ..      LDRH     r1,[r0,#4]
        0x00002f50:    0849        I.      LSRS     r1,r1,#1
        0x00002f52:    80c1        ..      STRH     r1,[r0,#6]
        0x00002f54:    88c1        ..      LDRH     r1,[r0,#6]
        0x00002f56:    8101        ..      STRH     r1,[r0,#8]
        0x00002f58:    8901        ..      LDRH     r1,[r0,#8]
        0x00002f5a:    8141        A.      STRH     r1,[r0,#0xa]
        0x00002f5c:    2101        .!      MOVS     r1,#1
        0x00002f5e:    6001        .`      STR      r1,[r0,#0]
        0x00002f60:    4770        pG      BX       lr
    $d
        0x00002f62:    0000        ..      DCW    0
        0x00002f64:    c0030000    ....    DCD    3221422080
        0x00002f68:    20000000    ...     DCD    536870912
    $t
    i.fputc
    fputc
        0x00002f6c:    b2c0        ..      UXTB     r0,r0
        0x00002f6e:    f7ffbde1    ....    B.W      UartPutc ; 0x2b34
    i.hfUnitDelay
    hfUnitDelay
        0x00002f72:    f04f4080    O..@    MOV      r0,#0x40000000
        0x00002f76:    2300        .#      MOVS     r3,#0
        0x00002f78:    6003        .`      STR      r3,[r0,#0]
        0x00002f7a:    6881        .h      LDR      r1,[r0,#8]
        0x00002f7c:    6041        A`      STR      r1,[r0,#4]
        0x00002f7e:    2201        ."      MOVS     r2,#1
        0x00002f80:    60c2        .`      STR      r2,[r0,#0xc]
        0x00002f82:    2109        .!      MOVS     r1,#9
        0x00002f84:    6001        .`      STR      r1,[r0,#0]
        0x00002f86:    68c1        .h      LDR      r1,[r0,#0xc]
        0x00002f88:    2900        .)      CMP      r1,#0
        0x00002f8a:    d0fc        ..      BEQ      0x2f86 ; hfUnitDelay + 20
        0x00002f8c:    6003        .`      STR      r3,[r0,#0]
        0x00002f8e:    60c2        .`      STR      r2,[r0,#0xc]
        0x00002f90:    4770        pG      BX       lr
        0x00002f92:    0000        ..      MOVS     r0,r0
    i.hfUnitDelay2
    hfUnitDelay2
        0x00002f94:    4807        .H      LDR      r0,[pc,#28] ; [0x2fb4] = 0x40001000
        0x00002f96:    2300        .#      MOVS     r3,#0
        0x00002f98:    6003        .`      STR      r3,[r0,#0]
        0x00002f9a:    6881        .h      LDR      r1,[r0,#8]
        0x00002f9c:    6041        A`      STR      r1,[r0,#4]
        0x00002f9e:    2201        ."      MOVS     r2,#1
        0x00002fa0:    60c2        .`      STR      r2,[r0,#0xc]
        0x00002fa2:    2109        .!      MOVS     r1,#9
        0x00002fa4:    6001        .`      STR      r1,[r0,#0]
        0x00002fa6:    68c1        .h      LDR      r1,[r0,#0xc]
        0x00002fa8:    2900        .)      CMP      r1,#0
        0x00002faa:    d0fc        ..      BEQ      0x2fa6 ; hfUnitDelay2 + 18
        0x00002fac:    6003        .`      STR      r3,[r0,#0]
        0x00002fae:    60c2        .`      STR      r2,[r0,#0xc]
        0x00002fb0:    4770        pG      BX       lr
    $d
        0x00002fb2:    0000        ..      DCW    0
        0x00002fb4:    40001000    ...@    DCD    1073745920
    $t
    i.img_init
    img_init
        0x00002fb8:    b57c        |.      PUSH     {r2-r6,lr}
        0x00002fba:    f44f407c    O.|@    MOV      r0,#0xfc00
        0x00002fbe:    2100        .!      MOVS     r1,#0
        0x00002fc0:    9000        ..      STR      r0,[sp,#0]
        0x00002fc2:    234f        O#      MOVS     r3,#0x4f
        0x00002fc4:    22f0        ."      MOVS     r2,#0xf0
        0x00002fc6:    4608        .F      MOV      r0,r1
        0x00002fc8:    f7fff9d4    ....    BL       LCD_fill ; 0x2374
        0x00002fcc:    f44f4001    O..@    MOV      r0,#0x8100
        0x00002fd0:    f24015df    @...    MOV      r5,#0x1df
        0x00002fd4:    9000        ..      STR      r0,[sp,#0]
        0x00002fd6:    234f        O#      MOVS     r3,#0x4f
        0x00002fd8:    462a        *F      MOV      r2,r5
        0x00002fda:    2100        .!      MOVS     r1,#0
        0x00002fdc:    20f0        .       MOVS     r0,#0xf0
        0x00002fde:    f7fff9c9    ....    BL       LCD_fill ; 0x2374
        0x00002fe2:    492b        +I      LDR      r1,[pc,#172] ; [0x3090] = 0x20000008
        0x00002fe4:    f64f70ff    O..p    MOV      r0,#0xffff
        0x00002fe8:    239f        .#      MOVS     r3,#0x9f
        0x00002fea:    6008        .`      STR      r0,[r1,#0]
        0x00002fec:    f44f5000    O..P    MOV      r0,#0x2000
        0x00002ff0:    9000        ..      STR      r0,[sp,#0]
        0x00002ff2:    462a        *F      MOV      r2,r5
        0x00002ff4:    2150        P!      MOVS     r1,#0x50
        0x00002ff6:    2000        .       MOVS     r0,#0
        0x00002ff8:    f7fff9bc    ....    BL       LCD_fill ; 0x2374
        0x00002ffc:    2450        P$      MOVS     r4,#0x50
        0x00002ffe:    a025        %.      ADR      r0,{pc}+0x96 ; 0x3094
        0x00003000:    e9cd0400    ....    STRD     r0,r4,[sp,#0]
        0x00003004:    2310        .#      MOVS     r3,#0x10
        0x00003006:    2220         "      MOVS     r2,#0x20
        0x00003008:    4619        .F      MOV      r1,r3
        0x0000300a:    2000        .       MOVS     r0,#0
        0x0000300c:    f7fff98c    ....    BL       LCD_ShowString ; 0x2328
        0x00003010:    a021        !.      ADR      r0,{pc}+0x88 ; 0x3098
        0x00003012:    e9cd0400    ....    STRD     r0,r4,[sp,#0]
        0x00003016:    2310        .#      MOVS     r3,#0x10
        0x00003018:    2220         "      MOVS     r2,#0x20
        0x0000301a:    4619        .F      MOV      r1,r3
        0x0000301c:    2050        P       MOVS     r0,#0x50
        0x0000301e:    f7fff983    ....    BL       LCD_ShowString ; 0x2328
        0x00003022:    f44f7080    O..p    MOV      r0,#0x100
        0x00003026:    9000        ..      STR      r0,[sp,#0]
        0x00003028:    23ef        .#      MOVS     r3,#0xef
        0x0000302a:    462a        *F      MOV      r2,r5
        0x0000302c:    21a0        .!      MOVS     r1,#0xa0
        0x0000302e:    2000        .       MOVS     r0,#0
        0x00003030:    f7fff9a0    ....    BL       LCD_fill ; 0x2374
        0x00003034:    a019        ..      ADR      r0,{pc}+0x68 ; 0x309c
        0x00003036:    e9cd0400    ....    STRD     r0,r4,[sp,#0]
        0x0000303a:    2220         "      MOVS     r2,#0x20
        0x0000303c:    2310        .#      MOVS     r3,#0x10
        0x0000303e:    4611        .F      MOV      r1,r2
        0x00003040:    2000        .       MOVS     r0,#0
        0x00003042:    f7fff971    ..q.    BL       LCD_ShowString ; 0x2328
        0x00003046:    a016        ..      ADR      r0,{pc}+0x5a ; 0x30a0
        0x00003048:    e9cd0400    ....    STRD     r0,r4,[sp,#0]
        0x0000304c:    2220         "      MOVS     r2,#0x20
        0x0000304e:    2310        .#      MOVS     r3,#0x10
        0x00003050:    4611        .F      MOV      r1,r2
        0x00003052:    2050        P       MOVS     r0,#0x50
        0x00003054:    f7fff968    ..h.    BL       LCD_ShowString ; 0x2328
        0x00003058:    2004        .       MOVS     r0,#4
        0x0000305a:    9000        ..      STR      r0,[sp,#0]
        0x0000305c:    f240133f    @.?.    MOV      r3,#0x13f
        0x00003060:    462a        *F      MOV      r2,r5
        0x00003062:    21f0        .!      MOVS     r1,#0xf0
        0x00003064:    2000        .       MOVS     r0,#0
        0x00003066:    f7fff985    ....    BL       LCD_fill ; 0x2374
        0x0000306a:    a00e        ..      ADR      r0,{pc}+0x3a ; 0x30a4
        0x0000306c:    e9cd0400    ....    STRD     r0,r4,[sp,#0]
        0x00003070:    2310        .#      MOVS     r3,#0x10
        0x00003072:    2220         "      MOVS     r2,#0x20
        0x00003074:    2130        0!      MOVS     r1,#0x30
        0x00003076:    2000        .       MOVS     r0,#0
        0x00003078:    f7fff956    ..V.    BL       LCD_ShowString ; 0x2328
        0x0000307c:    a00a        ..      ADR      r0,{pc}+0x2c ; 0x30a8
        0x0000307e:    e9cd0400    ....    STRD     r0,r4,[sp,#0]
        0x00003082:    2310        .#      MOVS     r3,#0x10
        0x00003084:    2220         "      MOVS     r2,#0x20
        0x00003086:    2130        0!      MOVS     r1,#0x30
        0x00003088:    2050        P       MOVS     r0,#0x50
        0x0000308a:    f7fff94d    ..M.    BL       LCD_ShowString ; 0x2328
        0x0000308e:    bd7c        |.      POP      {r2-r6,pc}
    $d
        0x00003090:    20000008    ...     DCD    536870920
        0x00003094:    00504d54    TMP.    DCD    5262676
        0x00003098:    00000043    C...    DCD    67
        0x0000309c:    00455250    PRE.    DCD    4543056
        0x000030a0:    00006150    Pa..    DCD    24912
        0x000030a4:    00482e52    R.H.    DCD    4730450
        0x000030a8:    00000025    %...    DCD    37
    $t
    i.ledRefreshTask
    ledRefreshTask
        0x000030ac:    2601        .&      MOVS     r6,#1
        0x000030ae:    f64f7aff    O..z    MOV      r10,#0xffff
        0x000030b2:    2700        .'      MOVS     r7,#0
        0x000030b4:    4654        TF      MOV      r4,r10
        0x000030b6:    4635        5F      MOV      r5,r6
        0x000030b8:    f8dfb128    ..(.    LDR      r11,[pc,#296] ; [0x31e4] = 0x40010000
        0x000030bc:    f8df9128    ..(.    LDR      r9,[pc,#296] ; [0x31e8] = 0x2000008c
        0x000030c0:    e004        ..      B        0x30cc ; ledRefreshTask + 32
        0x000030c2:    484a        JH      LDR      r0,[pc,#296] ; [0x31ec] = 0x2000538c
        0x000030c4:    f000ff2e    ....    BL       scd_send1Byte ; 0x3f24
        0x000030c8:    f8880001    ....    STRB     r0,[r8,#1]
        0x000030cc:    f8df8120    .. .    LDR      r8,[pc,#288] ; [0x31f0] = 0xc0020000
        0x000030d0:    f8980000    ....    LDRB     r0,[r8,#0]
        0x000030d4:    0780        ..      LSLS     r0,r0,#30
        0x000030d6:    d5f4        ..      BPL      0x30c2 ; ledRefreshTask + 22
        0x000030d8:    e003        ..      B        0x30e2 ; ledRefreshTask + 54
        0x000030da:    7841        Ax      LDRB     r1,[r0,#1]
        0x000030dc:    4843        CH      LDR      r0,[pc,#268] ; [0x31ec] = 0x2000538c
        0x000030de:    f7fffa0d    ....    BL       SCD_Rev1Byte ; 0x24fc
        0x000030e2:    f8981000    ....    LDRB     r1,[r8,#0]
        0x000030e6:    4640        @F      MOV      r0,r8
        0x000030e8:    06c9        ..      LSLS     r1,r1,#27
        0x000030ea:    d5f6        ..      BPL      0x30da ; ledRefreshTask + 46
        0x000030ec:    f001ff10    ....    BL       xTaskGetTickCount ; 0x4f10
        0x000030f0:    4680        .F      MOV      r8,r0
        0x000030f2:    2104        .!      MOVS     r1,#4
        0x000030f4:    4658        XF      MOV      r0,r11
        0x000030f6:    f7fefdb8    ....    BL       GPIO_ReadInputData ; 0x1c6a
        0x000030fa:    b900        ..      CBNZ     r0,0x30fe ; ledRefreshTask + 82
        0x000030fc:    4647        GF      MOV      r7,r8
        0x000030fe:    2105        .!      MOVS     r1,#5
        0x00003100:    4658        XF      MOV      r0,r11
        0x00003102:    f7fefdb2    ....    BL       GPIO_ReadInputData ; 0x1c6a
        0x00003106:    ea400044    @.D.    ORR      r0,r0,r4,LSL #1
        0x0000310a:    0404        ..      LSLS     r4,r0,#16
        0x0000310c:    0c24        $.      LSRS     r4,r4,#16
        0x0000310e:    d061        a.      BEQ      0x31d4 ; ledRefreshTask + 296
        0x00003110:    4554        TE      CMP      r4,r10
        0x00003112:    d100        ..      BNE      0x3116 ; ledRefreshTask + 106
        0x00003114:    2501        .%      MOVS     r5,#1
        0x00003116:    b11e        ..      CBZ      r6,0x3120 ; ledRefreshTask + 116
        0x00003118:    eba80107    ....    SUB      r1,r8,r7
        0x0000311c:    f8c91000    ....    STR      r1,[r9,#0]
        0x00003120:    f8d90000    ....    LDR      r0,[r9,#0]
        0x00003124:    220a        ."      MOVS     r2,#0xa
        0x00003126:    fbb0f1f2    ....    UDIV     r1,r0,r2
        0x0000312a:    fb020311    ....    MLS      r3,r2,r1,r0
        0x0000312e:    4931        1I      LDR      r1,[pc,#196] ; [0x31f4] = 0xc0010000
        0x00003130:    700b        .p      STRB     r3,[r1,#0]
        0x00003132:    fbb0f3f2    ....    UDIV     r3,r0,r2
        0x00003136:    fbb3fcf2    ....    UDIV     r12,r3,r2
        0x0000313a:    fb02331c    ...3    MLS      r3,r2,r12,r3
        0x0000313e:    704b        Kp      STRB     r3,[r1,#1]
        0x00003140:    2364        d#      MOVS     r3,#0x64
        0x00003142:    fbb0f3f3    ....    UDIV     r3,r0,r3
        0x00003146:    fbb3fcf2    ....    UDIV     r12,r3,r2
        0x0000314a:    fb02331c    ...3    MLS      r3,r2,r12,r3
        0x0000314e:    708b        .p      STRB     r3,[r1,#2]
        0x00003150:    f44f737a    O.zs    MOV      r3,#0x3e8
        0x00003154:    fbb0f3f3    ....    UDIV     r3,r0,r3
        0x00003158:    fbb3fcf2    ....    UDIV     r12,r3,r2
        0x0000315c:    fb02331c    ...3    MLS      r3,r2,r12,r3
        0x00003160:    f0430310    C...    ORR      r3,r3,#0x10
        0x00003164:    70cb        .p      STRB     r3,[r1,#3]
        0x00003166:    f2427310    B..s    MOV      r3,#0x2710
        0x0000316a:    fbb0f3f3    ....    UDIV     r3,r0,r3
        0x0000316e:    f04f0c06    O...    MOV      r12,#6
        0x00003172:    fbb3f8fc    ....    UDIV     r8,r3,r12
        0x00003176:    fb0c3318    ...3    MLS      r3,r12,r8,r3
        0x0000317a:    710b        .q      STRB     r3,[r1,#4]
        0x0000317c:    f64e2360    N.`#    MOV      r3,#0xea60
        0x00003180:    fbb0f3f3    ....    UDIV     r3,r0,r3
        0x00003184:    fbb3f8f2    ....    UDIV     r8,r3,r2
        0x00003188:    fb023318    ...3    MLS      r3,r2,r8,r3
        0x0000318c:    f0430310    C...    ORR      r3,r3,#0x10
        0x00003190:    714b        Kq      STRB     r3,[r1,#5]
        0x00003192:    4b19        .K      LDR      r3,[pc,#100] ; [0x31f8] = 0x927c0
        0x00003194:    fbb0f3f3    ....    UDIV     r3,r0,r3
        0x00003198:    fbb3f8fc    ....    UDIV     r8,r3,r12
        0x0000319c:    fb0c3318    ...3    MLS      r3,r12,r8,r3
        0x000031a0:    718b        .q      STRB     r3,[r1,#6]
        0x000031a2:    4b16        .K      LDR      r3,[pc,#88] ; [0x31fc] = 0x36ee80
        0x000031a4:    fbb0f3f3    ....    UDIV     r3,r0,r3
        0x000031a8:    fbb3fcf2    ....    UDIV     r12,r3,r2
        0x000031ac:    fb02321c    ...2    MLS      r2,r2,r12,r3
        0x000031b0:    f0420210    B...    ORR      r2,r2,#0x10
        0x000031b4:    71ca        .q      STRB     r2,[r1,#7]
        0x000031b6:    4a12        .J      LDR      r2,[pc,#72] ; [0x3200] = 0xc0030000
        0x000031b8:    8891        ..      LDRH     r1,[r2,#4]
        0x000031ba:    004b        K.      LSLS     r3,r1,#1
        0x000031bc:    fbb0fcf3    ....    UDIV     r12,r0,r3
        0x000031c0:    fb03001c    ....    MLS      r0,r3,r12,r0
        0x000031c4:    1a40        @.      SUBS     r0,r0,r1
        0x000031c6:    d500        ..      BPL      0x31ca ; ledRefreshTask + 286
        0x000031c8:    4240        @B      RSBS     r0,r0,#0
        0x000031ca:    8110        ..      STRH     r0,[r2,#8]
        0x000031cc:    2001        .       MOVS     r0,#1
        0x000031ce:    f001f943    ..C.    BL       vTaskDelay ; 0x4458
        0x000031d2:    e77b        {.      B        0x30cc ; ledRefreshTask + 32
        0x000031d4:    2d01        .-      CMP      r5,#1
        0x000031d6:    d101        ..      BNE      0x31dc ; ledRefreshTask + 304
        0x000031d8:    b116        ..      CBZ      r6,0x31e0 ; ledRefreshTask + 308
        0x000031da:    2600        .&      MOVS     r6,#0
        0x000031dc:    2500        .%      MOVS     r5,#0
        0x000031de:    e79a        ..      B        0x3116 ; ledRefreshTask + 106
        0x000031e0:    2601        .&      MOVS     r6,#1
        0x000031e2:    e7fb        ..      B        0x31dc ; ledRefreshTask + 304
    $d
        0x000031e4:    40010000    ...@    DCD    1073807360
        0x000031e8:    2000008c    ...     DCD    536871052
        0x000031ec:    2000538c    .S.     DCD    536892300
        0x000031f0:    c0020000    ....    DCD    3221356544
        0x000031f4:    c0010000    ....    DCD    3221291008
        0x000031f8:    000927c0    .'..    DCD    600000
        0x000031fc:    0036ee80    ..6.    DCD    3600000
        0x00003200:    c0030000    ....    DCD    3221422080
    $t
    i.main
    main
        0x00003204:    b51c        ..      PUSH     {r2-r4,lr}
        0x00003206:    4823        #H      LDR      r0,[pc,#140] ; [0x3294] = 0x40010000
        0x00003208:    f7fefd20    .. .    BL       GPIO_DeInit ; 0x1c4c
        0x0000320c:    f000f8f6    ....    BL       nvicInit ; 0x33fc
        0x00003210:    f001f80c    ....    BL       uart0_init ; 0x422c
        0x00003214:    a020         .      ADR      r0,{pc}+0x84 ; 0x3298
        0x00003216:    f7fdf865    ..e.    BL       __2printf ; 0x2e4
        0x0000321a:    f000f869    ..i.    BL       mem_addr16b_test ; 0x32f0
        0x0000321e:    9000        ..      STR      r0,[sp,#0]
        0x00003220:    b100        ..      CBZ      r0,0x3224 ; main + 32
        0x00003222:    e7fe        ..      B        0x3222 ; main + 30
        0x00003224:    f001f820    .. .    BL       uart_ahb_init ; 0x4268
        0x00003228:    f7fffe86    ....    BL       epwm_ahb_init ; 0x2f38
        0x0000322c:    f000fe4a    ..J.    BL       scd_init_1 ; 0x3ec4
        0x00003230:    f7feff12    ....    BL       LCD_Init ; 0x2058
        0x00003234:    f7fffec0    ....    BL       img_init ; 0x2fb8
        0x00003238:    f7fefdcc    ....    BL       GT911_init ; 0x1dd4
        0x0000323c:    f7fefbee    ....    BL       BME280_Init ; 0x1a1c
        0x00003240:    491b        .I      LDR      r1,[pc,#108] ; [0x32b0] = 0x200000a0
        0x00003242:    2002        .       MOVS     r0,#2
        0x00003244:    e9cd0100    ....    STRD     r0,r1,[sp,#0]
        0x00003248:    2300        .#      MOVS     r3,#0
        0x0000324a:    2280        ."      MOVS     r2,#0x80
        0x0000324c:    a119        ..      ADR      r1,{pc}+0x68 ; 0x32b4
        0x0000324e:    481d        .H      LDR      r0,[pc,#116] ; [0x32c4] = 0x40f5
        0x00003250:    f001fe1e    ....    BL       xTaskCreate ; 0x4e90
        0x00003254:    4916        .I      LDR      r1,[pc,#88] ; [0x32b0] = 0x200000a0
        0x00003256:    2005        .       MOVS     r0,#5
        0x00003258:    1d09        ..      ADDS     r1,r1,#4
        0x0000325a:    e9cd0100    ....    STRD     r0,r1,[sp,#0]
        0x0000325e:    2300        .#      MOVS     r3,#0
        0x00003260:    2280        ."      MOVS     r2,#0x80
        0x00003262:    a119        ..      ADR      r1,{pc}+0x66 ; 0x32c8
        0x00003264:    481c        .H      LDR      r0,[pc,#112] ; [0x32d8] = 0x2dad
        0x00003266:    f001fe13    ....    BL       xTaskCreate ; 0x4e90
        0x0000326a:    4911        .I      LDR      r1,[pc,#68] ; [0x32b0] = 0x200000a0
        0x0000326c:    2001        .       MOVS     r0,#1
        0x0000326e:    3108        .1      ADDS     r1,r1,#8
        0x00003270:    e9cd0100    ....    STRD     r0,r1,[sp,#0]
        0x00003274:    2300        .#      MOVS     r3,#0
        0x00003276:    2280        ."      MOVS     r2,#0x80
        0x00003278:    a118        ..      ADR      r1,{pc}+0x64 ; 0x32dc
        0x0000327a:    481c        .H      LDR      r0,[pc,#112] ; [0x32ec] = 0x30ad
        0x0000327c:    f001fe08    ....    BL       xTaskCreate ; 0x4e90
        0x00003280:    2001        .       MOVS     r0,#1
        0x00003282:    f001fb1d    ....    BL       xQueueCreateMutex ; 0x48c0
        0x00003286:    490a        .I      LDR      r1,[pc,#40] ; [0x32b0] = 0x200000a0
        0x00003288:    3914        .9      SUBS     r1,r1,#0x14
        0x0000328a:    6208        .b      STR      r0,[r1,#0x20]
        0x0000328c:    f001f9ba    ....    BL       vTaskStartScheduler ; 0x4604
        0x00003290:    e7fe        ..      B        0x3290 ; main + 140
    $d
        0x00003292:    0000        ..      DCW    0
        0x00003294:    40010000    ...@    DCD    1073807360
        0x00003298:    5a354153    SA5Z    DCD    1513439571
        0x0000329c:    43203033    30 C    DCD    1126182963
        0x000032a0:    462b334d    M3+F    DCD    1177236301
        0x000032a4:    20414750    PGA     DCD    541149008
        0x000032a8:    54534554    TEST    DCD    1414743380
        0x000032ac:    00000a0d    ....    DCD    2573
        0x000032b0:    200000a0    ...     DCD    536871072
        0x000032b4:    63756f74    touc    DCD    1668640628
        0x000032b8:    66655268    hRef    DCD    1717916264
        0x000032bc:    68736572    resh    DCD    1752393074
        0x000032c0:    00000000    ....    DCD    0
        0x000032c4:    000040f5    .@..    DCD    16629
        0x000032c8:    32454d42    BME2    DCD    843402562
        0x000032cc:    65523038    80Re    DCD    1699885112
        0x000032d0:    73657266    fres    DCD    1936028262
        0x000032d4:    00000068    h...    DCD    104
        0x000032d8:    00002dad    .-..    DCD    11693
        0x000032dc:    5264656c    ledR    DCD    1382311276
        0x000032e0:    65726665    efre    DCD    1701996133
        0x000032e4:    61546873    shTa    DCD    1632921715
        0x000032e8:    00006b73    sk..    DCD    27507
        0x000032ec:    000030ad    .0..    DCD    12461
    $t
    i.mem_addr16b_test
    mem_addr16b_test
        0x000032f0:    e92d47f0    -..G    PUSH     {r4-r10,lr}
        0x000032f4:    f04f4420    O. D    MOV      r4,#0xa0000000
        0x000032f8:    2613        .&      MOVS     r6,#0x13
        0x000032fa:    2500        .%      MOVS     r5,#0
        0x000032fc:    f44f1180    O...    MOV      r1,#0x100000
        0x00003300:    4620         F      MOV      r0,r4
        0x00003302:    f7fdf9d2    ....    BL       __aeabi_memclr4 ; 0x6aa
        0x00003306:    20aa        .       MOVS     r0,#0xaa
        0x00003308:    2100        .!      MOVS     r1,#0
        0x0000330a:    f04f0c01    O...    MOV      r12,#1
        0x0000330e:    f44f2200    O.."    MOV      r2,#0x80000
        0x00003312:    1cb7        ..      ADDS     r7,r6,#2
        0x00003314:    e009        ..      B        0x332a ; mem_addr16b_test + 58
        0x00003316:    54a0        .T      STRB     r0,[r4,r2]
        0x00003318:    0852        R.      LSRS     r2,r2,#1
        0x0000331a:    0603        ..      LSLS     r3,r0,#24
        0x0000331c:    d502        ..      BPL      0x3324 ; mem_addr16b_test + 52
        0x0000331e:    eb0c0040    ..@.    ADD      r0,r12,r0,LSL #1
        0x00003322:    e000        ..      B        0x3326 ; mem_addr16b_test + 54
        0x00003324:    0040        @.      LSLS     r0,r0,#1
        0x00003326:    b2c0        ..      UXTB     r0,r0
        0x00003328:    1c49        I.      ADDS     r1,r1,#1
        0x0000332a:    42b9        .B      CMP      r1,r7
        0x0000332c:    d3f3        ..      BCC      0x3316 ; mem_addr16b_test + 38
        0x0000332e:    fa0cf106    ....    LSL      r1,r12,r6
        0x00003332:    20aa        .       MOVS     r0,#0xaa
        0x00003334:    460b        .F      MOV      r3,r1
        0x00003336:    2200        ."      MOVS     r2,#0
        0x00003338:    e00e        ..      B        0x3358 ; mem_addr16b_test + 104
        0x0000333a:    f8148001    ....    LDRB     r8,[r4,r1]
        0x0000333e:    4580        .E      CMP      r8,r0
        0x00003340:    d000        ..      BEQ      0x3344 ; mem_addr16b_test + 84
        0x00003342:    1c6d        m.      ADDS     r5,r5,#1
        0x00003344:    0849        I.      LSRS     r1,r1,#1
        0x00003346:    ea5f6800    _..h    LSLS     r8,r0,#24
        0x0000334a:    d502        ..      BPL      0x3352 ; mem_addr16b_test + 98
        0x0000334c:    eb0c0040    ..@.    ADD      r0,r12,r0,LSL #1
        0x00003350:    e000        ..      B        0x3354 ; mem_addr16b_test + 100
        0x00003352:    0040        @.      LSLS     r0,r0,#1
        0x00003354:    b2c0        ..      UXTB     r0,r0
        0x00003356:    1c52        R.      ADDS     r2,r2,#1
        0x00003358:    42ba        .B      CMP      r2,r7
        0x0000335a:    d3ee        ..      BCC      0x333a ; mem_addr16b_test + 74
        0x0000335c:    f64a29aa    J..)    MOV      r9,#0xaaaa
        0x00003360:    4619        .F      MOV      r1,r3
        0x00003362:    4648        HF      MOV      r0,r9
        0x00003364:    2200        ."      MOVS     r2,#0
        0x00003366:    f64f78ff    O..x    MOV      r8,#0xffff
        0x0000336a:    e00a        ..      B        0x3382 ; mem_addr16b_test + 146
        0x0000336c:    5260        `R      STRH     r0,[r4,r1]
        0x0000336e:    0849        I.      LSRS     r1,r1,#1
        0x00003370:    0407        ..      LSLS     r7,r0,#16
        0x00003372:    d503        ..      BPL      0x337c ; mem_addr16b_test + 140
        0x00003374:    eb0c0040    ..@.    ADD      r0,r12,r0,LSL #1
        0x00003378:    b280        ..      UXTH     r0,r0
        0x0000337a:    e001        ..      B        0x3380 ; mem_addr16b_test + 144
        0x0000337c:    ea080040    ..@.    AND      r0,r8,r0,LSL #1
        0x00003380:    1c52        R.      ADDS     r2,r2,#1
        0x00003382:    42b2        .B      CMP      r2,r6
        0x00003384:    d3f2        ..      BCC      0x336c ; mem_addr16b_test + 124
        0x00003386:    4619        .F      MOV      r1,r3
        0x00003388:    4648        HF      MOV      r0,r9
        0x0000338a:    2200        ."      MOVS     r2,#0
        0x0000338c:    e00d        ..      B        0x33aa ; mem_addr16b_test + 186
        0x0000338e:    5a67        gZ      LDRH     r7,[r4,r1]
        0x00003390:    4287        .B      CMP      r7,r0
        0x00003392:    d000        ..      BEQ      0x3396 ; mem_addr16b_test + 166
        0x00003394:    1c6d        m.      ADDS     r5,r5,#1
        0x00003396:    0849        I.      LSRS     r1,r1,#1
        0x00003398:    0407        ..      LSLS     r7,r0,#16
        0x0000339a:    d503        ..      BPL      0x33a4 ; mem_addr16b_test + 180
        0x0000339c:    eb0c0040    ..@.    ADD      r0,r12,r0,LSL #1
        0x000033a0:    b280        ..      UXTH     r0,r0
        0x000033a2:    e001        ..      B        0x33a8 ; mem_addr16b_test + 184
        0x000033a4:    ea080040    ..@.    AND      r0,r8,r0,LSL #1
        0x000033a8:    1c52        R.      ADDS     r2,r2,#1
        0x000033aa:    42b2        .B      CMP      r2,r6
        0x000033ac:    d3ef        ..      BCC      0x338e ; mem_addr16b_test + 158
        0x000033ae:    f04f38aa    O..8    MOV      r8,#0xaaaaaaaa
        0x000033b2:    2200        ."      MOVS     r2,#0
        0x000033b4:    4619        .F      MOV      r1,r3
        0x000033b6:    4640        @F      MOV      r0,r8
        0x000033b8:    1e76        v.      SUBS     r6,r6,#1
        0x000033ba:    e008        ..      B        0x33ce ; mem_addr16b_test + 222
        0x000033bc:    5060        `P      STR      r0,[r4,r1]
        0x000033be:    0849        I.      LSRS     r1,r1,#1
        0x000033c0:    2800        .(      CMP      r0,#0
        0x000033c2:    da02        ..      BGE      0x33ca ; mem_addr16b_test + 218
        0x000033c4:    eb0c0040    ..@.    ADD      r0,r12,r0,LSL #1
        0x000033c8:    e000        ..      B        0x33cc ; mem_addr16b_test + 220
        0x000033ca:    0040        @.      LSLS     r0,r0,#1
        0x000033cc:    1c52        R.      ADDS     r2,r2,#1
        0x000033ce:    42b2        .B      CMP      r2,r6
        0x000033d0:    d3f4        ..      BCC      0x33bc ; mem_addr16b_test + 204
        0x000033d2:    2000        .       MOVS     r0,#0
        0x000033d4:    e00d        ..      B        0x33f2 ; mem_addr16b_test + 258
        0x000033d6:    58e1        .X      LDR      r1,[r4,r3]
        0x000033d8:    4541        AE      CMP      r1,r8
        0x000033da:    d000        ..      BEQ      0x33de ; mem_addr16b_test + 238
        0x000033dc:    1c6d        m.      ADDS     r5,r5,#1
        0x000033de:    085b        [.      LSRS     r3,r3,#1
        0x000033e0:    f1b80f00    ....    CMP      r8,#0
        0x000033e4:    da02        ..      BGE      0x33ec ; mem_addr16b_test + 252
        0x000033e6:    eb0c0848    ..H.    ADD      r8,r12,r8,LSL #1
        0x000033ea:    e001        ..      B        0x33f0 ; mem_addr16b_test + 256
        0x000033ec:    ea4f0848    O.H.    LSL      r8,r8,#1
        0x000033f0:    1c40        @.      ADDS     r0,r0,#1
        0x000033f2:    42b0        .B      CMP      r0,r6
        0x000033f4:    d3ef        ..      BCC      0x33d6 ; mem_addr16b_test + 230
        0x000033f6:    4628        (F      MOV      r0,r5
        0x000033f8:    e8bd87f0    ....    POP      {r4-r10,pc}
    i.nvicInit
    nvicInit
        0x000033fc:    b538        8.      PUSH     {r3-r5,lr}
        0x000033fe:    490d        .I      LDR      r1,[pc,#52] ; [0x3434] = 0xe000ed0c
        0x00003400:    6808        .h      LDR      r0,[r1,#0]
        0x00003402:    f64f02ff    O...    MOV      r2,#0xf8ff
        0x00003406:    4010        .@      ANDS     r0,r0,r2
        0x00003408:    4a0b        .J      LDR      r2,[pc,#44] ; [0x3438] = 0x5fa0000
        0x0000340a:    4310        .C      ORRS     r0,r0,r2
        0x0000340c:    6008        .`      STR      r0,[r1,#0]
        0x0000340e:    2000        .       MOVS     r0,#0
        0x00003410:    f88d0000    ....    STRB     r0,[sp,#0]
        0x00003414:    2401        .$      MOVS     r4,#1
        0x00003416:    f88d4001    ...@    STRB     r4,[sp,#1]
        0x0000341a:    f88d0002    ....    STRB     r0,[sp,#2]
        0x0000341e:    f88d4003    ...@    STRB     r4,[sp,#3]
        0x00003422:    4668        hF      MOV      r0,sp
        0x00003424:    f7feffba    ....    BL       NVIC_Init ; 0x239c
        0x00003428:    f04f20e0    O..     MOV      r0,#0xe000e000
        0x0000342c:    f8c04280    ...B    STR      r4,[r0,#0x280]
        0x00003430:    bd38        8.      POP      {r3-r5,pc}
    $d
        0x00003432:    0000        ..      DCW    0
        0x00003434:    e000ed0c    ....    DCD    3758157068
        0x00003438:    05fa0000    ....    DCD    100270080
    $t
    i.prvAddCurrentTaskToDelayedList
    prvAddCurrentTaskToDelayedList
        0x0000343c:    e92d47f0    -..G    PUSH     {r4-r10,lr}
        0x00003440:    4e22        "N      LDR      r6,[pc,#136] ; [0x34cc] = 0x20000038
        0x00003442:    460f        .F      MOV      r7,r1
        0x00003444:    4604        .F      MOV      r4,r0
        0x00003446:    68f5        .h      LDR      r5,[r6,#0xc]
        0x00003448:    f8d69034    ..4.    LDR      r9,[r6,#0x34]
        0x0000344c:    f8d68038    ..8.    LDR      r8,[r6,#0x38]
        0x00003450:    6831        1h      LDR      r1,[r6,#0]
        0x00003452:    2000        .       MOVS     r0,#0
        0x00003454:    f8810051    ..Q.    STRB     r0,[r1,#0x51]
        0x00003458:    6830        0h      LDR      r0,[r6,#0]
        0x0000345a:    1d00        ..      ADDS     r0,r0,#4
        0x0000345c:    f000ff16    ....    BL       uxListRemove ; 0x428c
        0x00003460:    b938        8.      CBNZ     r0,0x3472 ; prvAddCurrentTaskToDelayedList + 54
        0x00003462:    6830        0h      LDR      r0,[r6,#0]
        0x00003464:    f890102c    ..,.    LDRB     r1,[r0,#0x2c]
        0x00003468:    2001        .       MOVS     r0,#1
        0x0000346a:    4088        .@      LSLS     r0,r0,r1
        0x0000346c:    6931        1i      LDR      r1,[r6,#0x10]
        0x0000346e:    4381        .C      BICS     r1,r1,r0
        0x00003470:    6131        1a      STR      r1,[r6,#0x10]
        0x00003472:    1c60        `.      ADDS     r0,r4,#1
        0x00003474:    d115        ..      BNE      0x34a2 ; prvAddCurrentTaskToDelayedList + 102
        0x00003476:    b1a7        ..      CBZ      r7,0x34a2 ; prvAddCurrentTaskToDelayedList + 102
        0x00003478:    4915        .I      LDR      r1,[pc,#84] ; [0x34d0] = 0x20005264
        0x0000347a:    6832        2h      LDR      r2,[r6,#0]
        0x0000347c:    6848        Hh      LDR      r0,[r1,#4]
        0x0000347e:    6090        .`      STR      r0,[r2,#8]
        0x00003480:    6833        3h      LDR      r3,[r6,#0]
        0x00003482:    6882        .h      LDR      r2,[r0,#8]
        0x00003484:    60da        .`      STR      r2,[r3,#0xc]
        0x00003486:    6832        2h      LDR      r2,[r6,#0]
        0x00003488:    6883        .h      LDR      r3,[r0,#8]
        0x0000348a:    1d12        ..      ADDS     r2,r2,#4
        0x0000348c:    605a        Z`      STR      r2,[r3,#4]
        0x0000348e:    6832        2h      LDR      r2,[r6,#0]
        0x00003490:    1d12        ..      ADDS     r2,r2,#4
        0x00003492:    6082        .`      STR      r2,[r0,#8]
        0x00003494:    6830        0h      LDR      r0,[r6,#0]
        0x00003496:    6141        Aa      STR      r1,[r0,#0x14]
        0x00003498:    6808        .h      LDR      r0,[r1,#0]
        0x0000349a:    1c40        @.      ADDS     r0,r0,#1
        0x0000349c:    6008        .`      STR      r0,[r1,#0]
        0x0000349e:    e8bd87f0    ....    POP      {r4-r10,pc}
        0x000034a2:    6830        0h      LDR      r0,[r6,#0]
        0x000034a4:    442c        ,D      ADD      r4,r4,r5
        0x000034a6:    42ac        .B      CMP      r4,r5
        0x000034a8:    6044        D`      STR      r4,[r0,#4]
        0x000034aa:    6831        1h      LDR      r1,[r6,#0]
        0x000034ac:    d205        ..      BCS      0x34ba ; prvAddCurrentTaskToDelayedList + 126
        0x000034ae:    4640        @F      MOV      r0,r8
        0x000034b0:    e8bd47f0    ...G    POP      {r4-r10,lr}
        0x000034b4:    1d09        ..      ADDS     r1,r1,#4
        0x000034b6:    f000bf11    ....    B.W      vListInsert ; 0x42dc
        0x000034ba:    4648        HF      MOV      r0,r9
        0x000034bc:    1d09        ..      ADDS     r1,r1,#4
        0x000034be:    f000ff0d    ....    BL       vListInsert ; 0x42dc
        0x000034c2:    6ab0        .j      LDR      r0,[r6,#0x28]
        0x000034c4:    4284        .B      CMP      r4,r0
        0x000034c6:    d2ea        ..      BCS      0x349e ; prvAddCurrentTaskToDelayedList + 98
        0x000034c8:    62b4        .b      STR      r4,[r6,#0x28]
        0x000034ca:    e7e8        ..      B        0x349e ; prvAddCurrentTaskToDelayedList + 98
    $d
        0x000034cc:    20000038    8..     DCD    536870968
        0x000034d0:    20005264    dR.     DCD    536892004
    $t
    i.prvAddNewTaskToReadyList
    prvAddNewTaskToReadyList
        0x000034d4:    e92d41f0    -..A    PUSH     {r4-r8,lr}
        0x000034d8:    4604        .F      MOV      r4,r0
        0x000034da:    f000ff17    ....    BL       vPortEnterCritical ; 0x430c
        0x000034de:    4e35        5N      LDR      r6,[pc,#212] ; [0x35b4] = 0x20000038
        0x000034e0:    68b0        .h      LDR      r0,[r6,#8]
        0x000034e2:    1c40        @.      ADDS     r0,r0,#1
        0x000034e4:    60b0        .`      STR      r0,[r6,#8]
        0x000034e6:    6830        0h      LDR      r0,[r6,#0]
        0x000034e8:    4f33        3O      LDR      r7,[pc,#204] ; [0x35b8] = 0x20005114
        0x000034ea:    b110        ..      CBZ      r0,0x34f2 ; prvAddNewTaskToReadyList + 30
        0x000034ec:    6970        pi      LDR      r0,[r6,#0x14]
        0x000034ee:    b338        8.      CBZ      r0,0x3540 ; prvAddNewTaskToReadyList + 108
        0x000034f0:    e02c        ,.      B        0x354c ; prvAddNewTaskToReadyList + 120
        0x000034f2:    6034        4`      STR      r4,[r6,#0]
        0x000034f4:    68b0        .h      LDR      r0,[r6,#8]
        0x000034f6:    2801        .(      CMP      r0,#1
        0x000034f8:    d128        (.      BNE      0x354c ; prvAddNewTaskToReadyList + 120
        0x000034fa:    2500        .%      MOVS     r5,#0
        0x000034fc:    ebc500c5    ....    RSB      r0,r5,r5,LSL #3
        0x00003500:    eb070080    ....    ADD      r0,r7,r0,LSL #2
        0x00003504:    f000feda    ....    BL       vListInitialise ; 0x42bc
        0x00003508:    1c6d        m.      ADDS     r5,r5,#1
        0x0000350a:    2d08        .-      CMP      r5,#8
        0x0000350c:    d3f6        ..      BCC      0x34fc ; prvAddNewTaskToReadyList + 40
        0x0000350e:    482a        *H      LDR      r0,[pc,#168] ; [0x35b8] = 0x20005114
        0x00003510:    30e0        .0      ADDS     r0,r0,#0xe0
        0x00003512:    f000fed3    ....    BL       vListInitialise ; 0x42bc
        0x00003516:    4828        (H      LDR      r0,[pc,#160] ; [0x35b8] = 0x20005114
        0x00003518:    30fc        .0      ADDS     r0,r0,#0xfc
        0x0000351a:    f000fecf    ....    BL       vListInitialise ; 0x42bc
        0x0000351e:    4827        'H      LDR      r0,[pc,#156] ; [0x35bc] = 0x2000522c
        0x00003520:    f000fecc    ....    BL       vListInitialise ; 0x42bc
        0x00003524:    4825        %H      LDR      r0,[pc,#148] ; [0x35bc] = 0x2000522c
        0x00003526:    301c        .0      ADDS     r0,r0,#0x1c
        0x00003528:    f000fec8    ....    BL       vListInitialise ; 0x42bc
        0x0000352c:    4823        #H      LDR      r0,[pc,#140] ; [0x35bc] = 0x2000522c
        0x0000352e:    3038        80      ADDS     r0,r0,#0x38
        0x00003530:    f000fec4    ....    BL       vListInitialise ; 0x42bc
        0x00003534:    4821        !H      LDR      r0,[pc,#132] ; [0x35bc] = 0x2000522c
        0x00003536:    3838        88      SUBS     r0,r0,#0x38
        0x00003538:    6370        pc      STR      r0,[r6,#0x34]
        0x0000353a:    301c        .0      ADDS     r0,r0,#0x1c
        0x0000353c:    63b0        .c      STR      r0,[r6,#0x38]
        0x0000353e:    e005        ..      B        0x354c ; prvAddNewTaskToReadyList + 120
        0x00003540:    6830        0h      LDR      r0,[r6,#0]
        0x00003542:    6ae1        .j      LDR      r1,[r4,#0x2c]
        0x00003544:    6ac0        .j      LDR      r0,[r0,#0x2c]
        0x00003546:    4288        .B      CMP      r0,r1
        0x00003548:    d800        ..      BHI      0x354c ; prvAddNewTaskToReadyList + 120
        0x0000354a:    6034        4`      STR      r4,[r6,#0]
        0x0000354c:    6a70        pj      LDR      r0,[r6,#0x24]
        0x0000354e:    2101        .!      MOVS     r1,#1
        0x00003550:    1c40        @.      ADDS     r0,r0,#1
        0x00003552:    6270        pb      STR      r0,[r6,#0x24]
        0x00003554:    6ae0        .j      LDR      r0,[r4,#0x2c]
        0x00003556:    6932        2i      LDR      r2,[r6,#0x10]
        0x00003558:    4081        .@      LSLS     r1,r1,r0
        0x0000355a:    4311        .C      ORRS     r1,r1,r2
        0x0000355c:    6131        1a      STR      r1,[r6,#0x10]
        0x0000355e:    ebc000c0    ....    RSB      r0,r0,r0,LSL #3
        0x00003562:    eb070080    ....    ADD      r0,r7,r0,LSL #2
        0x00003566:    6840        @h      LDR      r0,[r0,#4]
        0x00003568:    60a0        .`      STR      r0,[r4,#8]
        0x0000356a:    6881        .h      LDR      r1,[r0,#8]
        0x0000356c:    60e1        .`      STR      r1,[r4,#0xc]
        0x0000356e:    6882        .h      LDR      r2,[r0,#8]
        0x00003570:    1d21        !.      ADDS     r1,r4,#4
        0x00003572:    6051        Q`      STR      r1,[r2,#4]
        0x00003574:    6081        .`      STR      r1,[r0,#8]
        0x00003576:    6ae0        .j      LDR      r0,[r4,#0x2c]
        0x00003578:    ebc000c0    ....    RSB      r0,r0,r0,LSL #3
        0x0000357c:    eb070180    ....    ADD      r1,r7,r0,LSL #2
        0x00003580:    6161        aa      STR      r1,[r4,#0x14]
        0x00003582:    f8571020    W. .    LDR      r1,[r7,r0,LSL #2]
        0x00003586:    1c49        I.      ADDS     r1,r1,#1
        0x00003588:    f8471020    G. .    STR      r1,[r7,r0,LSL #2]
        0x0000358c:    f000fede    ....    BL       vPortExitCritical ; 0x434c
        0x00003590:    6970        pi      LDR      r0,[r6,#0x14]
        0x00003592:    2800        .(      CMP      r0,#0
        0x00003594:    d00c        ..      BEQ      0x35b0 ; prvAddNewTaskToReadyList + 220
        0x00003596:    6830        0h      LDR      r0,[r6,#0]
        0x00003598:    6ae1        .j      LDR      r1,[r4,#0x2c]
        0x0000359a:    6ac0        .j      LDR      r0,[r0,#0x2c]
        0x0000359c:    4288        .B      CMP      r0,r1
        0x0000359e:    d207        ..      BCS      0x35b0 ; prvAddNewTaskToReadyList + 220
        0x000035a0:    4907        .I      LDR      r1,[pc,#28] ; [0x35c0] = 0xe000ed04
        0x000035a2:    f04f5080    O..P    MOV      r0,#0x10000000
        0x000035a6:    6008        .`      STR      r0,[r1,#0]
        0x000035a8:    f3bf8f4f    ..O.    DSB      
        0x000035ac:    f3bf8f6f    ..o.    ISB      
        0x000035b0:    e8bd81f0    ....    POP      {r4-r8,pc}
    $d
        0x000035b4:    20000038    8..     DCD    536870968
        0x000035b8:    20005114    .Q.     DCD    536891668
        0x000035bc:    2000522c    ,R.     DCD    536891948
        0x000035c0:    e000ed04    ....    DCD    3758157060
    $t
    i.prvCheckForValidListAndQueue
    prvCheckForValidListAndQueue
        0x000035c4:    b510        ..      PUSH     {r4,lr}
        0x000035c6:    f000fea1    ....    BL       vPortEnterCritical ; 0x430c
        0x000035ca:    4c0c        .L      LDR      r4,[pc,#48] ; [0x35fc] = 0x20000078
        0x000035cc:    6820         h      LDR      r0,[r4,#0]
        0x000035ce:    b980        ..      CBNZ     r0,0x35f2 ; prvCheckForValidListAndQueue + 46
        0x000035d0:    480b        .H      LDR      r0,[pc,#44] ; [0x3600] = 0x20005280
        0x000035d2:    f000fe73    ..s.    BL       vListInitialise ; 0x42bc
        0x000035d6:    480a        .H      LDR      r0,[pc,#40] ; [0x3600] = 0x20005280
        0x000035d8:    301c        .0      ADDS     r0,r0,#0x1c
        0x000035da:    f000fe6f    ..o.    BL       vListInitialise ; 0x42bc
        0x000035de:    4808        .H      LDR      r0,[pc,#32] ; [0x3600] = 0x20005280
        0x000035e0:    60e0        .`      STR      r0,[r4,#0xc]
        0x000035e2:    301c        .0      ADDS     r0,r0,#0x1c
        0x000035e4:    6120         a      STR      r0,[r4,#0x10]
        0x000035e6:    2200        ."      MOVS     r2,#0
        0x000035e8:    2110        .!      MOVS     r1,#0x10
        0x000035ea:    200a        .       MOVS     r0,#0xa
        0x000035ec:    f001f97a    ..z.    BL       xQueueGenericCreate ; 0x48e4
        0x000035f0:    6020         `      STR      r0,[r4,#0]
        0x000035f2:    e8bd4010    ...@    POP      {r4,lr}
        0x000035f6:    f000bea9    ....    B.W      vPortExitCritical ; 0x434c
    $d
        0x000035fa:    0000        ..      DCW    0
        0x000035fc:    20000078    x..     DCD    536871032
        0x00003600:    20005280    .R.     DCD    536892032
    $t
    i.prvCheckTasksWaitingTermination
    prvCheckTasksWaitingTermination
        0x00003604:    b570        p.      PUSH     {r4-r6,lr}
        0x00003606:    4d0c        .M      LDR      r5,[pc,#48] ; [0x3638] = 0x20000038
        0x00003608:    4e0c        .N      LDR      r6,[pc,#48] ; [0x363c] = 0x20005248
        0x0000360a:    e011        ..      B        0x3630 ; prvCheckTasksWaitingTermination + 44
        0x0000360c:    f000fe7e    ..~.    BL       vPortEnterCritical ; 0x430c
        0x00003610:    68f0        .h      LDR      r0,[r6,#0xc]
        0x00003612:    68c4        .h      LDR      r4,[r0,#0xc]
        0x00003614:    1d20         .      ADDS     r0,r4,#4
        0x00003616:    f000fe39    ..9.    BL       uxListRemove ; 0x428c
        0x0000361a:    68a8        .h      LDR      r0,[r5,#8]
        0x0000361c:    1e40        @.      SUBS     r0,r0,#1
        0x0000361e:    60a8        .`      STR      r0,[r5,#8]
        0x00003620:    6868        hh      LDR      r0,[r5,#4]
        0x00003622:    1e40        @.      SUBS     r0,r0,#1
        0x00003624:    6068        h`      STR      r0,[r5,#4]
        0x00003626:    f000fe91    ....    BL       vPortExitCritical ; 0x434c
        0x0000362a:    4620         F      MOV      r0,r4
        0x0000362c:    f000f851    ..Q.    BL       prvDeleteTCB ; 0x36d2
        0x00003630:    6868        hh      LDR      r0,[r5,#4]
        0x00003632:    2800        .(      CMP      r0,#0
        0x00003634:    d1ea        ..      BNE      0x360c ; prvCheckTasksWaitingTermination + 8
        0x00003636:    bd70        p.      POP      {r4-r6,pc}
    $d
        0x00003638:    20000038    8..     DCD    536870968
        0x0000363c:    20005248    HR.     DCD    536891976
    $t
    i.prvCopyDataFromQueue
    prvCopyDataFromQueue
        0x00003640:    b430        0.      PUSH     {r4,r5}
        0x00003642:    6d02        .m      LDR      r2,[r0,#0x50]
        0x00003644:    460b        .F      MOV      r3,r1
        0x00003646:    2a00        .*      CMP      r2,#0
        0x00003648:    d00b        ..      BEQ      0x3662 ; prvCopyDataFromQueue + 34
        0x0000364a:    68c1        .h      LDR      r1,[r0,#0xc]
        0x0000364c:    4411        .D      ADD      r1,r1,r2
        0x0000364e:    60c1        .`      STR      r1,[r0,#0xc]
        0x00003650:    6884        .h      LDR      r4,[r0,#8]
        0x00003652:    42a1        .B      CMP      r1,r4
        0x00003654:    d301        ..      BCC      0x365a ; prvCopyDataFromQueue + 26
        0x00003656:    6801        .h      LDR      r1,[r0,#0]
        0x00003658:    60c1        .`      STR      r1,[r0,#0xc]
        0x0000365a:    bc30        0.      POP      {r4,r5}
        0x0000365c:    4618        .F      MOV      r0,r3
        0x0000365e:    f7fcbfb5    ....    B        __aeabi_memcpy ; 0x5cc
        0x00003662:    bc30        0.      POP      {r4,r5}
        0x00003664:    4770        pG      BX       lr
    i.prvCopyDataToQueue
    prvCopyDataToQueue
        0x00003666:    e92d41f0    -..A    PUSH     {r4-r8,lr}
        0x0000366a:    6c85        .l      LDR      r5,[r0,#0x48]
        0x0000366c:    4617        .F      MOV      r7,r2
        0x0000366e:    4604        .F      MOV      r4,r0
        0x00003670:    2600        .&      MOVS     r6,#0
        0x00003672:    6d02        .m      LDR      r2,[r0,#0x50]
        0x00003674:    b182        ..      CBZ      r2,0x3698 ; prvCopyDataToQueue + 50
        0x00003676:    b1c7        ..      CBZ      r7,0x36aa ; prvCopyDataToQueue + 68
        0x00003678:    68e0        .h      LDR      r0,[r4,#0xc]
        0x0000367a:    f7fcffa7    ....    BL       __aeabi_memcpy ; 0x5cc
        0x0000367e:    68e1        .h      LDR      r1,[r4,#0xc]
        0x00003680:    6d20         m      LDR      r0,[r4,#0x50]
        0x00003682:    1a09        ..      SUBS     r1,r1,r0
        0x00003684:    60e1        .`      STR      r1,[r4,#0xc]
        0x00003686:    6822        "h      LDR      r2,[r4,#0]
        0x00003688:    4291        .B      CMP      r1,r2
        0x0000368a:    d202        ..      BCS      0x3692 ; prvCopyDataToQueue + 44
        0x0000368c:    68a1        .h      LDR      r1,[r4,#8]
        0x0000368e:    1a08        ..      SUBS     r0,r1,r0
        0x00003690:    60e0        .`      STR      r0,[r4,#0xc]
        0x00003692:    2f02        ./      CMP      r7,#2
        0x00003694:    d016        ..      BEQ      0x36c4 ; prvCopyDataToQueue + 94
        0x00003696:    e017        ..      B        0x36c8 ; prvCopyDataToQueue + 98
        0x00003698:    6820         h      LDR      r0,[r4,#0]
        0x0000369a:    b9a8        ..      CBNZ     r0,0x36c8 ; prvCopyDataToQueue + 98
        0x0000369c:    68a0        .h      LDR      r0,[r4,#8]
        0x0000369e:    f001fcd3    ....    BL       xTaskPriorityDisinherit ; 0x5048
        0x000036a2:    4606        .F      MOV      r6,r0
        0x000036a4:    2000        .       MOVS     r0,#0
        0x000036a6:    60a0        .`      STR      r0,[r4,#8]
        0x000036a8:    e00e        ..      B        0x36c8 ; prvCopyDataToQueue + 98
        0x000036aa:    6860        `h      LDR      r0,[r4,#4]
        0x000036ac:    f7fcff8e    ....    BL       __aeabi_memcpy ; 0x5cc
        0x000036b0:    6d21        !m      LDR      r1,[r4,#0x50]
        0x000036b2:    6860        `h      LDR      r0,[r4,#4]
        0x000036b4:    4408        .D      ADD      r0,r0,r1
        0x000036b6:    6060        ``      STR      r0,[r4,#4]
        0x000036b8:    68a1        .h      LDR      r1,[r4,#8]
        0x000036ba:    4288        .B      CMP      r0,r1
        0x000036bc:    d304        ..      BCC      0x36c8 ; prvCopyDataToQueue + 98
        0x000036be:    6820         h      LDR      r0,[r4,#0]
        0x000036c0:    6060        ``      STR      r0,[r4,#4]
        0x000036c2:    e001        ..      B        0x36c8 ; prvCopyDataToQueue + 98
        0x000036c4:    b105        ..      CBZ      r5,0x36c8 ; prvCopyDataToQueue + 98
        0x000036c6:    1e6d        m.      SUBS     r5,r5,#1
        0x000036c8:    1c6d        m.      ADDS     r5,r5,#1
        0x000036ca:    64a5        .d      STR      r5,[r4,#0x48]
        0x000036cc:    4630        0F      MOV      r0,r6
        0x000036ce:    e8bd81f0    ....    POP      {r4-r8,pc}
    i.prvDeleteTCB
    prvDeleteTCB
        0x000036d2:    b510        ..      PUSH     {r4,lr}
        0x000036d4:    4604        .F      MOV      r4,r0
        0x000036d6:    6b00        .k      LDR      r0,[r0,#0x30]
        0x000036d8:    f000fe4c    ..L.    BL       vPortFree ; 0x4374
        0x000036dc:    4620         F      MOV      r0,r4
        0x000036de:    e8bd4010    ...@    POP      {r4,lr}
        0x000036e2:    f000be47    ..G.    B.W      vPortFree ; 0x4374
        0x000036e6:    0000        ..      MOVS     r0,r0
    i.prvHeapInit
    prvHeapInit
        0x000036e8:    480e        .H      LDR      r0,[pc,#56] ; [0x3724] = 0x20000114
        0x000036ea:    f44f41a0    O..A    MOV      r1,#0x5000
        0x000036ee:    0742        B.      LSLS     r2,r0,#29
        0x000036f0:    d006        ..      BEQ      0x3700 ; prvHeapInit + 24
        0x000036f2:    1dc0        ..      ADDS     r0,r0,#7
        0x000036f4:    490b        .I      LDR      r1,[pc,#44] ; [0x3724] = 0x20000114
        0x000036f6:    f0200007     ...    BIC      r0,r0,#7
        0x000036fa:    1a41        A.      SUBS     r1,r0,r1
        0x000036fc:    f5c141a0    ...A    RSB      r1,r1,#0x5000
        0x00003700:    4b09        .K      LDR      r3,[pc,#36] ; [0x3728] = 0x20000024
        0x00003702:    2200        ."      MOVS     r2,#0
        0x00003704:    4401        .D      ADD      r1,r1,r0
        0x00003706:    e9c30200    ....    STRD     r0,r2,[r3,#0]
        0x0000370a:    3908        .9      SUBS     r1,r1,#8
        0x0000370c:    3b14        .;      SUBS     r3,r3,#0x14
        0x0000370e:    f0210107    !...    BIC      r1,r1,#7
        0x00003712:    6019        .`      STR      r1,[r3,#0]
        0x00003714:    604a        J`      STR      r2,[r1,#4]
        0x00003716:    600a        .`      STR      r2,[r1,#0]
        0x00003718:    1a0a        ..      SUBS     r2,r1,r0
        0x0000371a:    e9c01200    ....    STRD     r1,r2,[r0,#0]
        0x0000371e:    609a        .`      STR      r2,[r3,#8]
        0x00003720:    605a        Z`      STR      r2,[r3,#4]
        0x00003722:    4770        pG      BX       lr
    $d
        0x00003724:    20000114    ...     DCD    536871188
        0x00003728:    20000024    $..     DCD    536870948
    $t
    i.prvIdleTask
    prvIdleTask
        0x0000372c:    4e07        .N      LDR      r6,[pc,#28] ; [0x374c] = 0x20005114
        0x0000372e:    f04f5480    O..T    MOV      r4,#0x10000000
        0x00003732:    4d07        .M      LDR      r5,[pc,#28] ; [0x3750] = 0xe000ed04
        0x00003734:    f7ffff66    ..f.    BL       prvCheckTasksWaitingTermination ; 0x3604
        0x00003738:    6830        0h      LDR      r0,[r6,#0]
        0x0000373a:    2801        .(      CMP      r0,#1
        0x0000373c:    d9fa        ..      BLS      0x3734 ; prvIdleTask + 8
        0x0000373e:    602c        ,`      STR      r4,[r5,#0]
        0x00003740:    f3bf8f4f    ..O.    DSB      
        0x00003744:    f3bf8f6f    ..o.    ISB      
        0x00003748:    e7f4        ..      B        0x3734 ; prvIdleTask + 8
    $d
        0x0000374a:    0000        ..      DCW    0
        0x0000374c:    20005114    .Q.     DCD    536891668
        0x00003750:    e000ed04    ....    DCD    3758157060
    $t
    i.prvInitialiseNewTask
    prvInitialiseNewTask
        0x00003754:    e92d47f0    -..G    PUSH     {r4-r10,lr}
        0x00003758:    460d        .F      MOV      r5,r1
        0x0000375a:    e9dd8409    ....    LDRD     r8,r4,[sp,#0x24]
        0x0000375e:    4617        .F      MOV      r7,r2
        0x00003760:    4682        .F      MOV      r10,r0
        0x00003762:    0091        ..      LSLS     r1,r2,#2
        0x00003764:    4699        .F      MOV      r9,r3
        0x00003766:    9e08        ..      LDR      r6,[sp,#0x20]
        0x00003768:    22a5        ."      MOVS     r2,#0xa5
        0x0000376a:    6b20         k      LDR      r0,[r4,#0x30]
        0x0000376c:    f7fcff73    ..s.    BL       __aeabi_memset ; 0x656
        0x00003770:    f06f0103    o...    MVN      r1,#3
        0x00003774:    6b20         k      LDR      r0,[r4,#0x30]
        0x00003776:    eb010187    ....    ADD      r1,r1,r7,LSL #2
        0x0000377a:    4408        .D      ADD      r0,r0,r1
        0x0000377c:    f0200707     ...    BIC      r7,r0,#7
        0x00003780:    0778        x.      LSLS     r0,r7,#29
        0x00003782:    d007        ..      BEQ      0x3794 ; prvInitialiseNewTask + 64
        0x00003784:    2080        .       MOVS     r0,#0x80
        0x00003786:    f3808811    ....    MSR      BASEPRI,r0
        0x0000378a:    f3bf8f4f    ..O.    DSB      
        0x0000378e:    f3bf8f6f    ..o.    ISB      
        0x00003792:    e7fe        ..      B        0x3792 ; prvInitialiseNewTask + 62
        0x00003794:    b165        e.      CBZ      r5,0x37b0 ; prvInitialiseNewTask + 92
        0x00003796:    2000        .       MOVS     r0,#0
        0x00003798:    1822        ".      ADDS     r2,r4,r0
        0x0000379a:    5c29        )\      LDRB     r1,[r5,r0]
        0x0000379c:    f8821034    ..4.    STRB     r1,[r2,#0x34]
        0x000037a0:    5c29        )\      LDRB     r1,[r5,r0]
        0x000037a2:    b111        ..      CBZ      r1,0x37aa ; prvInitialiseNewTask + 86
        0x000037a4:    1c40        @.      ADDS     r0,r0,#1
        0x000037a6:    2810        .(      CMP      r0,#0x10
        0x000037a8:    d3f6        ..      BCC      0x3798 ; prvInitialiseNewTask + 68
        0x000037aa:    2000        .       MOVS     r0,#0
        0x000037ac:    f8840043    ..C.    STRB     r0,[r4,#0x43]
        0x000037b0:    2e08        ..      CMP      r6,#8
        0x000037b2:    d307        ..      BCC      0x37c4 ; prvInitialiseNewTask + 112
        0x000037b4:    2080        .       MOVS     r0,#0x80
        0x000037b6:    f3808811    ....    MSR      BASEPRI,r0
        0x000037ba:    f3bf8f4f    ..O.    DSB      
        0x000037be:    f3bf8f6f    ..o.    ISB      
        0x000037c2:    e7fe        ..      B        0x37c2 ; prvInitialiseNewTask + 110
        0x000037c4:    62e6        .b      STR      r6,[r4,#0x2c]
        0x000037c6:    1d20         .      ADDS     r0,r4,#4
        0x000037c8:    6466        fd      STR      r6,[r4,#0x44]
        0x000037ca:    f000fd84    ....    BL       vListInitialiseItem ; 0x42d6
        0x000037ce:    f1040018    ....    ADD      r0,r4,#0x18
        0x000037d2:    f000fd80    ....    BL       vListInitialiseItem ; 0x42d6
        0x000037d6:    6124        $a      STR      r4,[r4,#0x10]
        0x000037d8:    f1c60008    ....    RSB      r0,r6,#8
        0x000037dc:    6264        db      STR      r4,[r4,#0x24]
        0x000037de:    61a0        .a      STR      r0,[r4,#0x18]
        0x000037e0:    464a        JF      MOV      r2,r9
        0x000037e2:    4651        QF      MOV      r1,r10
        0x000037e4:    4638        8F      MOV      r0,r7
        0x000037e6:    f000fadd    ....    BL       pxPortInitialiseStack ; 0x3da4
        0x000037ea:    6020         `      STR      r0,[r4,#0]
        0x000037ec:    f1b80f00    ....    CMP      r8,#0
        0x000037f0:    d001        ..      BEQ      0x37f6 ; prvInitialiseNewTask + 162
        0x000037f2:    f8c84000    ...@    STR      r4,[r8,#0]
        0x000037f6:    e8bd87f0    ....    POP      {r4-r10,pc}
        0x000037fa:    0000        ..      MOVS     r0,r0
    i.prvInsertBlockIntoFreeList
    prvInsertBlockIntoFreeList
        0x000037fc:    b530        0.      PUSH     {r4,r5,lr}
        0x000037fe:    491a        .I      LDR      r1,[pc,#104] ; [0x3868] = 0x20000024
        0x00003800:    e000        ..      B        0x3804 ; prvInsertBlockIntoFreeList + 8
        0x00003802:    4611        .F      MOV      r1,r2
        0x00003804:    680a        .h      LDR      r2,[r1,#0]
        0x00003806:    4282        .B      CMP      r2,r0
        0x00003808:    d3fb        ..      BCC      0x3802 ; prvInsertBlockIntoFreeList + 6
        0x0000380a:    4b17        .K      LDR      r3,[pc,#92] ; [0x3868] = 0x20000024
        0x0000380c:    4299        .B      CMP      r1,r3
        0x0000380e:    d00d        ..      BEQ      0x382c ; prvInsertBlockIntoFreeList + 48
        0x00003810:    4b16        .K      LDR      r3,[pc,#88] ; [0x386c] = 0x20000114
        0x00003812:    4299        .B      CMP      r1,r3
        0x00003814:    d302        ..      BCC      0x381c ; prvInsertBlockIntoFreeList + 32
        0x00003816:    4b16        .K      LDR      r3,[pc,#88] ; [0x3870] = 0x20005113
        0x00003818:    4299        .B      CMP      r1,r3
        0x0000381a:    d907        ..      BLS      0x382c ; prvInsertBlockIntoFreeList + 48
        0x0000381c:    2080        .       MOVS     r0,#0x80
        0x0000381e:    f3808811    ....    MSR      BASEPRI,r0
        0x00003822:    f3bf8f4f    ..O.    DSB      
        0x00003826:    f3bf8f6f    ..o.    ISB      
        0x0000382a:    e7fe        ..      B        0x382a ; prvInsertBlockIntoFreeList + 46
        0x0000382c:    684b        Kh      LDR      r3,[r1,#4]
        0x0000382e:    185c        \.      ADDS     r4,r3,r1
        0x00003830:    4284        .B      CMP      r4,r0
        0x00003832:    d103        ..      BNE      0x383c ; prvInsertBlockIntoFreeList + 64
        0x00003834:    6840        @h      LDR      r0,[r0,#4]
        0x00003836:    4418        .D      ADD      r0,r0,r3
        0x00003838:    6048        H`      STR      r0,[r1,#4]
        0x0000383a:    4608        .F      MOV      r0,r1
        0x0000383c:    6843        Ch      LDR      r3,[r0,#4]
        0x0000383e:    181c        ..      ADDS     r4,r3,r0
        0x00003840:    4294        .B      CMP      r4,r2
        0x00003842:    d109        ..      BNE      0x3858 ; prvInsertBlockIntoFreeList + 92
        0x00003844:    4c08        .L      LDR      r4,[pc,#32] ; [0x3868] = 0x20000024
        0x00003846:    3c14        .<      SUBS     r4,r4,#0x14
        0x00003848:    6824        $h      LDR      r4,[r4,#0]
        0x0000384a:    42a2        .B      CMP      r2,r4
        0x0000384c:    d009        ..      BEQ      0x3862 ; prvInsertBlockIntoFreeList + 102
        0x0000384e:    6852        Rh      LDR      r2,[r2,#4]
        0x00003850:    441a        .D      ADD      r2,r2,r3
        0x00003852:    6042        B`      STR      r2,[r0,#4]
        0x00003854:    680a        .h      LDR      r2,[r1,#0]
        0x00003856:    6812        .h      LDR      r2,[r2,#0]
        0x00003858:    6002        .`      STR      r2,[r0,#0]
        0x0000385a:    4281        .B      CMP      r1,r0
        0x0000385c:    d000        ..      BEQ      0x3860 ; prvInsertBlockIntoFreeList + 100
        0x0000385e:    6008        .`      STR      r0,[r1,#0]
        0x00003860:    bd30        0.      POP      {r4,r5,pc}
        0x00003862:    6004        .`      STR      r4,[r0,#0]
        0x00003864:    e7f9        ..      B        0x385a ; prvInsertBlockIntoFreeList + 94
    $d
        0x00003866:    0000        ..      DCW    0
        0x00003868:    20000024    $..     DCD    536870948
        0x0000386c:    20000114    ...     DCD    536871188
        0x00003870:    20005113    .Q.     DCD    536891667
    $t
    i.prvInsertTimerInActiveList
    prvInsertTimerInActiveList
        0x00003874:    b570        p.      PUSH     {r4-r6,lr}
        0x00003876:    2400        .$      MOVS     r4,#0
        0x00003878:    6041        A`      STR      r1,[r0,#4]
        0x0000387a:    4d0b        .M      LDR      r5,[pc,#44] ; [0x38a8] = 0x20000078
        0x0000387c:    6100        .a      STR      r0,[r0,#0x10]
        0x0000387e:    4291        .B      CMP      r1,r2
        0x00003880:    d806        ..      BHI      0x3890 ; prvInsertTimerInActiveList + 28
        0x00003882:    1ad1        ..      SUBS     r1,r2,r3
        0x00003884:    6982        .i      LDR      r2,[r0,#0x18]
        0x00003886:    4291        .B      CMP      r1,r2
        0x00003888:    d206        ..      BCS      0x3898 ; prvInsertTimerInActiveList + 36
        0x0000388a:    1d01        ..      ADDS     r1,r0,#4
        0x0000388c:    6928        (i      LDR      r0,[r5,#0x10]
        0x0000388e:    e007        ..      B        0x38a0 ; prvInsertTimerInActiveList + 44
        0x00003890:    429a        .B      CMP      r2,r3
        0x00003892:    d203        ..      BCS      0x389c ; prvInsertTimerInActiveList + 40
        0x00003894:    4299        .B      CMP      r1,r3
        0x00003896:    d301        ..      BCC      0x389c ; prvInsertTimerInActiveList + 40
        0x00003898:    2401        .$      MOVS     r4,#1
        0x0000389a:    e003        ..      B        0x38a4 ; prvInsertTimerInActiveList + 48
        0x0000389c:    1d01        ..      ADDS     r1,r0,#4
        0x0000389e:    68e8        .h      LDR      r0,[r5,#0xc]
        0x000038a0:    f000fd1c    ....    BL       vListInsert ; 0x42dc
        0x000038a4:    4620         F      MOV      r0,r4
        0x000038a6:    bd70        p.      POP      {r4-r6,pc}
    $d
        0x000038a8:    20000078    x..     DCD    536871032
    $t
    i.prvIsQueueEmpty
    prvIsQueueEmpty
        0x000038ac:    b510        ..      PUSH     {r4,lr}
        0x000038ae:    4604        .F      MOV      r4,r0
        0x000038b0:    f000fd2c    ..,.    BL       vPortEnterCritical ; 0x430c
        0x000038b4:    6ca0        .l      LDR      r0,[r4,#0x48]
        0x000038b6:    b120         .      CBZ      r0,0x38c2 ; prvIsQueueEmpty + 22
        0x000038b8:    2400        .$      MOVS     r4,#0
        0x000038ba:    f000fd47    ..G.    BL       vPortExitCritical ; 0x434c
        0x000038be:    4620         F      MOV      r0,r4
        0x000038c0:    bd10        ..      POP      {r4,pc}
        0x000038c2:    2401        .$      MOVS     r4,#1
        0x000038c4:    e7f9        ..      B        0x38ba ; prvIsQueueEmpty + 14
    i.prvNotifyQueueSetContainer
    prvNotifyQueueSetContainer
        0x000038c6:    b5f1        ..      PUSH     {r0,r4-r7,lr}
        0x000038c8:    2600        .&      MOVS     r6,#0
        0x000038ca:    9800        ..      LDR      r0,[sp,#0]
        0x000038cc:    6d84        .m      LDR      r4,[r0,#0x58]
        0x000038ce:    b15c        \.      CBZ      r4,0x38e8 ; prvNotifyQueueSetContainer + 34
        0x000038d0:    6ca1        .l      LDR      r1,[r4,#0x48]
        0x000038d2:    6ce0        .l      LDR      r0,[r4,#0x4c]
        0x000038d4:    4281        .B      CMP      r1,r0
        0x000038d6:    d30f        ..      BCC      0x38f8 ; prvNotifyQueueSetContainer + 50
        0x000038d8:    2080        .       MOVS     r0,#0x80
        0x000038da:    f3808811    ....    MSR      BASEPRI,r0
        0x000038de:    f3bf8f4f    ..O.    DSB      
        0x000038e2:    f3bf8f6f    ..o.    ISB      
        0x000038e6:    e7fe        ..      B        0x38e6 ; prvNotifyQueueSetContainer + 32
        0x000038e8:    2080        .       MOVS     r0,#0x80
        0x000038ea:    f3808811    ....    MSR      BASEPRI,r0
        0x000038ee:    f3bf8f4f    ..O.    DSB      
        0x000038f2:    f3bf8f6f    ..o.    ISB      
        0x000038f6:    e7fe        ..      B        0x38f6 ; prvNotifyQueueSetContainer + 48
        0x000038f8:    6ca1        .l      LDR      r1,[r4,#0x48]
        0x000038fa:    4281        .B      CMP      r1,r0
        0x000038fc:    d212        ..      BCS      0x3924 ; prvNotifyQueueSetContainer + 94
        0x000038fe:    f9945055    ..UP    LDRSB    r5,[r4,#0x55]
        0x00003902:    2200        ."      MOVS     r2,#0
        0x00003904:    4669        iF      MOV      r1,sp
        0x00003906:    4620         F      MOV      r0,r4
        0x00003908:    f7fffead    ....    BL       prvCopyDataToQueue ; 0x3666
        0x0000390c:    4606        .F      MOV      r6,r0
        0x0000390e:    1c68        h.      ADDS     r0,r5,#1
        0x00003910:    d00a        ..      BEQ      0x3928 ; prvNotifyQueueSetContainer + 98
        0x00003912:    f000fccd    ....    BL       uxTaskGetNumberOfTasks ; 0x42b0
        0x00003916:    4285        .B      CMP      r5,r0
        0x00003918:    d204        ..      BCS      0x3924 ; prvNotifyQueueSetContainer + 94
        0x0000391a:    2d7f        .-      CMP      r5,#0x7f
        0x0000391c:    d00f        ..      BEQ      0x393e ; prvNotifyQueueSetContainer + 120
        0x0000391e:    1c6d        m.      ADDS     r5,r5,#1
        0x00003920:    f8845055    ..UP    STRB     r5,[r4,#0x55]
        0x00003924:    4630        0F      MOV      r0,r6
        0x00003926:    bdf8        ..      POP      {r3-r7,pc}
        0x00003928:    6ae0        .j      LDR      r0,[r4,#0x2c]
        0x0000392a:    2800        .(      CMP      r0,#0
        0x0000392c:    d0fa        ..      BEQ      0x3924 ; prvNotifyQueueSetContainer + 94
        0x0000392e:    f104002c    ..,.    ADD      r0,r4,#0x2c
        0x00003932:    f001fc3f    ..?.    BL       xTaskRemoveFromEventList ; 0x51b4
        0x00003936:    2800        .(      CMP      r0,#0
        0x00003938:    d0f4        ..      BEQ      0x3924 ; prvNotifyQueueSetContainer + 94
        0x0000393a:    2601        .&      MOVS     r6,#1
        0x0000393c:    e7f2        ..      B        0x3924 ; prvNotifyQueueSetContainer + 94
        0x0000393e:    2080        .       MOVS     r0,#0x80
        0x00003940:    f3808811    ....    MSR      BASEPRI,r0
        0x00003944:    f3bf8f4f    ..O.    DSB      
        0x00003948:    f3bf8f6f    ..o.    ISB      
        0x0000394c:    e7fe        ..      B        0x394c ; prvNotifyQueueSetContainer + 134
        0x0000394e:    0000        ..      MOVS     r0,r0
    i.prvProcessExpiredTimer
    prvProcessExpiredTimer
        0x00003950:    b570        p.      PUSH     {r4-r6,lr}
        0x00003952:    4606        .F      MOV      r6,r0
        0x00003954:    480d        .H      LDR      r0,[pc,#52] ; [0x398c] = 0x20000078
        0x00003956:    460d        .F      MOV      r5,r1
        0x00003958:    68c0        .h      LDR      r0,[r0,#0xc]
        0x0000395a:    68c0        .h      LDR      r0,[r0,#0xc]
        0x0000395c:    68c4        .h      LDR      r4,[r0,#0xc]
        0x0000395e:    1d20         .      ADDS     r0,r4,#4
        0x00003960:    f000fc94    ....    BL       uxListRemove ; 0x428c
        0x00003964:    f8940024    ..$.    LDRB     r0,[r4,#0x24]
        0x00003968:    0741        A.      LSLS     r1,r0,#29
        0x0000396a:    d505        ..      BPL      0x3978 ; prvProcessExpiredTimer + 40
        0x0000396c:    462a        *F      MOV      r2,r5
        0x0000396e:    4631        1F      MOV      r1,r6
        0x00003970:    4620         F      MOV      r0,r4
        0x00003972:    f000f8c3    ....    BL       prvReloadTimer ; 0x3afc
        0x00003976:    e003        ..      B        0x3980 ; prvProcessExpiredTimer + 48
        0x00003978:    f00000fe    ....    AND      r0,r0,#0xfe
        0x0000397c:    f8840024    ..$.    STRB     r0,[r4,#0x24]
        0x00003980:    4620         F      MOV      r0,r4
        0x00003982:    6a21        !j      LDR      r1,[r4,#0x20]
        0x00003984:    e8bd4070    ..p@    POP      {r4-r6,lr}
        0x00003988:    4708        .G      BX       r1
    $d
        0x0000398a:    0000        ..      DCW    0
        0x0000398c:    20000078    x..     DCD    536871032
    $t
    i.prvProcessReceivedCommands
    prvProcessReceivedCommands
        0x00003990:    b570        p.      PUSH     {r4-r6,lr}
        0x00003992:    b086        ..      SUB      sp,sp,#0x18
        0x00003994:    2000        .       MOVS     r0,#0
        0x00003996:    9000        ..      STR      r0,[sp,#0]
        0x00003998:    9001        ..      STR      r0,[sp,#4]
        0x0000399a:    9002        ..      STR      r0,[sp,#8]
        0x0000399c:    4e3b        ;N      LDR      r6,[pc,#236] ; [0x3a8c] = 0x20000078
        0x0000399e:    9003        ..      STR      r0,[sp,#0xc]
        0x000039a0:    e06a        j.      B        0x3a78 ; prvProcessReceivedCommands + 232
        0x000039a2:    9800        ..      LDR      r0,[sp,#0]
        0x000039a4:    2800        .(      CMP      r0,#0
        0x000039a6:    da06        ..      BGE      0x39b6 ; prvProcessReceivedCommands + 38
        0x000039a8:    e9dd0102    ....    LDRD     r0,r1,[sp,#8]
        0x000039ac:    9a01        ..      LDR      r2,[sp,#4]
        0x000039ae:    4790        .G      BLX      r2
        0x000039b0:    9800        ..      LDR      r0,[sp,#0]
        0x000039b2:    2800        .(      CMP      r0,#0
        0x000039b4:    db60        `.      BLT      0x3a78 ; prvProcessReceivedCommands + 232
        0x000039b6:    9c02        ..      LDR      r4,[sp,#8]
        0x000039b8:    6960        `i      LDR      r0,[r4,#0x14]
        0x000039ba:    b110        ..      CBZ      r0,0x39c2 ; prvProcessReceivedCommands + 50
        0x000039bc:    1d20         .      ADDS     r0,r4,#4
        0x000039be:    f000fc65    ..e.    BL       uxListRemove ; 0x428c
        0x000039c2:    a804        ..      ADD      r0,sp,#0x10
        0x000039c4:    f000f8bc    ....    BL       prvSampleTimeNow ; 0x3b40
        0x000039c8:    4605        .F      MOV      r5,r0
        0x000039ca:    9800        ..      LDR      r0,[sp,#0]
        0x000039cc:    280a        .(      CMP      r0,#0xa
        0x000039ce:    d253        S.      BCS      0x3a78 ; prvProcessReceivedCommands + 232
        0x000039d0:    e8dff000    ....    TBB      [pc,r0]
    $d
        0x000039d4:    28050552    R..(    DCD    671417682
        0x000039d8:    0505462e    .F..    DCD    84231726
        0x000039dc:    2e28        (.      DCW    11816
    $t
        0x000039de:    f8940024    ..$.    LDRB     r0,[r4,#0x24]
        0x000039e2:    462a        *F      MOV      r2,r5
        0x000039e4:    f0400001    @...    ORR      r0,r0,#1
        0x000039e8:    f8840024    ..$.    STRB     r0,[r4,#0x24]
        0x000039ec:    9801        ..      LDR      r0,[sp,#4]
        0x000039ee:    69a1        .i      LDR      r1,[r4,#0x18]
        0x000039f0:    4603        .F      MOV      r3,r0
        0x000039f2:    4401        .D      ADD      r1,r1,r0
        0x000039f4:    4620         F      MOV      r0,r4
        0x000039f6:    f7ffff3d    ..=.    BL       prvInsertTimerInActiveList ; 0x3874
        0x000039fa:    b340        @.      CBZ      r0,0x3a4e ; prvProcessReceivedCommands + 190
        0x000039fc:    f8940024    ..$.    LDRB     r0,[r4,#0x24]
        0x00003a00:    0741        A.      LSLS     r1,r0,#29
        0x00003a02:    d507        ..      BPL      0x3a14 ; prvProcessReceivedCommands + 132
        0x00003a04:    9801        ..      LDR      r0,[sp,#4]
        0x00003a06:    69a1        .i      LDR      r1,[r4,#0x18]
        0x00003a08:    462a        *F      MOV      r2,r5
        0x00003a0a:    4401        .D      ADD      r1,r1,r0
        0x00003a0c:    4620         F      MOV      r0,r4
        0x00003a0e:    f000f875    ..u.    BL       prvReloadTimer ; 0x3afc
        0x00003a12:    e003        ..      B        0x3a1c ; prvProcessReceivedCommands + 140
        0x00003a14:    f00000fe    ....    AND      r0,r0,#0xfe
        0x00003a18:    f8840024    ..$.    STRB     r0,[r4,#0x24]
        0x00003a1c:    6a21        !j      LDR      r1,[r4,#0x20]
        0x00003a1e:    4620         F      MOV      r0,r4
        0x00003a20:    4788        .G      BLX      r1
        0x00003a22:    e029        ).      B        0x3a78 ; prvProcessReceivedCommands + 232
        0x00003a24:    f8140f24    ..$.    LDRB     r0,[r4,#0x24]!
        0x00003a28:    f00000fe    ....    AND      r0,r0,#0xfe
        0x00003a2c:    7020         p      STRB     r0,[r4,#0]
        0x00003a2e:    e023        #.      B        0x3a78 ; prvProcessReceivedCommands + 232
        0x00003a30:    f8940024    ..$.    LDRB     r0,[r4,#0x24]
        0x00003a34:    f0400001    @...    ORR      r0,r0,#1
        0x00003a38:    f8840024    ..$.    STRB     r0,[r4,#0x24]
        0x00003a3c:    9801        ..      LDR      r0,[sp,#4]
        0x00003a3e:    61a0        .a      STR      r0,[r4,#0x18]
        0x00003a40:    b130        0.      CBZ      r0,0x3a50 ; prvProcessReceivedCommands + 192
        0x00003a42:    1941        A.      ADDS     r1,r0,r5
        0x00003a44:    462b        +F      MOV      r3,r5
        0x00003a46:    461a        .F      MOV      r2,r3
        0x00003a48:    4620         F      MOV      r0,r4
        0x00003a4a:    f7ffff13    ....    BL       prvInsertTimerInActiveList ; 0x3874
        0x00003a4e:    e013        ..      B        0x3a78 ; prvProcessReceivedCommands + 232
        0x00003a50:    2080        .       MOVS     r0,#0x80
        0x00003a52:    f3808811    ....    MSR      BASEPRI,r0
        0x00003a56:    f3bf8f4f    ..O.    DSB      
        0x00003a5a:    f3bf8f6f    ..o.    ISB      
        0x00003a5e:    e7fe        ..      B        0x3a5e ; prvProcessReceivedCommands + 206
        0x00003a60:    f8940024    ..$.    LDRB     r0,[r4,#0x24]
        0x00003a64:    0781        ..      LSLS     r1,r0,#30
        0x00003a66:    d403        ..      BMI      0x3a70 ; prvProcessReceivedCommands + 224
        0x00003a68:    4620         F      MOV      r0,r4
        0x00003a6a:    f000fc83    ....    BL       vPortFree ; 0x4374
        0x00003a6e:    e003        ..      B        0x3a78 ; prvProcessReceivedCommands + 232
        0x00003a70:    f00000fe    ....    AND      r0,r0,#0xfe
        0x00003a74:    f8840024    ..$.    STRB     r0,[r4,#0x24]
        0x00003a78:    2200        ."      MOVS     r2,#0
        0x00003a7a:    4669        iF      MOV      r1,sp
        0x00003a7c:    6830        0h      LDR      r0,[r6,#0]
        0x00003a7e:    f001f871    ..q.    BL       xQueueReceive ; 0x4b64
        0x00003a82:    2800        .(      CMP      r0,#0
        0x00003a84:    d18d        ..      BNE      0x39a2 ; prvProcessReceivedCommands + 18
        0x00003a86:    b006        ..      ADD      sp,sp,#0x18
        0x00003a88:    bd70        p.      POP      {r4-r6,pc}
    $d
        0x00003a8a:    0000        ..      DCW    0
        0x00003a8c:    20000078    x..     DCD    536871032
    $t
    i.prvProcessTimerOrBlockTask
    prvProcessTimerOrBlockTask
        0x00003a90:    b5f8        ..      PUSH     {r3-r7,lr}
        0x00003a92:    460d        .F      MOV      r5,r1
        0x00003a94:    4606        .F      MOV      r6,r0
        0x00003a96:    f000fdff    ....    BL       vTaskSuspendAll ; 0x4698
        0x00003a9a:    4668        hF      MOV      r0,sp
        0x00003a9c:    f000f850    ..P.    BL       prvSampleTimeNow ; 0x3b40
        0x00003aa0:    4604        .F      MOV      r4,r0
        0x00003aa2:    9800        ..      LDR      r0,[sp,#0]
        0x00003aa4:    b110        ..      CBZ      r0,0x3aac ; prvProcessTimerOrBlockTask + 28
        0x00003aa6:    f001fbf5    ....    BL       xTaskResumeAll ; 0x5294
        0x00003aaa:    bdf8        ..      POP      {r3-r7,pc}
        0x00003aac:    4811        .H      LDR      r0,[pc,#68] ; [0x3af4] = 0x20000078
        0x00003aae:    b1ad        ..      CBZ      r5,0x3adc ; prvProcessTimerOrBlockTask + 76
        0x00003ab0:    6901        .i      LDR      r1,[r0,#0x10]
        0x00003ab2:    6809        .h      LDR      r1,[r1,#0]
        0x00003ab4:    b1d9        ..      CBZ      r1,0x3aee ; prvProcessTimerOrBlockTask + 94
        0x00003ab6:    2500        .%      MOVS     r5,#0
        0x00003ab8:    1b31        1.      SUBS     r1,r6,r4
        0x00003aba:    462a        *F      MOV      r2,r5
        0x00003abc:    6800        .h      LDR      r0,[r0,#0]
        0x00003abe:    f000fca9    ....    BL       vQueueWaitForMessageRestricted ; 0x4414
        0x00003ac2:    f001fbe7    ....    BL       xTaskResumeAll ; 0x5294
        0x00003ac6:    2800        .(      CMP      r0,#0
        0x00003ac8:    d1ef        ..      BNE      0x3aaa ; prvProcessTimerOrBlockTask + 26
        0x00003aca:    490b        .I      LDR      r1,[pc,#44] ; [0x3af8] = 0xe000ed04
        0x00003acc:    f04f5080    O..P    MOV      r0,#0x10000000
        0x00003ad0:    6008        .`      STR      r0,[r1,#0]
        0x00003ad2:    f3bf8f4f    ..O.    DSB      
        0x00003ad6:    f3bf8f6f    ..o.    ISB      
        0x00003ada:    bdf8        ..      POP      {r3-r7,pc}
        0x00003adc:    42a6        .B      CMP      r6,r4
        0x00003ade:    d8eb        ..      BHI      0x3ab8 ; prvProcessTimerOrBlockTask + 40
        0x00003ae0:    f001fbd8    ....    BL       xTaskResumeAll ; 0x5294
        0x00003ae4:    4621        !F      MOV      r1,r4
        0x00003ae6:    4630        0F      MOV      r0,r6
        0x00003ae8:    f7ffff32    ..2.    BL       prvProcessExpiredTimer ; 0x3950
        0x00003aec:    bdf8        ..      POP      {r3-r7,pc}
        0x00003aee:    2501        .%      MOVS     r5,#1
        0x00003af0:    e7e2        ..      B        0x3ab8 ; prvProcessTimerOrBlockTask + 40
    $d
        0x00003af2:    0000        ..      DCW    0
        0x00003af4:    20000078    x..     DCD    536871032
        0x00003af8:    e000ed04    ....    DCD    3758157060
    $t
    i.prvReloadTimer
    prvReloadTimer
        0x00003afc:    b570        p.      PUSH     {r4-r6,lr}
        0x00003afe:    4616        .F      MOV      r6,r2
        0x00003b00:    460c        .F      MOV      r4,r1
        0x00003b02:    4605        .F      MOV      r5,r0
        0x00003b04:    e004        ..      B        0x3b10 ; prvReloadTimer + 20
        0x00003b06:    69a8        .i      LDR      r0,[r5,#0x18]
        0x00003b08:    6a29        )j      LDR      r1,[r5,#0x20]
        0x00003b0a:    4404        .D      ADD      r4,r4,r0
        0x00003b0c:    4628        (F      MOV      r0,r5
        0x00003b0e:    4788        .G      BLX      r1
        0x00003b10:    69a8        .i      LDR      r0,[r5,#0x18]
        0x00003b12:    4623        #F      MOV      r3,r4
        0x00003b14:    1901        ..      ADDS     r1,r0,r4
        0x00003b16:    4632        2F      MOV      r2,r6
        0x00003b18:    4628        (F      MOV      r0,r5
        0x00003b1a:    f7fffeab    ....    BL       prvInsertTimerInActiveList ; 0x3874
        0x00003b1e:    2800        .(      CMP      r0,#0
        0x00003b20:    d1f1        ..      BNE      0x3b06 ; prvReloadTimer + 10
        0x00003b22:    bd70        p.      POP      {r4-r6,pc}
    i.prvResetNextTaskUnblockTime
    prvResetNextTaskUnblockTime
        0x00003b24:    4805        .H      LDR      r0,[pc,#20] ; [0x3b3c] = 0x20000038
        0x00003b26:    6b41        Ak      LDR      r1,[r0,#0x34]
        0x00003b28:    6809        .h      LDR      r1,[r1,#0]
        0x00003b2a:    b121        !.      CBZ      r1,0x3b36 ; prvResetNextTaskUnblockTime + 18
        0x00003b2c:    6b41        Ak      LDR      r1,[r0,#0x34]
        0x00003b2e:    68c9        .h      LDR      r1,[r1,#0xc]
        0x00003b30:    6809        .h      LDR      r1,[r1,#0]
        0x00003b32:    6281        .b      STR      r1,[r0,#0x28]
        0x00003b34:    4770        pG      BX       lr
        0x00003b36:    f04f31ff    O..1    MOV      r1,#0xffffffff
        0x00003b3a:    e7fa        ..      B        0x3b32 ; prvResetNextTaskUnblockTime + 14
    $d
        0x00003b3c:    20000038    8..     DCD    536870968
    $t
    i.prvSampleTimeNow
    prvSampleTimeNow
        0x00003b40:    e92d41f0    -..A    PUSH     {r4-r8,lr}
        0x00003b44:    4606        .F      MOV      r6,r0
        0x00003b46:    f001f9e3    ....    BL       xTaskGetTickCount ; 0x4f10
        0x00003b4a:    4d0e        .M      LDR      r5,[pc,#56] ; [0x3b84] = 0x20000078
        0x00003b4c:    4604        .F      MOV      r4,r0
        0x00003b4e:    68a8        .h      LDR      r0,[r5,#8]
        0x00003b50:    4284        .B      CMP      r4,r0
        0x00003b52:    d214        ..      BCS      0x3b7e ; prvSampleTimeNow + 62
        0x00003b54:    f04f37ff    O..7    MOV      r7,#0xffffffff
        0x00003b58:    e004        ..      B        0x3b64 ; prvSampleTimeNow + 36
        0x00003b5a:    68c0        .h      LDR      r0,[r0,#0xc]
        0x00003b5c:    4639        9F      MOV      r1,r7
        0x00003b5e:    6800        .h      LDR      r0,[r0,#0]
        0x00003b60:    f7fffef6    ....    BL       prvProcessExpiredTimer ; 0x3950
        0x00003b64:    68e8        .h      LDR      r0,[r5,#0xc]
        0x00003b66:    6801        .h      LDR      r1,[r0,#0]
        0x00003b68:    2900        .)      CMP      r1,#0
        0x00003b6a:    d1f6        ..      BNE      0x3b5a ; prvSampleTimeNow + 26
        0x00003b6c:    6929        )i      LDR      r1,[r5,#0x10]
        0x00003b6e:    e9c51003    ....    STRD     r1,r0,[r5,#0xc]
        0x00003b72:    2001        .       MOVS     r0,#1
        0x00003b74:    6030        0`      STR      r0,[r6,#0]
        0x00003b76:    4620         F      MOV      r0,r4
        0x00003b78:    60ac        .`      STR      r4,[r5,#8]
        0x00003b7a:    e8bd81f0    ....    POP      {r4-r8,pc}
        0x00003b7e:    2000        .       MOVS     r0,#0
        0x00003b80:    e7f8        ..      B        0x3b74 ; prvSampleTimeNow + 52
    $d
        0x00003b82:    0000        ..      DCW    0
        0x00003b84:    20000078    x..     DCD    536871032
    $t
    i.prvTaskExitError
    prvTaskExitError
        0x00003b88:    4808        .H      LDR      r0,[pc,#32] ; [0x3bac] = 0x2000002c
        0x00003b8a:    6840        @h      LDR      r0,[r0,#4]
        0x00003b8c:    1c40        @.      ADDS     r0,r0,#1
        0x00003b8e:    f04f0080    O...    MOV      r0,#0x80
        0x00003b92:    f3808811    ....    MSR      BASEPRI,r0
        0x00003b96:    d004        ..      BEQ      0x3ba2 ; prvTaskExitError + 26
        0x00003b98:    f3bf8f4f    ..O.    DSB      
        0x00003b9c:    f3bf8f6f    ..o.    ISB      
        0x00003ba0:    e7fe        ..      B        0x3ba0 ; prvTaskExitError + 24
        0x00003ba2:    f3bf8f4f    ..O.    DSB      
        0x00003ba6:    f3bf8f6f    ..o.    ISB      
        0x00003baa:    e7fe        ..      B        0x3baa ; prvTaskExitError + 34
    $d
        0x00003bac:    2000002c    ,..     DCD    536870956
    $t
    i.prvTimerTask
    prvTimerTask
        0x00003bb0:    4c08        .L      LDR      r4,[pc,#32] ; [0x3bd4] = 0x20000078
        0x00003bb2:    68e0        .h      LDR      r0,[r4,#0xc]
        0x00003bb4:    6801        .h      LDR      r1,[r0,#0]
        0x00003bb6:    b139        9.      CBZ      r1,0x3bc8 ; prvTimerTask + 24
        0x00003bb8:    2100        .!      MOVS     r1,#0
        0x00003bba:    b139        9.      CBZ      r1,0x3bcc ; prvTimerTask + 28
        0x00003bbc:    2000        .       MOVS     r0,#0
        0x00003bbe:    f7ffff67    ..g.    BL       prvProcessTimerOrBlockTask ; 0x3a90
        0x00003bc2:    f7fffee5    ....    BL       prvProcessReceivedCommands ; 0x3990
        0x00003bc6:    e7f4        ..      B        0x3bb2 ; prvTimerTask + 2
        0x00003bc8:    2101        .!      MOVS     r1,#1
        0x00003bca:    e7f6        ..      B        0x3bba ; prvTimerTask + 10
        0x00003bcc:    68c0        .h      LDR      r0,[r0,#0xc]
        0x00003bce:    6800        .h      LDR      r0,[r0,#0]
        0x00003bd0:    e7f5        ..      B        0x3bbe ; prvTimerTask + 14
    $d
        0x00003bd2:    0000        ..      DCW    0
        0x00003bd4:    20000078    x..     DCD    536871032
    $t
    i.prvUnlockQueue
    prvUnlockQueue
        0x00003bd8:    e92d41f0    -..A    PUSH     {r4-r8,lr}
        0x00003bdc:    4604        .F      MOV      r4,r0
        0x00003bde:    f000fb95    ....    BL       vPortEnterCritical ; 0x430c
        0x00003be2:    f9945055    ..UP    LDRSB    r5,[r4,#0x55]
        0x00003be6:    f104062c    ..,.    ADD      r6,r4,#0x2c
        0x00003bea:    e00f        ..      B        0x3c0c ; prvUnlockQueue + 52
        0x00003bec:    6da0        .m      LDR      r0,[r4,#0x58]
        0x00003bee:    b118        ..      CBZ      r0,0x3bf8 ; prvUnlockQueue + 32
        0x00003bf0:    4620         F      MOV      r0,r4
        0x00003bf2:    f7fffe68    ..h.    BL       prvNotifyQueueSetContainer ; 0x38c6
        0x00003bf6:    e004        ..      B        0x3c02 ; prvUnlockQueue + 42
        0x00003bf8:    6ae0        .j      LDR      r0,[r4,#0x2c]
        0x00003bfa:    b148        H.      CBZ      r0,0x3c10 ; prvUnlockQueue + 56
        0x00003bfc:    4630        0F      MOV      r0,r6
        0x00003bfe:    f001fad9    ....    BL       xTaskRemoveFromEventList ; 0x51b4
        0x00003c02:    b108        ..      CBZ      r0,0x3c08 ; prvUnlockQueue + 48
        0x00003c04:    f000fc56    ..V.    BL       vTaskMissedYield ; 0x44b4
        0x00003c08:    1e6d        m.      SUBS     r5,r5,#1
        0x00003c0a:    b26d        m.      SXTB     r5,r5
        0x00003c0c:    2d00        .-      CMP      r5,#0
        0x00003c0e:    dced        ..      BGT      0x3bec ; prvUnlockQueue + 20
        0x00003c10:    f04f36ff    O..6    MOV      r6,#0xffffffff
        0x00003c14:    f8846055    ..U`    STRB     r6,[r4,#0x55]
        0x00003c18:    f000fb98    ....    BL       vPortExitCritical ; 0x434c
        0x00003c1c:    f000fb76    ..v.    BL       vPortEnterCritical ; 0x430c
        0x00003c20:    f9945054    ..TP    LDRSB    r5,[r4,#0x54]
        0x00003c24:    f1040710    ....    ADD      r7,r4,#0x10
        0x00003c28:    e009        ..      B        0x3c3e ; prvUnlockQueue + 102
        0x00003c2a:    6920         i      LDR      r0,[r4,#0x10]
        0x00003c2c:    b148        H.      CBZ      r0,0x3c42 ; prvUnlockQueue + 106
        0x00003c2e:    4638        8F      MOV      r0,r7
        0x00003c30:    f001fac0    ....    BL       xTaskRemoveFromEventList ; 0x51b4
        0x00003c34:    b108        ..      CBZ      r0,0x3c3a ; prvUnlockQueue + 98
        0x00003c36:    f000fc3d    ..=.    BL       vTaskMissedYield ; 0x44b4
        0x00003c3a:    1e6d        m.      SUBS     r5,r5,#1
        0x00003c3c:    b26d        m.      SXTB     r5,r5
        0x00003c3e:    2d00        .-      CMP      r5,#0
        0x00003c40:    dcf3        ..      BGT      0x3c2a ; prvUnlockQueue + 82
        0x00003c42:    f8846054    ..T`    STRB     r6,[r4,#0x54]
        0x00003c46:    e8bd41f0    ...A    POP      {r4-r8,lr}
        0x00003c4a:    f000bb7f    ....    B.W      vPortExitCritical ; 0x434c
        0x00003c4e:    0000        ..      MOVS     r0,r0
    i.pvPortMalloc
    pvPortMalloc
        0x00003c50:    e92d41f0    -..A    PUSH     {r4-r8,lr}
        0x00003c54:    0004        ..      MOVS     r4,r0
        0x00003c56:    f04f0500    O...    MOV      r5,#0
        0x00003c5a:    d00f        ..      BEQ      0x3c7c ; pvPortMalloc + 44
        0x00003c5c:    f1140f09    ....    CMN      r4,#9
        0x00003c60:    d80b        ..      BHI      0x3c7a ; pvPortMalloc + 42
        0x00003c62:    3408        .4      ADDS     r4,r4,#8
        0x00003c64:    0760        `.      LSLS     r0,r4,#29
        0x00003c66:    d009        ..      BEQ      0x3c7c ; pvPortMalloc + 44
        0x00003c68:    f0040007    ....    AND      r0,r4,#7
        0x00003c6c:    f1c00008    ....    RSB      r0,r0,#8
        0x00003c70:    43c1        .C      MVNS     r1,r0
        0x00003c72:    428c        .B      CMP      r4,r1
        0x00003c74:    d801        ..      BHI      0x3c7a ; pvPortMalloc + 42
        0x00003c76:    4404        .D      ADD      r4,r4,r0
        0x00003c78:    e000        ..      B        0x3c7c ; pvPortMalloc + 44
        0x00003c7a:    2400        .$      MOVS     r4,#0
        0x00003c7c:    f000fd0c    ....    BL       vTaskSuspendAll ; 0x4698
        0x00003c80:    4e40        @N      LDR      r6,[pc,#256] ; [0x3d84] = 0x20000010
        0x00003c82:    6830        0h      LDR      r0,[r6,#0]
        0x00003c84:    b908        ..      CBNZ     r0,0x3c8a ; pvPortMalloc + 58
        0x00003c86:    f7fffd2f    ../.    BL       prvHeapInit ; 0x36e8
        0x00003c8a:    2c00        .,      CMP      r4,#0
        0x00003c8c:    dd6a        j.      BLE      0x3d64 ; pvPortMalloc + 276
        0x00003c8e:    6877        wh      LDR      r7,[r6,#4]
        0x00003c90:    42bc        .B      CMP      r4,r7
        0x00003c92:    d867        g.      BHI      0x3d64 ; pvPortMalloc + 276
        0x00003c94:    483b        ;H      LDR      r0,[pc,#236] ; [0x3d84] = 0x20000010
        0x00003c96:    f8dfc0f0    ....    LDR      r12,[pc,#240] ; [0x3d88] = 0x20000114
        0x00003c9a:    3014        .0      ADDS     r0,r0,#0x14
        0x00003c9c:    4601        .F      MOV      r1,r0
        0x00003c9e:    6809        .h      LDR      r1,[r1,#0]
        0x00003ca0:    4561        aE      CMP      r1,r12
        0x00003ca2:    d302        ..      BCC      0x3caa ; pvPortMalloc + 90
        0x00003ca4:    4b39        9K      LDR      r3,[pc,#228] ; [0x3d8c] = 0x20005113
        0x00003ca6:    4299        .B      CMP      r1,r3
        0x00003ca8:    d915        ..      BLS      0x3cd6 ; pvPortMalloc + 134
        0x00003caa:    2080        .       MOVS     r0,#0x80
        0x00003cac:    f3808811    ....    MSR      BASEPRI,r0
        0x00003cb0:    f3bf8f4f    ..O.    DSB      
        0x00003cb4:    f3bf8f6f    ..o.    ISB      
        0x00003cb8:    e7fe        ..      B        0x3cb8 ; pvPortMalloc + 104
        0x00003cba:    4608        .F      MOV      r0,r1
        0x00003cbc:    4611        .F      MOV      r1,r2
        0x00003cbe:    4562        bE      CMP      r2,r12
        0x00003cc0:    d301        ..      BCC      0x3cc6 ; pvPortMalloc + 118
        0x00003cc2:    4299        .B      CMP      r1,r3
        0x00003cc4:    d907        ..      BLS      0x3cd6 ; pvPortMalloc + 134
        0x00003cc6:    2080        .       MOVS     r0,#0x80
        0x00003cc8:    f3808811    ....    MSR      BASEPRI,r0
        0x00003ccc:    f3bf8f4f    ..O.    DSB      
        0x00003cd0:    f3bf8f6f    ..o.    ISB      
        0x00003cd4:    e7fe        ..      B        0x3cd4 ; pvPortMalloc + 132
        0x00003cd6:    684a        Jh      LDR      r2,[r1,#4]
        0x00003cd8:    42a2        .B      CMP      r2,r4
        0x00003cda:    d202        ..      BCS      0x3ce2 ; pvPortMalloc + 146
        0x00003cdc:    680a        .h      LDR      r2,[r1,#0]
        0x00003cde:    2a00        .*      CMP      r2,#0
        0x00003ce0:    d1eb        ..      BNE      0x3cba ; pvPortMalloc + 106
        0x00003ce2:    6832        2h      LDR      r2,[r6,#0]
        0x00003ce4:    4291        .B      CMP      r1,r2
        0x00003ce6:    d03d        =.      BEQ      0x3d64 ; pvPortMalloc + 276
        0x00003ce8:    6805        .h      LDR      r5,[r0,#0]
        0x00003cea:    3508        .5      ADDS     r5,r5,#8
        0x00003cec:    4565        eE      CMP      r5,r12
        0x00003cee:    d301        ..      BCC      0x3cf4 ; pvPortMalloc + 164
        0x00003cf0:    429d        .B      CMP      r5,r3
        0x00003cf2:    d907        ..      BLS      0x3d04 ; pvPortMalloc + 180
        0x00003cf4:    2080        .       MOVS     r0,#0x80
        0x00003cf6:    f3808811    ....    MSR      BASEPRI,r0
        0x00003cfa:    f3bf8f4f    ..O.    DSB      
        0x00003cfe:    f3bf8f6f    ..o.    ISB      
        0x00003d02:    e7fe        ..      B        0x3d02 ; pvPortMalloc + 178
        0x00003d04:    680a        .h      LDR      r2,[r1,#0]
        0x00003d06:    6002        .`      STR      r2,[r0,#0]
        0x00003d08:    684a        Jh      LDR      r2,[r1,#4]
        0x00003d0a:    42a2        .B      CMP      r2,r4
        0x00003d0c:    d207        ..      BCS      0x3d1e ; pvPortMalloc + 206
        0x00003d0e:    2080        .       MOVS     r0,#0x80
        0x00003d10:    f3808811    ....    MSR      BASEPRI,r0
        0x00003d14:    f3bf8f4f    ..O.    DSB      
        0x00003d18:    f3bf8f6f    ..o.    ISB      
        0x00003d1c:    e7fe        ..      B        0x3d1c ; pvPortMalloc + 204
        0x00003d1e:    1b13        ..      SUBS     r3,r2,r4
        0x00003d20:    2b10        .+      CMP      r3,#0x10
        0x00003d22:    d910        ..      BLS      0x3d46 ; pvPortMalloc + 246
        0x00003d24:    190a        ..      ADDS     r2,r1,r4
        0x00003d26:    ea5f7c42    _.B|    LSLS     r12,r2,#29
        0x00003d2a:    d007        ..      BEQ      0x3d3c ; pvPortMalloc + 236
        0x00003d2c:    2080        .       MOVS     r0,#0x80
        0x00003d2e:    f3808811    ....    MSR      BASEPRI,r0
        0x00003d32:    f3bf8f4f    ..O.    DSB      
        0x00003d36:    f3bf8f6f    ..o.    ISB      
        0x00003d3a:    e7fe        ..      B        0x3d3a ; pvPortMalloc + 234
        0x00003d3c:    6053        S`      STR      r3,[r2,#4]
        0x00003d3e:    604c        L`      STR      r4,[r1,#4]
        0x00003d40:    6803        .h      LDR      r3,[r0,#0]
        0x00003d42:    6013        .`      STR      r3,[r2,#0]
        0x00003d44:    6002        .`      STR      r2,[r0,#0]
        0x00003d46:    684a        Jh      LDR      r2,[r1,#4]
        0x00003d48:    1ab8        ..      SUBS     r0,r7,r2
        0x00003d4a:    6070        p`      STR      r0,[r6,#4]
        0x00003d4c:    68b3        .h      LDR      r3,[r6,#8]
        0x00003d4e:    4298        .B      CMP      r0,r3
        0x00003d50:    d200        ..      BCS      0x3d54 ; pvPortMalloc + 260
        0x00003d52:    60b0        .`      STR      r0,[r6,#8]
        0x00003d54:    f0424000    B..@    ORR      r0,r2,#0x80000000
        0x00003d58:    6048        H`      STR      r0,[r1,#4]
        0x00003d5a:    2000        .       MOVS     r0,#0
        0x00003d5c:    6008        .`      STR      r0,[r1,#0]
        0x00003d5e:    68f0        .h      LDR      r0,[r6,#0xc]
        0x00003d60:    1c40        @.      ADDS     r0,r0,#1
        0x00003d62:    60f0        .`      STR      r0,[r6,#0xc]
        0x00003d64:    f001fa96    ....    BL       xTaskResumeAll ; 0x5294
        0x00003d68:    0768        h.      LSLS     r0,r5,#29
        0x00003d6a:    d007        ..      BEQ      0x3d7c ; pvPortMalloc + 300
        0x00003d6c:    2080        .       MOVS     r0,#0x80
        0x00003d6e:    f3808811    ....    MSR      BASEPRI,r0
        0x00003d72:    f3bf8f4f    ..O.    DSB      
        0x00003d76:    f3bf8f6f    ..o.    ISB      
        0x00003d7a:    e7fe        ..      B        0x3d7a ; pvPortMalloc + 298
        0x00003d7c:    4628        (F      MOV      r0,r5
        0x00003d7e:    e8bd81f0    ....    POP      {r4-r8,pc}
    $d
        0x00003d82:    0000        ..      DCW    0
        0x00003d84:    20000010    ...     DCD    536870928
        0x00003d88:    20000114    ...     DCD    536871188
        0x00003d8c:    20005113    .Q.     DCD    536891667
    $t
    i.pvTaskIncrementMutexHeldCount
    pvTaskIncrementMutexHeldCount
        0x00003d90:    4803        .H      LDR      r0,[pc,#12] ; [0x3da0] = 0x20000038
        0x00003d92:    6800        .h      LDR      r0,[r0,#0]
        0x00003d94:    2800        .(      CMP      r0,#0
        0x00003d96:    d002        ..      BEQ      0x3d9e ; pvTaskIncrementMutexHeldCount + 14
        0x00003d98:    6c81        .l      LDR      r1,[r0,#0x48]
        0x00003d9a:    1c49        I.      ADDS     r1,r1,#1
        0x00003d9c:    6481        .d      STR      r1,[r0,#0x48]
        0x00003d9e:    4770        pG      BX       lr
    $d
        0x00003da0:    20000038    8..     DCD    536870968
    $t
    i.pxPortInitialiseStack
    pxPortInitialiseStack
        0x00003da4:    b510        ..      PUSH     {r4,lr}
        0x00003da6:    1f03        ..      SUBS     r3,r0,#4
        0x00003da8:    f04f7480    O..t    MOV      r4,#0x1000000
        0x00003dac:    601c        .`      STR      r4,[r3,#0]
        0x00003dae:    1f1b        ..      SUBS     r3,r3,#4
        0x00003db0:    f0210101    !...    BIC      r1,r1,#1
        0x00003db4:    6019        .`      STR      r1,[r3,#0]
        0x00003db6:    1f19        ..      SUBS     r1,r3,#4
        0x00003db8:    4b02        .K      LDR      r3,[pc,#8] ; [0x3dc4] = 0x3b89
        0x00003dba:    600b        .`      STR      r3,[r1,#0]
        0x00003dbc:    3914        .9      SUBS     r1,r1,#0x14
        0x00003dbe:    3840        @8      SUBS     r0,r0,#0x40
        0x00003dc0:    600a        .`      STR      r2,[r1,#0]
        0x00003dc2:    bd10        ..      POP      {r4,pc}
    $d
        0x00003dc4:    00003b89    .;..    DCD    15241
    $t
    i.read_i2c
    read_i2c
        0x00003dc8:    e92d47f0    -..G    PUSH     {r4-r10,lr}
        0x00003dcc:    4e1d        .N      LDR      r6,[pc,#116] ; [0x3e44] = 0x40010000
        0x00003dce:    f44f3880    O..8    MOV      r8,#0x10000
        0x00003dd2:    4681        .F      MOV      r9,r0
        0x00003dd4:    2500        .%      MOVS     r5,#0
        0x00003dd6:    f8c68014    ....    STR      r8,[r6,#0x14]
        0x00003dda:    2407        .$      MOVS     r4,#7
        0x00003ddc:    f64f7aff    O..z    MOV      r10,#0xffff
        0x00003de0:    f44f4700    O..G    MOV      r7,#0x8000
        0x00003de4:    f7fff8c5    ....    BL       hfUnitDelay ; 0x2f72
        0x00003de8:    6177        wa      STR      r7,[r6,#0x14]
        0x00003dea:    f7fff8c2    ....    BL       hfUnitDelay ; 0x2f72
        0x00003dee:    f000f9f5    ....    BL       tyj_i2c_scl_read ; 0x41dc
        0x00003df2:    b180        ..      CBZ      r0,0x3e16 ; read_i2c + 78
        0x00003df4:    f000fa06    ....    BL       tyj_i2c_sda_read ; 0x4204
        0x00003df8:    ea0a0145    ..E.    AND      r1,r10,r5,LSL #1
        0x00003dfc:    ea400501    @...    ORR      r5,r0,r1
        0x00003e00:    6137        7a      STR      r7,[r6,#0x10]
        0x00003e02:    f7fff8b6    ....    BL       hfUnitDelay ; 0x2f72
        0x00003e06:    1e64        d.      SUBS     r4,r4,#1
        0x00003e08:    d5ec        ..      BPL      0x3de4 ; read_i2c + 28
        0x00003e0a:    f1b90f00    ....    CMP      r9,#0
        0x00003e0e:    4640        @F      MOV      r0,r8
        0x00003e10:    d005        ..      BEQ      0x3e1e ; read_i2c + 86
        0x00003e12:    6170        pa      STR      r0,[r6,#0x14]
        0x00003e14:    e004        ..      B        0x3e20 ; read_i2c + 88
        0x00003e16:    f06f00a1    o...    MVN      r0,#0xa1
        0x00003e1a:    e8bd87f0    ....    POP      {r4-r10,pc}
        0x00003e1e:    6130        0a      STR      r0,[r6,#0x10]
        0x00003e20:    f7fff8a7    ....    BL       hfUnitDelay ; 0x2f72
        0x00003e24:    6177        wa      STR      r7,[r6,#0x14]
        0x00003e26:    f7fff8a4    ....    BL       hfUnitDelay ; 0x2f72
        0x00003e2a:    f000f9eb    ....    BL       tyj_i2c_sda_read ; 0x4204
        0x00003e2e:    4548        HE      CMP      r0,r9
        0x00003e30:    d002        ..      BEQ      0x3e38 ; read_i2c + 112
        0x00003e32:    f06f00b4    o...    MVN      r0,#0xb4
        0x00003e36:    e7f0        ..      B        0x3e1a ; read_i2c + 82
        0x00003e38:    6137        7a      STR      r7,[r6,#0x10]
        0x00003e3a:    f7fff89a    ....    BL       hfUnitDelay ; 0x2f72
        0x00003e3e:    b228        (.      SXTH     r0,r5
        0x00003e40:    e7eb        ..      B        0x3e1a ; read_i2c + 82
    $d
        0x00003e42:    0000        ..      DCW    0
        0x00003e44:    40010000    ...@    DCD    1073807360
    $t
    i.read_i2c2
    read_i2c2
        0x00003e48:    e92d47f0    -..G    PUSH     {r4-r10,lr}
        0x00003e4c:    4e1c        .N      LDR      r6,[pc,#112] ; [0x3ec0] = 0x40010000
        0x00003e4e:    f44f1800    O...    MOV      r8,#0x200000
        0x00003e52:    4681        .F      MOV      r9,r0
        0x00003e54:    2500        .%      MOVS     r5,#0
        0x00003e56:    f8c68014    ....    STR      r8,[r6,#0x14]
        0x00003e5a:    2407        .$      MOVS     r4,#7
        0x00003e5c:    f64f7aff    O..z    MOV      r10,#0xffff
        0x00003e60:    0137        7.      LSLS     r7,r6,#4
        0x00003e62:    f7fff897    ....    BL       hfUnitDelay2 ; 0x2f94
        0x00003e66:    6177        wa      STR      r7,[r6,#0x14]
        0x00003e68:    f7fff894    ....    BL       hfUnitDelay2 ; 0x2f94
        0x00003e6c:    f000f9c0    ....    BL       tyj_i2c_scl_read ; 0x41f0
        0x00003e70:    b180        ..      CBZ      r0,0x3e94 ; read_i2c2 + 76
        0x00003e72:    f000f9d1    ....    BL       tyj_i2c_sda_read ; 0x4218
        0x00003e76:    ea0a0145    ..E.    AND      r1,r10,r5,LSL #1
        0x00003e7a:    ea400501    @...    ORR      r5,r0,r1
        0x00003e7e:    6137        7a      STR      r7,[r6,#0x10]
        0x00003e80:    f7fff888    ....    BL       hfUnitDelay2 ; 0x2f94
        0x00003e84:    1e64        d.      SUBS     r4,r4,#1
        0x00003e86:    d5ec        ..      BPL      0x3e62 ; read_i2c2 + 26
        0x00003e88:    f1b90f00    ....    CMP      r9,#0
        0x00003e8c:    4640        @F      MOV      r0,r8
        0x00003e8e:    d005        ..      BEQ      0x3e9c ; read_i2c2 + 84
        0x00003e90:    6170        pa      STR      r0,[r6,#0x14]
        0x00003e92:    e004        ..      B        0x3e9e ; read_i2c2 + 86
        0x00003e94:    f06f0097    o...    MVN      r0,#0x97
        0x00003e98:    e8bd87f0    ....    POP      {r4-r10,pc}
        0x00003e9c:    6130        0a      STR      r0,[r6,#0x10]
        0x00003e9e:    f7fff879    ..y.    BL       hfUnitDelay2 ; 0x2f94
        0x00003ea2:    6177        wa      STR      r7,[r6,#0x14]
        0x00003ea4:    f7fff876    ..v.    BL       hfUnitDelay2 ; 0x2f94
        0x00003ea8:    f000f9b6    ....    BL       tyj_i2c_sda_read ; 0x4218
        0x00003eac:    4548        HE      CMP      r0,r9
        0x00003eae:    d002        ..      BEQ      0x3eb6 ; read_i2c2 + 110
        0x00003eb0:    f06f00aa    o...    MVN      r0,#0xaa
        0x00003eb4:    e7f0        ..      B        0x3e98 ; read_i2c2 + 80
        0x00003eb6:    6137        7a      STR      r7,[r6,#0x10]
        0x00003eb8:    f7fff86c    ..l.    BL       hfUnitDelay2 ; 0x2f94
        0x00003ebc:    b228        (.      SXTH     r0,r5
        0x00003ebe:    e7eb        ..      B        0x3e98 ; read_i2c2 + 80
    $d
        0x00003ec0:    40010000    ...@    DCD    1073807360
    $t
    i.scd_init_1
    scd_init_1
        0x00003ec4:    4815        .H      LDR      r0,[pc,#84] ; [0x3f1c] = 0x2000538c
        0x00003ec6:    4914        .I      LDR      r1,[pc,#80] ; [0x3f18] = 0x653c
        0x00003ec8:    63c1        .c      STR      r1,[r0,#0x3c]
        0x00003eca:    2100        .!      MOVS     r1,#0
        0x00003ecc:    f8201b02     ...    STRH     r1,[r0],#2
        0x00003ed0:    f242720f    B..r    MOV      r2,#0x270f
        0x00003ed4:    f8202b26     .&+    STRH     r2,[r0],#0x26
        0x00003ed8:    4a10        .J      LDR      r2,[pc,#64] ; [0x3f1c] = 0x2000538c
        0x00003eda:    3a78        x:      SUBS     r2,r2,#0x78
        0x00003edc:    6002        .`      STR      r2,[r0,#0]
        0x00003ede:    3250        P2      ADDS     r2,r2,#0x50
        0x00003ee0:    6042        B`      STR      r2,[r0,#4]
        0x00003ee2:    4a0f        .J      LDR      r2,[pc,#60] ; [0x3f20] = 0x20000104
        0x00003ee4:    6082        .`      STR      r2,[r0,#8]
        0x00003ee6:    3208        .2      ADDS     r2,r2,#8
        0x00003ee8:    60c2        .`      STR      r2,[r0,#0xc]
        0x00003eea:    1f12        ..      SUBS     r2,r2,#4
        0x00003eec:    6102        .a      STR      r2,[r0,#0x10]
        0x00003eee:    220a        ."      MOVS     r2,#0xa
        0x00003ef0:    8382        ..      STRH     r2,[r0,#0x1c]
        0x00003ef2:    83c1        ..      STRH     r1,[r0,#0x1e]
        0x00003ef4:    8401        ..      STRH     r1,[r0,#0x20]
        0x00003ef6:    8481        ..      STRH     r1,[r0,#0x24]
        0x00003ef8:    8441        A.      STRH     r1,[r0,#0x22]
        0x00003efa:    6181        .a      STR      r1,[r0,#0x18]
        0x00003efc:    84c1        ..      STRH     r1,[r0,#0x26]
        0x00003efe:    8501        ..      STRH     r1,[r0,#0x28]
        0x00003f00:    8581        ..      STRH     r1,[r0,#0x2c]
        0x00003f02:    8541        A.      STRH     r1,[r0,#0x2a]
        0x00003f04:    85c1        ..      STRH     r1,[r0,#0x2e]
        0x00003f06:    8601        ..      STRH     r1,[r0,#0x30]
        0x00003f08:    8641        A.      STRH     r1,[r0,#0x32]
        0x00003f0a:    8681        ..      STRH     r1,[r0,#0x34]
        0x00003f0c:    86c1        ..      STRH     r1,[r0,#0x36]
        0x00003f0e:    8701        ..      STRH     r1,[r0,#0x38]
        0x00003f10:    8741        A.      STRH     r1,[r0,#0x3a]
        0x00003f12:    8781        ..      STRH     r1,[r0,#0x3c]
        0x00003f14:    87c1        ..      STRH     r1,[r0,#0x3e]
        0x00003f16:    4770        pG      BX       lr
    $d
        0x00003f18:    0000653c    <e..    DCD    25916
        0x00003f1c:    2000538c    .S.     DCD    536892300
        0x00003f20:    20000104    ...     DCD    536871172
    $t
    i.scd_send1Byte
    scd_send1Byte
        0x00003f24:    b570        p.      PUSH     {r4-r6,lr}
        0x00003f26:    4604        .F      MOV      r4,r0
        0x00003f28:    f9b0004e    ..N.    LDRSH    r0,[r0,#0x4e]
        0x00003f2c:    4d0b        .M      LDR      r5,[pc,#44] ; [0x3f5c] = 0x200000f0
        0x00003f2e:    f8551020    U. .    LDR      r1,[r5,r0,LSL #2]
        0x00003f32:    4620         F      MOV      r0,r4
        0x00003f34:    4788        .G      BLX      r1
        0x00003f36:    0a01        ..      LSRS     r1,r0,#8
        0x00003f38:    d00e        ..      BEQ      0x3f58 ; scd_send1Byte + 52
        0x00003f3a:    f8b40062    ..b.    LDRH     r0,[r4,#0x62]
        0x00003f3e:    b108        ..      CBZ      r0,0x3f44 ; scd_send1Byte + 32
        0x00003f40:    2004        .       MOVS     r0,#4
        0x00003f42:    e001        ..      B        0x3f48 ; scd_send1Byte + 36
        0x00003f44:    f8b40050    ..P.    LDRH     r0,[r4,#0x50]
        0x00003f48:    f8a4004e    ..N.    STRH     r0,[r4,#0x4e]
        0x00003f4c:    f9b4004e    ..N.    LDRSH    r0,[r4,#0x4e]
        0x00003f50:    f8551020    U. .    LDR      r1,[r5,r0,LSL #2]
        0x00003f54:    4620         F      MOV      r0,r4
        0x00003f56:    4788        .G      BLX      r1
        0x00003f58:    b2c0        ..      UXTB     r0,r0
        0x00003f5a:    bd70        p.      POP      {r4-r6,pc}
    $d
        0x00003f5c:    200000f0    ...     DCD    536871152
    $t
    i.start_i2c
    start_i2c
        0x00003f60:    b570        p.      PUSH     {r4-r6,lr}
        0x00003f62:    4c10        .L      LDR      r4,[pc,#64] ; [0x3fa4] = 0x40010000
        0x00003f64:    f44f4500    O..E    MOV      r5,#0x8000
        0x00003f68:    6125        %a      STR      r5,[r4,#0x10]
        0x00003f6a:    f7fff802    ....    BL       hfUnitDelay ; 0x2f72
        0x00003f6e:    006e        n.      LSLS     r6,r5,#1
        0x00003f70:    6166        fa      STR      r6,[r4,#0x14]
        0x00003f72:    f7fefffe    ....    BL       hfUnitDelay ; 0x2f72
        0x00003f76:    6165        ea      STR      r5,[r4,#0x14]
        0x00003f78:    f7fefffb    ....    BL       hfUnitDelay ; 0x2f72
        0x00003f7c:    f000f92e    ....    BL       tyj_i2c_scl_read ; 0x41dc
        0x00003f80:    b150        P.      CBZ      r0,0x3f98 ; start_i2c + 56
        0x00003f82:    f000f93f    ..?.    BL       tyj_i2c_sda_read ; 0x4204
        0x00003f86:    b150        P.      CBZ      r0,0x3f9e ; start_i2c + 62
        0x00003f88:    6126        &a      STR      r6,[r4,#0x10]
        0x00003f8a:    f7fefff2    ....    BL       hfUnitDelay ; 0x2f72
        0x00003f8e:    6125        %a      STR      r5,[r4,#0x10]
        0x00003f90:    f7feffef    ....    BL       hfUnitDelay ; 0x2f72
        0x00003f94:    2000        .       MOVS     r0,#0
        0x00003f96:    bd70        p.      POP      {r4-r6,pc}
        0x00003f98:    f06f0063    o.c.    MVN      r0,#0x63
        0x00003f9c:    bd70        p.      POP      {r4-r6,pc}
        0x00003f9e:    f06f0067    o.g.    MVN      r0,#0x67
        0x00003fa2:    bd70        p.      POP      {r4-r6,pc}
    $d
        0x00003fa4:    40010000    ...@    DCD    1073807360
    $t
    i.start_i2c2
    start_i2c2
        0x00003fa8:    b570        p.      PUSH     {r4-r6,lr}
        0x00003faa:    4c10        .L      LDR      r4,[pc,#64] ; [0x3fec] = 0x40010000
        0x00003fac:    f44f1580    O...    MOV      r5,#0x100000
        0x00003fb0:    6125        %a      STR      r5,[r4,#0x10]
        0x00003fb2:    f7feffef    ....    BL       hfUnitDelay2 ; 0x2f94
        0x00003fb6:    0166        f.      LSLS     r6,r4,#5
        0x00003fb8:    6166        fa      STR      r6,[r4,#0x14]
        0x00003fba:    f7feffeb    ....    BL       hfUnitDelay2 ; 0x2f94
        0x00003fbe:    6165        ea      STR      r5,[r4,#0x14]
        0x00003fc0:    f7feffe8    ....    BL       hfUnitDelay2 ; 0x2f94
        0x00003fc4:    f000f914    ....    BL       tyj_i2c_scl_read ; 0x41f0
        0x00003fc8:    b150        P.      CBZ      r0,0x3fe0 ; start_i2c2 + 56
        0x00003fca:    f000f925    ..%.    BL       tyj_i2c_sda_read ; 0x4218
        0x00003fce:    b150        P.      CBZ      r0,0x3fe6 ; start_i2c2 + 62
        0x00003fd0:    6126        &a      STR      r6,[r4,#0x10]
        0x00003fd2:    f7feffdf    ....    BL       hfUnitDelay2 ; 0x2f94
        0x00003fd6:    6125        %a      STR      r5,[r4,#0x10]
        0x00003fd8:    f7feffdc    ....    BL       hfUnitDelay2 ; 0x2f94
        0x00003fdc:    2000        .       MOVS     r0,#0
        0x00003fde:    bd70        p.      POP      {r4-r6,pc}
        0x00003fe0:    f06f0059    o.Y.    MVN      r0,#0x59
        0x00003fe4:    bd70        p.      POP      {r4-r6,pc}
        0x00003fe6:    f06f005d    o.].    MVN      r0,#0x5d
        0x00003fea:    bd70        p.      POP      {r4-r6,pc}
    $d
        0x00003fec:    40010000    ...@    DCD    1073807360
    $t
    i.stop_i2c
    stop_i2c
        0x00003ff0:    b570        p.      PUSH     {r4-r6,lr}
        0x00003ff2:    4c0d        .L      LDR      r4,[pc,#52] ; [0x4028] = 0x40010000
        0x00003ff4:    f44f3580    O..5    MOV      r5,#0x10000
        0x00003ff8:    6125        %a      STR      r5,[r4,#0x10]
        0x00003ffa:    f7feffba    ....    BL       hfUnitDelay ; 0x2f72
        0x00003ffe:    1068        h.      ASRS     r0,r5,#1
        0x00004000:    6160        `a      STR      r0,[r4,#0x14]
        0x00004002:    f7feffb6    ....    BL       hfUnitDelay ; 0x2f72
        0x00004006:    6165        ea      STR      r5,[r4,#0x14]
        0x00004008:    f7feffb3    ....    BL       hfUnitDelay ; 0x2f72
        0x0000400c:    f000f8e6    ....    BL       tyj_i2c_scl_read ; 0x41dc
        0x00004010:    b120         .      CBZ      r0,0x401c ; stop_i2c + 44
        0x00004012:    f000f8f7    ....    BL       tyj_i2c_sda_read ; 0x4204
        0x00004016:    b120         .      CBZ      r0,0x4022 ; stop_i2c + 50
        0x00004018:    2000        .       MOVS     r0,#0
        0x0000401a:    bd70        p.      POP      {r4-r6,pc}
        0x0000401c:    f06f00c5    o...    MVN      r0,#0xc5
        0x00004020:    bd70        p.      POP      {r4-r6,pc}
        0x00004022:    f06f00c9    o...    MVN      r0,#0xc9
        0x00004026:    bd70        p.      POP      {r4-r6,pc}
    $d
        0x00004028:    40010000    ...@    DCD    1073807360
    $t
    i.stop_i2c2
    stop_i2c2
        0x0000402c:    b570        p.      PUSH     {r4-r6,lr}
        0x0000402e:    4c0d        .L      LDR      r4,[pc,#52] ; [0x4064] = 0x40010000
        0x00004030:    f44f1500    O...    MOV      r5,#0x200000
        0x00004034:    6125        %a      STR      r5,[r4,#0x10]
        0x00004036:    f7feffad    ....    BL       hfUnitDelay2 ; 0x2f94
        0x0000403a:    0120         .      LSLS     r0,r4,#4
        0x0000403c:    6160        `a      STR      r0,[r4,#0x14]
        0x0000403e:    f7feffa9    ....    BL       hfUnitDelay2 ; 0x2f94
        0x00004042:    6165        ea      STR      r5,[r4,#0x14]
        0x00004044:    f7feffa6    ....    BL       hfUnitDelay2 ; 0x2f94
        0x00004048:    f000f8d2    ....    BL       tyj_i2c_scl_read ; 0x41f0
        0x0000404c:    b120         .      CBZ      r0,0x4058 ; stop_i2c2 + 44
        0x0000404e:    f000f8e3    ....    BL       tyj_i2c_sda_read ; 0x4218
        0x00004052:    b120         .      CBZ      r0,0x405e ; stop_i2c2 + 50
        0x00004054:    2000        .       MOVS     r0,#0
        0x00004056:    bd70        p.      POP      {r4-r6,pc}
        0x00004058:    f06f00bb    o...    MVN      r0,#0xbb
        0x0000405c:    bd70        p.      POP      {r4-r6,pc}
        0x0000405e:    f06f00bf    o...    MVN      r0,#0xbf
        0x00004062:    bd70        p.      POP      {r4-r6,pc}
    $d
        0x00004064:    40010000    ...@    DCD    1073807360
    $t
    i.swi2c_init
    swi2c_init
        0x00004068:    480d        .H      LDR      r0,[pc,#52] ; [0x40a0] = 0x40010000
        0x0000406a:    f44f4100    O..A    MOV      r1,#0x8000
        0x0000406e:    6141        Aa      STR      r1,[r0,#0x14]
        0x00004070:    0049        I.      LSLS     r1,r1,#1
        0x00004072:    6141        Aa      STR      r1,[r0,#0x14]
        0x00004074:    6841        Ah      LDR      r1,[r0,#4]
        0x00004076:    f4214100    !..A    BIC      r1,r1,#0x8000
        0x0000407a:    6041        A`      STR      r1,[r0,#4]
        0x0000407c:    6841        Ah      LDR      r1,[r0,#4]
        0x0000407e:    f4213180    !..1    BIC      r1,r1,#0x10000
        0x00004082:    6041        A`      STR      r1,[r0,#4]
        0x00004084:    2100        .!      MOVS     r1,#0
        0x00004086:    0380        ..      LSLS     r0,r0,#14
        0x00004088:    6001        .`      STR      r1,[r0,#0]
        0x0000408a:    4906        .I      LDR      r1,[pc,#24] ; [0x40a4] = 0x20000000
        0x0000408c:    4a06        .J      LDR      r2,[pc,#24] ; [0x40a8] = 0x30d40
        0x0000408e:    6809        .h      LDR      r1,[r1,#0]
        0x00004090:    fbb1f1f2    ....    UDIV     r1,r1,r2
        0x00004094:    6081        .`      STR      r1,[r0,#8]
        0x00004096:    6881        .h      LDR      r1,[r0,#8]
        0x00004098:    6041        A`      STR      r1,[r0,#4]
        0x0000409a:    2101        .!      MOVS     r1,#1
        0x0000409c:    60c1        .`      STR      r1,[r0,#0xc]
        0x0000409e:    4770        pG      BX       lr
    $d
        0x000040a0:    40010000    ...@    DCD    1073807360
        0x000040a4:    20000000    ...     DCD    536870912
        0x000040a8:    00030d40    @...    DCD    200000
    $t
    i.swi2c_init2
    swi2c_init2
        0x000040ac:    480e        .H      LDR      r0,[pc,#56] ; [0x40e8] = 0x40010000
        0x000040ae:    f44f1180    O...    MOV      r1,#0x100000
        0x000040b2:    6141        Aa      STR      r1,[r0,#0x14]
        0x000040b4:    0141        A.      LSLS     r1,r0,#5
        0x000040b6:    6141        Aa      STR      r1,[r0,#0x14]
        0x000040b8:    6841        Ah      LDR      r1,[r0,#4]
        0x000040ba:    f4211180    !...    BIC      r1,r1,#0x100000
        0x000040be:    6041        A`      STR      r1,[r0,#4]
        0x000040c0:    6841        Ah      LDR      r1,[r0,#4]
        0x000040c2:    f4211100    !...    BIC      r1,r1,#0x200000
        0x000040c6:    6041        A`      STR      r1,[r0,#4]
        0x000040c8:    ea4f40b0    O..@    ROR      r0,r0,#18
        0x000040cc:    2100        .!      MOVS     r1,#0
        0x000040ce:    6001        .`      STR      r1,[r0,#0]
        0x000040d0:    4906        .I      LDR      r1,[pc,#24] ; [0x40ec] = 0x20000000
        0x000040d2:    4a07        .J      LDR      r2,[pc,#28] ; [0x40f0] = 0x30d40
        0x000040d4:    6809        .h      LDR      r1,[r1,#0]
        0x000040d6:    fbb1f1f2    ....    UDIV     r1,r1,r2
        0x000040da:    6081        .`      STR      r1,[r0,#8]
        0x000040dc:    6881        .h      LDR      r1,[r0,#8]
        0x000040de:    6041        A`      STR      r1,[r0,#4]
        0x000040e0:    2101        .!      MOVS     r1,#1
        0x000040e2:    60c1        .`      STR      r1,[r0,#0xc]
        0x000040e4:    4770        pG      BX       lr
    $d
        0x000040e6:    0000        ..      DCW    0
        0x000040e8:    40010000    ...@    DCD    1073807360
        0x000040ec:    20000000    ...     DCD    536870912
        0x000040f0:    00030d40    @...    DCD    200000
    $t
    i.touchRefreshTask
    touchRefreshTask
        0x000040f4:    b508        ..      PUSH     {r3,lr}
        0x000040f6:    4e2c        ,N      LDR      r6,[pc,#176] ; [0x41a8] = 0x200052b8
        0x000040f8:    4f2c        ,O      LDR      r7,[pc,#176] ; [0x41ac] = 0x3dcccccd
        0x000040fa:    4d2d        -M      LDR      r5,[pc,#180] ; [0x41b0] = 0x2000008c
        0x000040fc:    482a        *H      LDR      r0,[pc,#168] ; [0x41a8] = 0x200052b8
        0x000040fe:    f7fdfe2b    ..+.    BL       GT911_Scan ; 0x1d58
        0x00004102:    2800        .(      CMP      r0,#0
        0x00004104:    d14b        K.      BNE      0x419e ; touchRefreshTask + 170
        0x00004106:    f8960029    ..).    LDRB     r0,[r6,#0x29]
        0x0000410a:    2800        .(      CMP      r0,#0
        0x0000410c:    d047        G.      BEQ      0x419e ; touchRefreshTask + 170
        0x0000410e:    88b0        ..      LDRH     r0,[r6,#4]
        0x00004110:    f5c074f0    ...t    RSB      r4,r0,#0x1e0
        0x00004114:    4620         F      MOV      r0,r4
        0x00004116:    f001fb35    ..5.    BL       __aeabi_i2f ; 0x5784
        0x0000411a:    4926        &I      LDR      r1,[pc,#152] ; [0x41b4] = 0x43f00000
        0x0000411c:    f001fa34    ..4.    BL       _fdiv1 ; 0x5588
        0x00004120:    4925        %I      LDR      r1,[pc,#148] ; [0x41b8] = 0x3f666666
        0x00004122:    6068        h`      STR      r0,[r5,#4]
        0x00004124:    4288        .B      CMP      r0,r1
        0x00004126:    dd02        ..      BLE      0x412e ; touchRefreshTask + 58
        0x00004128:    f04f507e    O.~P    MOV      r0,#0x3f800000
        0x0000412c:    e009        ..      B        0x4142 ; touchRefreshTask + 78
        0x0000412e:    4639        9F      MOV      r1,r7
        0x00004130:    4288        .B      CMP      r0,r1
        0x00004132:    da01        ..      BGE      0x4138 ; touchRefreshTask + 68
        0x00004134:    2000        .       MOVS     r0,#0
        0x00004136:    e004        ..      B        0x4142 ; touchRefreshTask + 78
        0x00004138:    f001fc1c    ....    BL       __aeabi_fsub ; 0x5974
        0x0000413c:    491f        .I      LDR      r1,[pc,#124] ; [0x41bc] = 0x3fa00000
        0x0000413e:    f001fb4d    ..M.    BL       __aeabi_fmul ; 0x57dc
        0x00004142:    6068        h`      STR      r0,[r5,#4]
        0x00004144:    f04f31ff    O..1    MOV      r1,#0xffffffff
        0x00004148:    6a28        (j      LDR      r0,[r5,#0x20]
        0x0000414a:    f000fda7    ....    BL       xQueueSemaphoreTake ; 0x4c9c
        0x0000414e:    b1c8        ..      CBZ      r0,0x4184 ; touchRefreshTask + 144
        0x00004150:    f44f407c    O.|@    MOV      r0,#0xfc00
        0x00004154:    2100        .!      MOVS     r1,#0
        0x00004156:    9000        ..      STR      r0,[sp,#0]
        0x00004158:    b2a2        ..      UXTH     r2,r4
        0x0000415a:    234f        O#      MOVS     r3,#0x4f
        0x0000415c:    4608        .F      MOV      r0,r1
        0x0000415e:    f7fef909    ....    BL       LCD_fill ; 0x2374
        0x00004162:    f44f4001    O..@    MOV      r0,#0x8100
        0x00004166:    9000        ..      STR      r0,[sp,#0]
        0x00004168:    b2a0        ..      UXTH     r0,r4
        0x0000416a:    234f        O#      MOVS     r3,#0x4f
        0x0000416c:    f24012df    @...    MOV      r2,#0x1df
        0x00004170:    2100        .!      MOVS     r1,#0
        0x00004172:    f7fef8ff    ....    BL       LCD_fill ; 0x2374
        0x00004176:    2300        .#      MOVS     r3,#0
        0x00004178:    461a        .F      MOV      r2,r3
        0x0000417a:    4619        .F      MOV      r1,r3
        0x0000417c:    6a28        (j      LDR      r0,[r5,#0x20]
        0x0000417e:    f000fc35    ..5.    BL       xQueueGenericSend ; 0x49ec
        0x00004182:    e002        ..      B        0x418a ; touchRefreshTask + 150
        0x00004184:    a00e        ..      ADR      r0,{pc}+0x3c ; 0x41c0
        0x00004186:    f7fcf8ad    ....    BL       __2printf ; 0x2e4
        0x0000418a:    4c13        .L      LDR      r4,[pc,#76] ; [0x41d8] = 0xc0030000
        0x0000418c:    88a0        ..      LDRH     r0,[r4,#4]
        0x0000418e:    f001fb11    ....    BL       __aeabi_ui2f ; 0x57b4
        0x00004192:    6869        ih      LDR      r1,[r5,#4]
        0x00004194:    f001fb22    ..".    BL       __aeabi_fmul ; 0x57dc
        0x00004198:    f001fad4    ....    BL       __aeabi_f2uiz ; 0x5744
        0x0000419c:    80e0        ..      STRH     r0,[r4,#6]
        0x0000419e:    200a        .       MOVS     r0,#0xa
        0x000041a0:    f000f95a    ..Z.    BL       vTaskDelay ; 0x4458
        0x000041a4:    e7aa        ..      B        0x40fc ; touchRefreshTask + 8
    $d
        0x000041a6:    0000        ..      DCW    0
        0x000041a8:    200052b8    .R.     DCD    536892088
        0x000041ac:    3dcccccd    ...=    DCD    1036831949
        0x000041b0:    2000008c    ...     DCD    536871052
        0x000041b4:    43f00000    ...C    DCD    1139802112
        0x000041b8:    3f666666    fff?    DCD    1063675494
        0x000041bc:    3fa00000    ...?    DCD    1067450368
        0x000041c0:    5378754d    MuxS    DCD    1400403277
        0x000041c4:    634c6d65    emLc    DCD    1665953125
        0x000041c8:    61742064    d ta    DCD    1635000420
        0x000041cc:    6520656b    ke e    DCD    1696621931
        0x000041d0:    0d217272    rr!.    DCD    220295794
        0x000041d4:    0000000a    ....    DCD    10
        0x000041d8:    c0030000    ....    DCD    3221422080
    $t
    i.tyj_i2c_scl_read
    tyj_i2c_scl_read
        0x000041dc:    4803        .H      LDR      r0,[pc,#12] ; [0x41ec] = 0x40010000
        0x000041de:    6800        .h      LDR      r0,[r0,#0]
        0x000041e0:    0400        ..      LSLS     r0,r0,#16
        0x000041e2:    d501        ..      BPL      0x41e8 ; tyj_i2c_scl_read + 12
        0x000041e4:    2001        .       MOVS     r0,#1
        0x000041e6:    4770        pG      BX       lr
        0x000041e8:    2000        .       MOVS     r0,#0
        0x000041ea:    4770        pG      BX       lr
    $d
        0x000041ec:    40010000    ...@    DCD    1073807360
    $t
    i.tyj_i2c_scl_read
    tyj_i2c_scl_read
        0x000041f0:    4803        .H      LDR      r0,[pc,#12] ; [0x4200] = 0x40010000
        0x000041f2:    6800        .h      LDR      r0,[r0,#0]
        0x000041f4:    02c0        ..      LSLS     r0,r0,#11
        0x000041f6:    d501        ..      BPL      0x41fc ; tyj_i2c_scl_read + 12
        0x000041f8:    2001        .       MOVS     r0,#1
        0x000041fa:    4770        pG      BX       lr
        0x000041fc:    2000        .       MOVS     r0,#0
        0x000041fe:    4770        pG      BX       lr
    $d
        0x00004200:    40010000    ...@    DCD    1073807360
    $t
    i.tyj_i2c_sda_read
    tyj_i2c_sda_read
        0x00004204:    4803        .H      LDR      r0,[pc,#12] ; [0x4214] = 0x40010000
        0x00004206:    6800        .h      LDR      r0,[r0,#0]
        0x00004208:    03c0        ..      LSLS     r0,r0,#15
        0x0000420a:    d501        ..      BPL      0x4210 ; tyj_i2c_sda_read + 12
        0x0000420c:    2001        .       MOVS     r0,#1
        0x0000420e:    4770        pG      BX       lr
        0x00004210:    2000        .       MOVS     r0,#0
        0x00004212:    4770        pG      BX       lr
    $d
        0x00004214:    40010000    ...@    DCD    1073807360
    $t
    i.tyj_i2c_sda_read
    tyj_i2c_sda_read
        0x00004218:    4803        .H      LDR      r0,[pc,#12] ; [0x4228] = 0x40010000
        0x0000421a:    6800        .h      LDR      r0,[r0,#0]
        0x0000421c:    0280        ..      LSLS     r0,r0,#10
        0x0000421e:    d501        ..      BPL      0x4224 ; tyj_i2c_sda_read + 12
        0x00004220:    2001        .       MOVS     r0,#1
        0x00004222:    4770        pG      BX       lr
        0x00004224:    2000        .       MOVS     r0,#0
        0x00004226:    4770        pG      BX       lr
    $d
        0x00004228:    40010000    ...@    DCD    1073807360
    $t
    i.uart0_init
    uart0_init
        0x0000422c:    b51c        ..      PUSH     {r2-r4,lr}
        0x0000422e:    2100        .!      MOVS     r1,#0
        0x00004230:    2008        .       MOVS     r0,#8
        0x00004232:    f7fef8e5    ....    BL       RCC_APB1PeriphResetCmd ; 0x2400
        0x00004236:    4c0b        .L      LDR      r4,[pc,#44] ; [0x4264] = 0x40010000
        0x00004238:    2201        ."      MOVS     r2,#1
        0x0000423a:    2104        .!      MOVS     r1,#4
        0x0000423c:    4620         F      MOV      r0,r4
        0x0000423e:    f7fdfd0f    ....    BL       GPIO_PinRemapConfig ; 0x1c60
        0x00004242:    2201        ."      MOVS     r2,#1
        0x00004244:    2108        .!      MOVS     r1,#8
        0x00004246:    4620         F      MOV      r0,r4
        0x00004248:    f7fdfd0a    ....    BL       GPIO_PinRemapConfig ; 0x1c60
        0x0000424c:    f44f30e1    O..0    MOV      r0,#0x1c200
        0x00004250:    9000        ..      STR      r0,[sp,#0]
        0x00004252:    2003        .       MOVS     r0,#3
        0x00004254:    f88d0004    ....    STRB     r0,[sp,#4]
        0x00004258:    4669        iF      MOV      r1,sp
        0x0000425a:    f04f2040    O.@     MOV      r0,#0x40004000
        0x0000425e:    f7fefc57    ..W.    BL       UART_Init ; 0x2b10
        0x00004262:    bd1c        ..      POP      {r2-r4,pc}
    $d
        0x00004264:    40010000    ...@    DCD    1073807360
    $t
    i.uart_ahb_init
    uart_ahb_init
        0x00004268:    4806        .H      LDR      r0,[pc,#24] ; [0x4284] = 0xc0020000
        0x0000426a:    2100        .!      MOVS     r1,#0
        0x0000426c:    7001        .p      STRB     r1,[r0,#0]
        0x0000426e:    4906        .I      LDR      r1,[pc,#24] ; [0x4288] = 0x20000000
        0x00004270:    f44f2261    O.a"    MOV      r2,#0xe1000
        0x00004274:    6809        .h      LDR      r1,[r1,#0]
        0x00004276:    fbb1f1f2    ....    UDIV     r1,r1,r2
        0x0000427a:    1e49        I.      SUBS     r1,r1,#1
        0x0000427c:    8041        A.      STRH     r1,[r0,#2]
        0x0000427e:    2101        .!      MOVS     r1,#1
        0x00004280:    7001        .p      STRB     r1,[r0,#0]
        0x00004282:    4770        pG      BX       lr
    $d
        0x00004284:    c0020000    ....    DCD    3221356544
        0x00004288:    20000000    ...     DCD    536870912
    $t
    i.uxListRemove
    uxListRemove
        0x0000428c:    e9d03201    ...2    LDRD     r3,r2,[r0,#4]
        0x00004290:    6901        .i      LDR      r1,[r0,#0x10]
        0x00004292:    609a        .`      STR      r2,[r3,#8]
        0x00004294:    e9d02301    ...#    LDRD     r2,r3,[r0,#4]
        0x00004298:    605a        Z`      STR      r2,[r3,#4]
        0x0000429a:    684a        Jh      LDR      r2,[r1,#4]
        0x0000429c:    4282        .B      CMP      r2,r0
        0x0000429e:    d101        ..      BNE      0x42a4 ; uxListRemove + 24
        0x000042a0:    6882        .h      LDR      r2,[r0,#8]
        0x000042a2:    604a        J`      STR      r2,[r1,#4]
        0x000042a4:    2200        ."      MOVS     r2,#0
        0x000042a6:    6102        .a      STR      r2,[r0,#0x10]
        0x000042a8:    6808        .h      LDR      r0,[r1,#0]
        0x000042aa:    1e40        @.      SUBS     r0,r0,#1
        0x000042ac:    6008        .`      STR      r0,[r1,#0]
        0x000042ae:    4770        pG      BX       lr
    i.uxTaskGetNumberOfTasks
    uxTaskGetNumberOfTasks
        0x000042b0:    4801        .H      LDR      r0,[pc,#4] ; [0x42b8] = 0x20000038
        0x000042b2:    6880        .h      LDR      r0,[r0,#8]
        0x000042b4:    4770        pG      BX       lr
    $d
        0x000042b6:    0000        ..      DCW    0
        0x000042b8:    20000038    8..     DCD    536870968
    $t
    i.vListInitialise
    vListInitialise
        0x000042bc:    f1000108    ....    ADD      r1,r0,#8
        0x000042c0:    f04f32ff    O..2    MOV      r2,#0xffffffff
        0x000042c4:    e9c01201    ....    STRD     r1,r2,[r0,#4]
        0x000042c8:    60c1        .`      STR      r1,[r0,#0xc]
        0x000042ca:    6101        .a      STR      r1,[r0,#0x10]
        0x000042cc:    2100        .!      MOVS     r1,#0
        0x000042ce:    6141        Aa      STR      r1,[r0,#0x14]
        0x000042d0:    6181        .a      STR      r1,[r0,#0x18]
        0x000042d2:    6001        .`      STR      r1,[r0,#0]
        0x000042d4:    4770        pG      BX       lr
    i.vListInitialiseItem
    vListInitialiseItem
        0x000042d6:    2100        .!      MOVS     r1,#0
        0x000042d8:    6101        .a      STR      r1,[r0,#0x10]
        0x000042da:    4770        pG      BX       lr
    i.vListInsert
    vListInsert
        0x000042dc:    b530        0.      PUSH     {r4,r5,lr}
        0x000042de:    680c        .h      LDR      r4,[r1,#0]
        0x000042e0:    1c62        b.      ADDS     r2,r4,#1
        0x000042e2:    d002        ..      BEQ      0x42ea ; vListInsert + 14
        0x000042e4:    f1000208    ....    ADD      r2,r0,#8
        0x000042e8:    e002        ..      B        0x42f0 ; vListInsert + 20
        0x000042ea:    6902        .i      LDR      r2,[r0,#0x10]
        0x000042ec:    e004        ..      B        0x42f8 ; vListInsert + 28
        0x000042ee:    461a        .F      MOV      r2,r3
        0x000042f0:    6853        Sh      LDR      r3,[r2,#4]
        0x000042f2:    681d        .h      LDR      r5,[r3,#0]
        0x000042f4:    42a5        .B      CMP      r5,r4
        0x000042f6:    d9fa        ..      BLS      0x42ee ; vListInsert + 18
        0x000042f8:    6853        Sh      LDR      r3,[r2,#4]
        0x000042fa:    604b        K`      STR      r3,[r1,#4]
        0x000042fc:    6099        .`      STR      r1,[r3,#8]
        0x000042fe:    608a        .`      STR      r2,[r1,#8]
        0x00004300:    6051        Q`      STR      r1,[r2,#4]
        0x00004302:    6108        .a      STR      r0,[r1,#0x10]
        0x00004304:    6801        .h      LDR      r1,[r0,#0]
        0x00004306:    1c49        I.      ADDS     r1,r1,#1
        0x00004308:    6001        .`      STR      r1,[r0,#0]
        0x0000430a:    bd30        0.      POP      {r4,r5,pc}
    i.vPortEnterCritical
    vPortEnterCritical
        0x0000430c:    2080        .       MOVS     r0,#0x80
        0x0000430e:    f3808811    ....    MSR      BASEPRI,r0
        0x00004312:    f3bf8f4f    ..O.    DSB      
        0x00004316:    f3bf8f6f    ..o.    ISB      
        0x0000431a:    490a        .I      LDR      r1,[pc,#40] ; [0x4344] = 0x2000002c
        0x0000431c:    6848        Hh      LDR      r0,[r1,#4]
        0x0000431e:    1c40        @.      ADDS     r0,r0,#1
        0x00004320:    6048        H`      STR      r0,[r1,#4]
        0x00004322:    2801        .(      CMP      r0,#1
        0x00004324:    d10c        ..      BNE      0x4340 ; vPortEnterCritical + 52
        0x00004326:    4808        .H      LDR      r0,[pc,#32] ; [0x4348] = 0xe000ed04
        0x00004328:    6800        .h      LDR      r0,[r0,#0]
        0x0000432a:    f0100fff    ....    TST      r0,#0xff
        0x0000432e:    d007        ..      BEQ      0x4340 ; vPortEnterCritical + 52
        0x00004330:    2080        .       MOVS     r0,#0x80
        0x00004332:    f3808811    ....    MSR      BASEPRI,r0
        0x00004336:    f3bf8f4f    ..O.    DSB      
        0x0000433a:    f3bf8f6f    ..o.    ISB      
        0x0000433e:    e7fe        ..      B        0x433e ; vPortEnterCritical + 50
        0x00004340:    4770        pG      BX       lr
    $d
        0x00004342:    0000        ..      DCW    0
        0x00004344:    2000002c    ,..     DCD    536870956
        0x00004348:    e000ed04    ....    DCD    3758157060
    $t
    i.vPortExitCritical
    vPortExitCritical
        0x0000434c:    4908        .I      LDR      r1,[pc,#32] ; [0x4370] = 0x2000002c
        0x0000434e:    6848        Hh      LDR      r0,[r1,#4]
        0x00004350:    b128        (.      CBZ      r0,0x435e ; vPortExitCritical + 18
        0x00004352:    1e40        @.      SUBS     r0,r0,#1
        0x00004354:    6048        H`      STR      r0,[r1,#4]
        0x00004356:    d101        ..      BNE      0x435c ; vPortExitCritical + 16
        0x00004358:    f3808811    ....    MSR      BASEPRI,r0
        0x0000435c:    4770        pG      BX       lr
        0x0000435e:    2080        .       MOVS     r0,#0x80
        0x00004360:    f3808811    ....    MSR      BASEPRI,r0
        0x00004364:    f3bf8f4f    ..O.    DSB      
        0x00004368:    f3bf8f6f    ..o.    ISB      
        0x0000436c:    e7fe        ..      B        0x436c ; vPortExitCritical + 32
    $d
        0x0000436e:    0000        ..      DCW    0
        0x00004370:    2000002c    ,..     DCD    536870956
    $t
    i.vPortFree
    vPortFree
        0x00004374:    b570        p.      PUSH     {r4-r6,lr}
        0x00004376:    2800        .(      CMP      r0,#0
        0x00004378:    d038        8.      BEQ      0x43ec ; vPortFree + 120
        0x0000437a:    f1a00408    ....    SUB      r4,r0,#8
        0x0000437e:    481c        .H      LDR      r0,[pc,#112] ; [0x43f0] = 0x20000114
        0x00004380:    4284        .B      CMP      r4,r0
        0x00004382:    d302        ..      BCC      0x438a ; vPortFree + 22
        0x00004384:    481b        .H      LDR      r0,[pc,#108] ; [0x43f4] = 0x20005113
        0x00004386:    4284        .B      CMP      r4,r0
        0x00004388:    d907        ..      BLS      0x439a ; vPortFree + 38
        0x0000438a:    2080        .       MOVS     r0,#0x80
        0x0000438c:    f3808811    ....    MSR      BASEPRI,r0
        0x00004390:    f3bf8f4f    ..O.    DSB      
        0x00004394:    f3bf8f6f    ..o.    ISB      
        0x00004398:    e7fe        ..      B        0x4398 ; vPortFree + 36
        0x0000439a:    6860        `h      LDR      r0,[r4,#4]
        0x0000439c:    2800        .(      CMP      r0,#0
        0x0000439e:    db07        ..      BLT      0x43b0 ; vPortFree + 60
        0x000043a0:    2080        .       MOVS     r0,#0x80
        0x000043a2:    f3808811    ....    MSR      BASEPRI,r0
        0x000043a6:    f3bf8f4f    ..O.    DSB      
        0x000043aa:    f3bf8f6f    ..o.    ISB      
        0x000043ae:    e7fe        ..      B        0x43ae ; vPortFree + 58
        0x000043b0:    6821        !h      LDR      r1,[r4,#0]
        0x000043b2:    b139        9.      CBZ      r1,0x43c4 ; vPortFree + 80
        0x000043b4:    2080        .       MOVS     r0,#0x80
        0x000043b6:    f3808811    ....    MSR      BASEPRI,r0
        0x000043ba:    f3bf8f4f    ..O.    DSB      
        0x000043be:    f3bf8f6f    ..o.    ISB      
        0x000043c2:    e7fe        ..      B        0x43c2 ; vPortFree + 78
        0x000043c4:    f0204000     ..@    BIC      r0,r0,#0x80000000
        0x000043c8:    6060        ``      STR      r0,[r4,#4]
        0x000043ca:    f000f965    ..e.    BL       vTaskSuspendAll ; 0x4698
        0x000043ce:    4d0a        .M      LDR      r5,[pc,#40] ; [0x43f8] = 0x20000010
        0x000043d0:    6860        `h      LDR      r0,[r4,#4]
        0x000043d2:    6869        ih      LDR      r1,[r5,#4]
        0x000043d4:    4408        .D      ADD      r0,r0,r1
        0x000043d6:    6068        h`      STR      r0,[r5,#4]
        0x000043d8:    4620         F      MOV      r0,r4
        0x000043da:    f7fffa0f    ....    BL       prvInsertBlockIntoFreeList ; 0x37fc
        0x000043de:    6928        (i      LDR      r0,[r5,#0x10]
        0x000043e0:    1c40        @.      ADDS     r0,r0,#1
        0x000043e2:    6128        (a      STR      r0,[r5,#0x10]
        0x000043e4:    e8bd4070    ..p@    POP      {r4-r6,lr}
        0x000043e8:    f000bf54    ..T.    B.W      xTaskResumeAll ; 0x5294
        0x000043ec:    bd70        p.      POP      {r4-r6,pc}
    $d
        0x000043ee:    0000        ..      DCW    0
        0x000043f0:    20000114    ...     DCD    536871188
        0x000043f4:    20005113    .Q.     DCD    536891667
        0x000043f8:    20000010    ...     DCD    536870928
    $t
    i.vPortSetupTimerInterrupt
    vPortSetupTimerInterrupt
        0x000043fc:    f04f20e0    O..     MOV      r0,#0xe000e000
        0x00004400:    2100        .!      MOVS     r1,#0
        0x00004402:    6101        .a      STR      r1,[r0,#0x10]
        0x00004404:    6181        .a      STR      r1,[r0,#0x18]
        0x00004406:    4902        .I      LDR      r1,[pc,#8] ; [0x4410] = 0x1869f
        0x00004408:    6141        Aa      STR      r1,[r0,#0x14]
        0x0000440a:    2107        .!      MOVS     r1,#7
        0x0000440c:    6101        .a      STR      r1,[r0,#0x10]
        0x0000440e:    4770        pG      BX       lr
    $d
        0x00004410:    0001869f    ....    DCD    99999
    $t
    i.vQueueWaitForMessageRestricted
    vQueueWaitForMessageRestricted
        0x00004414:    b570        p.      PUSH     {r4-r6,lr}
        0x00004416:    4615        .F      MOV      r5,r2
        0x00004418:    460e        .F      MOV      r6,r1
        0x0000441a:    4604        .F      MOV      r4,r0
        0x0000441c:    f7ffff76    ..v.    BL       vPortEnterCritical ; 0x430c
        0x00004420:    f9941054    ..T.    LDRSB    r1,[r4,#0x54]
        0x00004424:    2000        .       MOVS     r0,#0
        0x00004426:    1c49        I.      ADDS     r1,r1,#1
        0x00004428:    d101        ..      BNE      0x442e ; vQueueWaitForMessageRestricted + 26
        0x0000442a:    f8840054    ..T.    STRB     r0,[r4,#0x54]
        0x0000442e:    f9941055    ..U.    LDRSB    r1,[r4,#0x55]
        0x00004432:    1c49        I.      ADDS     r1,r1,#1
        0x00004434:    d101        ..      BNE      0x443a ; vQueueWaitForMessageRestricted + 38
        0x00004436:    f8840055    ..U.    STRB     r0,[r4,#0x55]
        0x0000443a:    f7ffff87    ....    BL       vPortExitCritical ; 0x434c
        0x0000443e:    6ca0        .l      LDR      r0,[r4,#0x48]
        0x00004440:    b928        (.      CBNZ     r0,0x444e ; vQueueWaitForMessageRestricted + 58
        0x00004442:    462a        *F      MOV      r2,r5
        0x00004444:    4631        1F      MOV      r1,r6
        0x00004446:    f104002c    ..,.    ADD      r0,r4,#0x2c
        0x0000444a:    f000f851    ..Q.    BL       vTaskPlaceOnEventListRestricted ; 0x44f0
        0x0000444e:    4620         F      MOV      r0,r4
        0x00004450:    e8bd4070    ..p@    POP      {r4-r6,lr}
        0x00004454:    f7ffbbc0    ....    B        prvUnlockQueue ; 0x3bd8
    i.vTaskDelay
    vTaskDelay
        0x00004458:    b510        ..      PUSH     {r4,lr}
        0x0000445a:    0002        ..      MOVS     r2,r0
        0x0000445c:    d015        ..      BEQ      0x448a ; vTaskDelay + 50
        0x0000445e:    f000f91b    ....    BL       vTaskSuspendAll ; 0x4698
        0x00004462:    490e        .I      LDR      r1,[pc,#56] ; [0x449c] = 0x20000038
        0x00004464:    6b09        .k      LDR      r1,[r1,#0x30]
        0x00004466:    2901        .)      CMP      r1,#1
        0x00004468:    d007        ..      BEQ      0x447a ; vTaskDelay + 34
        0x0000446a:    2080        .       MOVS     r0,#0x80
        0x0000446c:    f3808811    ....    MSR      BASEPRI,r0
        0x00004470:    f3bf8f4f    ..O.    DSB      
        0x00004474:    f3bf8f6f    ..o.    ISB      
        0x00004478:    e7fe        ..      B        0x4478 ; vTaskDelay + 32
        0x0000447a:    2100        .!      MOVS     r1,#0
        0x0000447c:    4610        .F      MOV      r0,r2
        0x0000447e:    f7feffdd    ....    BL       prvAddCurrentTaskToDelayedList ; 0x343c
        0x00004482:    f000ff07    ....    BL       xTaskResumeAll ; 0x5294
        0x00004486:    2800        .(      CMP      r0,#0
        0x00004488:    d107        ..      BNE      0x449a ; vTaskDelay + 66
        0x0000448a:    4905        .I      LDR      r1,[pc,#20] ; [0x44a0] = 0xe000ed04
        0x0000448c:    f04f5080    O..P    MOV      r0,#0x10000000
        0x00004490:    6008        .`      STR      r0,[r1,#0]
        0x00004492:    f3bf8f4f    ..O.    DSB      
        0x00004496:    f3bf8f6f    ..o.    ISB      
        0x0000449a:    bd10        ..      POP      {r4,pc}
    $d
        0x0000449c:    20000038    8..     DCD    536870968
        0x000044a0:    e000ed04    ....    DCD    3758157060
    $t
    i.vTaskInternalSetTimeOutState
    vTaskInternalSetTimeOutState
        0x000044a4:    4902        .I      LDR      r1,[pc,#8] ; [0x44b0] = 0x20000038
        0x000044a6:    6a0a        .j      LDR      r2,[r1,#0x20]
        0x000044a8:    6002        .`      STR      r2,[r0,#0]
        0x000044aa:    68c9        .h      LDR      r1,[r1,#0xc]
        0x000044ac:    6041        A`      STR      r1,[r0,#4]
        0x000044ae:    4770        pG      BX       lr
    $d
        0x000044b0:    20000038    8..     DCD    536870968
    $t
    i.vTaskMissedYield
    vTaskMissedYield
        0x000044b4:    4901        .I      LDR      r1,[pc,#4] ; [0x44bc] = 0x20000054
        0x000044b6:    2001        .       MOVS     r0,#1
        0x000044b8:    6008        .`      STR      r0,[r1,#0]
        0x000044ba:    4770        pG      BX       lr
    $d
        0x000044bc:    20000054    T..     DCD    536870996
    $t
    i.vTaskPlaceOnEventList
    vTaskPlaceOnEventList
        0x000044c0:    b510        ..      PUSH     {r4,lr}
        0x000044c2:    460c        .F      MOV      r4,r1
        0x000044c4:    b150        P.      CBZ      r0,0x44dc ; vTaskPlaceOnEventList + 28
        0x000044c6:    4909        .I      LDR      r1,[pc,#36] ; [0x44ec] = 0x20000038
        0x000044c8:    6809        .h      LDR      r1,[r1,#0]
        0x000044ca:    3118        .1      ADDS     r1,r1,#0x18
        0x000044cc:    f7ffff06    ....    BL       vListInsert ; 0x42dc
        0x000044d0:    4620         F      MOV      r0,r4
        0x000044d2:    e8bd4010    ...@    POP      {r4,lr}
        0x000044d6:    2101        .!      MOVS     r1,#1
        0x000044d8:    f7febfb0    ....    B        prvAddCurrentTaskToDelayedList ; 0x343c
        0x000044dc:    2080        .       MOVS     r0,#0x80
        0x000044de:    f3808811    ....    MSR      BASEPRI,r0
        0x000044e2:    f3bf8f4f    ..O.    DSB      
        0x000044e6:    f3bf8f6f    ..o.    ISB      
        0x000044ea:    e7fe        ..      B        0x44ea ; vTaskPlaceOnEventList + 42
    $d
        0x000044ec:    20000038    8..     DCD    536870968
    $t
    i.vTaskPlaceOnEventListRestricted
    vTaskPlaceOnEventListRestricted
        0x000044f0:    b4f0        ..      PUSH     {r4-r7}
        0x000044f2:    460c        .F      MOV      r4,r1
        0x000044f4:    b1d0        ..      CBZ      r0,0x452c ; vTaskPlaceOnEventListRestricted + 60
        0x000044f6:    4b11        .K      LDR      r3,[pc,#68] ; [0x453c] = 0x20000038
        0x000044f8:    6841        Ah      LDR      r1,[r0,#4]
        0x000044fa:    681d        .h      LDR      r5,[r3,#0]
        0x000044fc:    61e9        .a      STR      r1,[r5,#0x1c]
        0x000044fe:    688d        .h      LDR      r5,[r1,#8]
        0x00004500:    681e        .h      LDR      r6,[r3,#0]
        0x00004502:    6235        5b      STR      r5,[r6,#0x20]
        0x00004504:    681d        .h      LDR      r5,[r3,#0]
        0x00004506:    688e        .h      LDR      r6,[r1,#8]
        0x00004508:    3518        .5      ADDS     r5,r5,#0x18
        0x0000450a:    6075        u`      STR      r5,[r6,#4]
        0x0000450c:    681d        .h      LDR      r5,[r3,#0]
        0x0000450e:    3518        .5      ADDS     r5,r5,#0x18
        0x00004510:    608d        .`      STR      r5,[r1,#8]
        0x00004512:    6819        .h      LDR      r1,[r3,#0]
        0x00004514:    6288        .b      STR      r0,[r1,#0x28]
        0x00004516:    6801        .h      LDR      r1,[r0,#0]
        0x00004518:    1c49        I.      ADDS     r1,r1,#1
        0x0000451a:    6001        .`      STR      r1,[r0,#0]
        0x0000451c:    b10a        ..      CBZ      r2,0x4522 ; vTaskPlaceOnEventListRestricted + 50
        0x0000451e:    f04f34ff    O..4    MOV      r4,#0xffffffff
        0x00004522:    4620         F      MOV      r0,r4
        0x00004524:    bcf0        ..      POP      {r4-r7}
        0x00004526:    4611        .F      MOV      r1,r2
        0x00004528:    f7febf88    ....    B        prvAddCurrentTaskToDelayedList ; 0x343c
        0x0000452c:    2080        .       MOVS     r0,#0x80
        0x0000452e:    f3808811    ....    MSR      BASEPRI,r0
        0x00004532:    f3bf8f4f    ..O.    DSB      
        0x00004536:    f3bf8f6f    ..o.    ISB      
        0x0000453a:    e7fe        ..      B        0x453a ; vTaskPlaceOnEventListRestricted + 74
    $d
        0x0000453c:    20000038    8..     DCD    536870968
    $t
    i.vTaskPriorityDisinheritAfterTimeout
    vTaskPriorityDisinheritAfterTimeout
        0x00004540:    b570        p.      PUSH     {r4-r6,lr}
        0x00004542:    0004        ..      MOVS     r4,r0
        0x00004544:    d058        X.      BEQ      0x45f8 ; vTaskPriorityDisinheritAfterTimeout + 184
        0x00004546:    6ca2        .l      LDR      r2,[r4,#0x48]
        0x00004548:    b1a2        ..      CBZ      r2,0x4574 ; vTaskPriorityDisinheritAfterTimeout + 52
        0x0000454a:    6c60        `l      LDR      r0,[r4,#0x44]
        0x0000454c:    4288        .B      CMP      r0,r1
        0x0000454e:    d300        ..      BCC      0x4552 ; vTaskPriorityDisinheritAfterTimeout + 18
        0x00004550:    4601        .F      MOV      r1,r0
        0x00004552:    6ae0        .j      LDR      r0,[r4,#0x2c]
        0x00004554:    4288        .B      CMP      r0,r1
        0x00004556:    d04f        O.      BEQ      0x45f8 ; vTaskPriorityDisinheritAfterTimeout + 184
        0x00004558:    2a01        .*      CMP      r2,#1
        0x0000455a:    d14d        M.      BNE      0x45f8 ; vTaskPriorityDisinheritAfterTimeout + 184
        0x0000455c:    4d27        'M      LDR      r5,[pc,#156] ; [0x45fc] = 0x20000038
        0x0000455e:    682a        *h      LDR      r2,[r5,#0]
        0x00004560:    4294        .B      CMP      r4,r2
        0x00004562:    d10f        ..      BNE      0x4584 ; vTaskPriorityDisinheritAfterTimeout + 68
        0x00004564:    2080        .       MOVS     r0,#0x80
        0x00004566:    f3808811    ....    MSR      BASEPRI,r0
        0x0000456a:    f3bf8f4f    ..O.    DSB      
        0x0000456e:    f3bf8f6f    ..o.    ISB      
        0x00004572:    e7fe        ..      B        0x4572 ; vTaskPriorityDisinheritAfterTimeout + 50
        0x00004574:    2080        .       MOVS     r0,#0x80
        0x00004576:    f3808811    ....    MSR      BASEPRI,r0
        0x0000457a:    f3bf8f4f    ..O.    DSB      
        0x0000457e:    f3bf8f6f    ..o.    ISB      
        0x00004582:    e7fe        ..      B        0x4582 ; vTaskPriorityDisinheritAfterTimeout + 66
        0x00004584:    62e1        .b      STR      r1,[r4,#0x2c]
        0x00004586:    69a2        .i      LDR      r2,[r4,#0x18]
        0x00004588:    2a00        .*      CMP      r2,#0
        0x0000458a:    db02        ..      BLT      0x4592 ; vTaskPriorityDisinheritAfterTimeout + 82
        0x0000458c:    f1c10108    ....    RSB      r1,r1,#8
        0x00004590:    61a1        .a      STR      r1,[r4,#0x18]
        0x00004592:    4e1b        .N      LDR      r6,[pc,#108] ; [0x4600] = 0x20005114
        0x00004594:    ebc000c0    ....    RSB      r0,r0,r0,LSL #3
        0x00004598:    6961        ai      LDR      r1,[r4,#0x14]
        0x0000459a:    eb060080    ....    ADD      r0,r6,r0,LSL #2
        0x0000459e:    4281        .B      CMP      r1,r0
        0x000045a0:    d12a        *.      BNE      0x45f8 ; vTaskPriorityDisinheritAfterTimeout + 184
        0x000045a2:    1d20         .      ADDS     r0,r4,#4
        0x000045a4:    f7fffe72    ..r.    BL       uxListRemove ; 0x428c
        0x000045a8:    2101        .!      MOVS     r1,#1
        0x000045aa:    b930        0.      CBNZ     r0,0x45ba ; vTaskPriorityDisinheritAfterTimeout + 122
        0x000045ac:    f894002c    ..,.    LDRB     r0,[r4,#0x2c]
        0x000045b0:    692a        *i      LDR      r2,[r5,#0x10]
        0x000045b2:    fa01f000    ....    LSL      r0,r1,r0
        0x000045b6:    4382        .C      BICS     r2,r2,r0
        0x000045b8:    612a        *a      STR      r2,[r5,#0x10]
        0x000045ba:    6ae0        .j      LDR      r0,[r4,#0x2c]
        0x000045bc:    692a        *i      LDR      r2,[r5,#0x10]
        0x000045be:    4081        .@      LSLS     r1,r1,r0
        0x000045c0:    4311        .C      ORRS     r1,r1,r2
        0x000045c2:    6129        )a      STR      r1,[r5,#0x10]
        0x000045c4:    ebc000c0    ....    RSB      r0,r0,r0,LSL #3
        0x000045c8:    eb060080    ....    ADD      r0,r6,r0,LSL #2
        0x000045cc:    6840        @h      LDR      r0,[r0,#4]
        0x000045ce:    60a0        .`      STR      r0,[r4,#8]
        0x000045d0:    6881        .h      LDR      r1,[r0,#8]
        0x000045d2:    60e1        .`      STR      r1,[r4,#0xc]
        0x000045d4:    6882        .h      LDR      r2,[r0,#8]
        0x000045d6:    1d21        !.      ADDS     r1,r4,#4
        0x000045d8:    6051        Q`      STR      r1,[r2,#4]
        0x000045da:    6081        .`      STR      r1,[r0,#8]
        0x000045dc:    6ae0        .j      LDR      r0,[r4,#0x2c]
        0x000045de:    ebc000c0    ....    RSB      r0,r0,r0,LSL #3
        0x000045e2:    eb060080    ....    ADD      r0,r6,r0,LSL #2
        0x000045e6:    6160        `a      STR      r0,[r4,#0x14]
        0x000045e8:    6ae0        .j      LDR      r0,[r4,#0x2c]
        0x000045ea:    ebc000c0    ....    RSB      r0,r0,r0,LSL #3
        0x000045ee:    f8561020    V. .    LDR      r1,[r6,r0,LSL #2]
        0x000045f2:    1c49        I.      ADDS     r1,r1,#1
        0x000045f4:    f8461020    F. .    STR      r1,[r6,r0,LSL #2]
        0x000045f8:    bd70        p.      POP      {r4-r6,pc}
    $d
        0x000045fa:    0000        ..      DCW    0
        0x000045fc:    20000038    8..     DCD    536870968
        0x00004600:    20005114    .Q.     DCD    536891668
    $t
    i.vTaskStartScheduler
    vTaskStartScheduler
        0x00004604:    b570        p.      PUSH     {r4-r6,lr}
        0x00004606:    b086        ..      SUB      sp,sp,#0x18
        0x00004608:    2000        .       MOVS     r0,#0
        0x0000460a:    aa02        ..      ADD      r2,sp,#8
        0x0000460c:    a11e        ..      ADR      r1,{pc}+0x7c ; 0x4688
        0x0000460e:    5c09        .\      LDRB     r1,[r1,r0]
        0x00004610:    5411        .T      STRB     r1,[r2,r0]
        0x00004612:    b111        ..      CBZ      r1,0x461a ; vTaskStartScheduler + 22
        0x00004614:    1c40        @.      ADDS     r0,r0,#1
        0x00004616:    2810        .(      CMP      r0,#0x10
        0x00004618:    dbf8        ..      BLT      0x460c ; vTaskStartScheduler + 8
        0x0000461a:    2400        .$      MOVS     r4,#0
        0x0000461c:    4e1c        .N      LDR      r6,[pc,#112] ; [0x4690] = 0x20000074
        0x0000461e:    4625        %F      MOV      r5,r4
        0x00004620:    eb060184    ....    ADD      r1,r6,r4,LSL #2
        0x00004624:    e9cd5100    ...Q    STRD     r5,r1,[sp,#0]
        0x00004628:    481a        .H      LDR      r0,[pc,#104] ; [0x4694] = 0x372d
        0x0000462a:    2300        .#      MOVS     r3,#0
        0x0000462c:    2280        ."      MOVS     r2,#0x80
        0x0000462e:    a902        ..      ADD      r1,sp,#8
        0x00004630:    f000fc2e    ....    BL       xTaskCreate ; 0x4e90
        0x00004634:    b110        ..      CBZ      r0,0x463c ; vTaskStartScheduler + 56
        0x00004636:    1c64        d.      ADDS     r4,r4,#1
        0x00004638:    2c01        .,      CMP      r4,#1
        0x0000463a:    dbf1        ..      BLT      0x4620 ; vTaskStartScheduler + 28
        0x0000463c:    4c14        .L      LDR      r4,[pc,#80] ; [0x4690] = 0x20000074
        0x0000463e:    3c3c        <<      SUBS     r4,r4,#0x3c
        0x00004640:    2801        .(      CMP      r0,#1
        0x00004642:    d103        ..      BNE      0x464c ; vTaskStartScheduler + 72
        0x00004644:    f000fecc    ....    BL       xTimerCreateTimerTask ; 0x53e0
        0x00004648:    2801        .(      CMP      r0,#1
        0x0000464a:    d002        ..      BEQ      0x4652 ; vTaskStartScheduler + 78
        0x0000464c:    1c40        @.      ADDS     r0,r0,#1
        0x0000464e:    d012        ..      BEQ      0x4676 ; vTaskStartScheduler + 114
        0x00004650:    e00e        ..      B        0x4670 ; vTaskStartScheduler + 108
        0x00004652:    2080        .       MOVS     r0,#0x80
        0x00004654:    f3808811    ....    MSR      BASEPRI,r0
        0x00004658:    f3bf8f4f    ..O.    DSB      
        0x0000465c:    f3bf8f6f    ..o.    ISB      
        0x00004660:    f04f30ff    O..0    MOV      r0,#0xffffffff
        0x00004664:    62a0        .b      STR      r0,[r4,#0x28]
        0x00004666:    2001        .       MOVS     r0,#1
        0x00004668:    6160        `a      STR      r0,[r4,#0x14]
        0x0000466a:    60e5        .`      STR      r5,[r4,#0xc]
        0x0000466c:    f000f8ce    ....    BL       xPortStartScheduler ; 0x480c
        0x00004670:    6ae0        .j      LDR      r0,[r4,#0x2c]
        0x00004672:    b006        ..      ADD      sp,sp,#0x18
        0x00004674:    bd70        p.      POP      {r4-r6,pc}
        0x00004676:    2080        .       MOVS     r0,#0x80
        0x00004678:    f3808811    ....    MSR      BASEPRI,r0
        0x0000467c:    f3bf8f4f    ..O.    DSB      
        0x00004680:    f3bf8f6f    ..o.    ISB      
        0x00004684:    e7fe        ..      B        0x4684 ; vTaskStartScheduler + 128
    $d
        0x00004686:    0000        ..      DCW    0
        0x00004688:    454c4449    IDLE    DCD    1162626121
        0x0000468c:    00000000    ....    DCD    0
        0x00004690:    20000074    t..     DCD    536871028
        0x00004694:    0000372d    -7..    DCD    14125
    $t
    i.vTaskSuspendAll
    vTaskSuspendAll
        0x00004698:    4802        .H      LDR      r0,[pc,#8] ; [0x46a4] = 0x20000038
        0x0000469a:    6b01        .k      LDR      r1,[r0,#0x30]
        0x0000469c:    1c49        I.      ADDS     r1,r1,#1
        0x0000469e:    6301        .c      STR      r1,[r0,#0x30]
        0x000046a0:    4770        pG      BX       lr
    $d
        0x000046a2:    0000        ..      DCW    0
        0x000046a4:    20000038    8..     DCD    536870968
    $t
    i.vTaskSwitchContext
    vTaskSwitchContext
        0x000046a8:    4a15        .J      LDR      r2,[pc,#84] ; [0x4700] = 0x20000038
        0x000046aa:    6b11        .k      LDR      r1,[r2,#0x30]
        0x000046ac:    f102001c    ....    ADD      r0,r2,#0x1c
        0x000046b0:    b111        ..      CBZ      r1,0x46b8 ; vTaskSwitchContext + 16
        0x000046b2:    2101        .!      MOVS     r1,#1
        0x000046b4:    6001        .`      STR      r1,[r0,#0]
        0x000046b6:    4770        pG      BX       lr
        0x000046b8:    2100        .!      MOVS     r1,#0
        0x000046ba:    6001        .`      STR      r1,[r0,#0]
        0x000046bc:    6910        .i      LDR      r0,[r2,#0x10]
        0x000046be:    4911        .I      LDR      r1,[pc,#68] ; [0x4704] = 0x20005114
        0x000046c0:    fab0f080    ....    CLZ      r0,r0
        0x000046c4:    f1c0001f    ....    RSB      r0,r0,#0x1f
        0x000046c8:    ebc000c0    ....    RSB      r0,r0,r0,LSL #3
        0x000046cc:    f8513020    Q. 0    LDR      r3,[r1,r0,LSL #2]
        0x000046d0:    b173        s.      CBZ      r3,0x46f0 ; vTaskSwitchContext + 72
        0x000046d2:    eb010080    ....    ADD      r0,r1,r0,LSL #2
        0x000046d6:    f1000308    ....    ADD      r3,r0,#8
        0x000046da:    6841        Ah      LDR      r1,[r0,#4]
        0x000046dc:    6849        Ih      LDR      r1,[r1,#4]
        0x000046de:    6041        A`      STR      r1,[r0,#4]
        0x000046e0:    4299        .B      CMP      r1,r3
        0x000046e2:    d101        ..      BNE      0x46e8 ; vTaskSwitchContext + 64
        0x000046e4:    68c1        .h      LDR      r1,[r0,#0xc]
        0x000046e6:    6041        A`      STR      r1,[r0,#4]
        0x000046e8:    68c8        .h      LDR      r0,[r1,#0xc]
        0x000046ea:    6010        .`      STR      r0,[r2,#0]
        0x000046ec:    6810        .h      LDR      r0,[r2,#0]
        0x000046ee:    4770        pG      BX       lr
        0x000046f0:    2080        .       MOVS     r0,#0x80
        0x000046f2:    f3808811    ....    MSR      BASEPRI,r0
        0x000046f6:    f3bf8f4f    ..O.    DSB      
        0x000046fa:    f3bf8f6f    ..o.    ISB      
        0x000046fe:    e7fe        ..      B        0x46fe ; vTaskSwitchContext + 86
    $d
        0x00004700:    20000038    8..     DCD    536870968
        0x00004704:    20005114    .Q.     DCD    536891668
    $t
    i.write_i2c
    write_i2c
        0x00004708:    e92d47f0    -..G    PUSH     {r4-r10,lr}
        0x0000470c:    4e1e        .N      LDR      r6,[pc,#120] ; [0x4788] = 0x40010000
        0x0000470e:    4681        .F      MOV      r9,r0
        0x00004710:    2407        .$      MOVS     r4,#7
        0x00004712:    f04f0a01    O...    MOV      r10,#1
        0x00004716:    f44f3880    O..8    MOV      r8,#0x10000
        0x0000471a:    f44f4700    O..G    MOV      r7,#0x8000
        0x0000471e:    fa0af004    ....    LSL      r0,r10,r4
        0x00004722:    ea100f09    ....    TST      r0,r9
        0x00004726:    d001        ..      BEQ      0x472c ; write_i2c + 36
        0x00004728:    2501        .%      MOVS     r5,#1
        0x0000472a:    e000        ..      B        0x472e ; write_i2c + 38
        0x0000472c:    2500        .%      MOVS     r5,#0
        0x0000472e:    4640        @F      MOV      r0,r8
        0x00004730:    b10d        ..      CBZ      r5,0x4736 ; write_i2c + 46
        0x00004732:    6170        pa      STR      r0,[r6,#0x14]
        0x00004734:    e000        ..      B        0x4738 ; write_i2c + 48
        0x00004736:    6130        0a      STR      r0,[r6,#0x10]
        0x00004738:    f7fefc1b    ....    BL       hfUnitDelay ; 0x2f72
        0x0000473c:    6177        wa      STR      r7,[r6,#0x14]
        0x0000473e:    f7fefc18    ....    BL       hfUnitDelay ; 0x2f72
        0x00004742:    f7fffd4b    ..K.    BL       tyj_i2c_scl_read ; 0x41dc
        0x00004746:    b138        8.      CBZ      r0,0x4758 ; write_i2c + 80
        0x00004748:    f7fffd5c    ..\.    BL       tyj_i2c_sda_read ; 0x4204
        0x0000474c:    4285        .B      CMP      r5,r0
        0x0000474e:    d006        ..      BEQ      0x475e ; write_i2c + 86
        0x00004750:    f06f0087    o...    MVN      r0,#0x87
        0x00004754:    e8bd87f0    ....    POP      {r4-r10,pc}
        0x00004758:    f06f0082    o...    MVN      r0,#0x82
        0x0000475c:    e7fa        ..      B        0x4754 ; write_i2c + 76
        0x0000475e:    6137        7a      STR      r7,[r6,#0x10]
        0x00004760:    f7fefc07    ....    BL       hfUnitDelay ; 0x2f72
        0x00004764:    1e64        d.      SUBS     r4,r4,#1
        0x00004766:    d5da        ..      BPL      0x471e ; write_i2c + 22
        0x00004768:    f8c68014    ....    STR      r8,[r6,#0x14]
        0x0000476c:    f7fefc01    ....    BL       hfUnitDelay ; 0x2f72
        0x00004770:    6177        wa      STR      r7,[r6,#0x14]
        0x00004772:    f7fefbfe    ....    BL       hfUnitDelay ; 0x2f72
        0x00004776:    f7fffd45    ..E.    BL       tyj_i2c_sda_read ; 0x4204
        0x0000477a:    4604        .F      MOV      r4,r0
        0x0000477c:    6137        7a      STR      r7,[r6,#0x10]
        0x0000477e:    f7fefbf8    ....    BL       hfUnitDelay ; 0x2f72
        0x00004782:    b220         .      SXTH     r0,r4
        0x00004784:    e7e6        ..      B        0x4754 ; write_i2c + 76
    $d
        0x00004786:    0000        ..      DCW    0
        0x00004788:    40010000    ...@    DCD    1073807360
    $t
    i.write_i2c2
    write_i2c2
        0x0000478c:    e92d47f0    -..G    PUSH     {r4-r10,lr}
        0x00004790:    4e1d        .N      LDR      r6,[pc,#116] ; [0x4808] = 0x40010000
        0x00004792:    2407        .$      MOVS     r4,#7
        0x00004794:    4681        .F      MOV      r9,r0
        0x00004796:    f04f0a01    O...    MOV      r10,#1
        0x0000479a:    f44f1800    O...    MOV      r8,#0x200000
        0x0000479e:    0137        7.      LSLS     r7,r6,#4
        0x000047a0:    fa0af004    ....    LSL      r0,r10,r4
        0x000047a4:    ea100f09    ....    TST      r0,r9
        0x000047a8:    d001        ..      BEQ      0x47ae ; write_i2c2 + 34
        0x000047aa:    2501        .%      MOVS     r5,#1
        0x000047ac:    e000        ..      B        0x47b0 ; write_i2c2 + 36
        0x000047ae:    2500        .%      MOVS     r5,#0
        0x000047b0:    4640        @F      MOV      r0,r8
        0x000047b2:    b10d        ..      CBZ      r5,0x47b8 ; write_i2c2 + 44
        0x000047b4:    6170        pa      STR      r0,[r6,#0x14]
        0x000047b6:    e000        ..      B        0x47ba ; write_i2c2 + 46
        0x000047b8:    6130        0a      STR      r0,[r6,#0x10]
        0x000047ba:    f7fefbeb    ....    BL       hfUnitDelay2 ; 0x2f94
        0x000047be:    6177        wa      STR      r7,[r6,#0x14]
        0x000047c0:    f7fefbe8    ....    BL       hfUnitDelay2 ; 0x2f94
        0x000047c4:    f7fffd14    ....    BL       tyj_i2c_scl_read ; 0x41f0
        0x000047c8:    b138        8.      CBZ      r0,0x47da ; write_i2c2 + 78
        0x000047ca:    f7fffd25    ..%.    BL       tyj_i2c_sda_read ; 0x4218
        0x000047ce:    4285        .B      CMP      r5,r0
        0x000047d0:    d006        ..      BEQ      0x47e0 ; write_i2c2 + 84
        0x000047d2:    f06f007d    o.}.    MVN      r0,#0x7d
        0x000047d6:    e8bd87f0    ....    POP      {r4-r10,pc}
        0x000047da:    f06f0078    o.x.    MVN      r0,#0x78
        0x000047de:    e7fa        ..      B        0x47d6 ; write_i2c2 + 74
        0x000047e0:    6137        7a      STR      r7,[r6,#0x10]
        0x000047e2:    f7fefbd7    ....    BL       hfUnitDelay2 ; 0x2f94
        0x000047e6:    1e64        d.      SUBS     r4,r4,#1
        0x000047e8:    d5da        ..      BPL      0x47a0 ; write_i2c2 + 20
        0x000047ea:    f8c68014    ....    STR      r8,[r6,#0x14]
        0x000047ee:    f7fefbd1    ....    BL       hfUnitDelay2 ; 0x2f94
        0x000047f2:    6177        wa      STR      r7,[r6,#0x14]
        0x000047f4:    f7fefbce    ....    BL       hfUnitDelay2 ; 0x2f94
        0x000047f8:    f7fffd0e    ....    BL       tyj_i2c_sda_read ; 0x4218
        0x000047fc:    4604        .F      MOV      r4,r0
        0x000047fe:    6137        7a      STR      r7,[r6,#0x10]
        0x00004800:    f7fefbc8    ....    BL       hfUnitDelay2 ; 0x2f94
        0x00004804:    b220         .      SXTH     r0,r4
        0x00004806:    e7e6        ..      B        0x47d6 ; write_i2c2 + 74
    $d
        0x00004808:    40010000    ...@    DCD    1073807360
    $t
    i.xPortStartScheduler
    xPortStartScheduler
        0x0000480c:    b53e        >.      PUSH     {r1-r5,lr}
        0x0000480e:    4929        )I      LDR      r1,[pc,#164] ; [0x48b4] = 0xe000e400
        0x00004810:    2500        .%      MOVS     r5,#0
        0x00004812:    9501        ..      STR      r5,[sp,#4]
        0x00004814:    7808        .x      LDRB     r0,[r1,#0]
        0x00004816:    f88d0008    ....    STRB     r0,[sp,#8]
        0x0000481a:    20ff        .       MOVS     r0,#0xff
        0x0000481c:    7008        .p      STRB     r0,[r1,#0]
        0x0000481e:    7808        .x      LDRB     r0,[r1,#0]
        0x00004820:    f88d0000    ....    STRB     r0,[sp,#0]
        0x00004824:    f89d0000    ....    LDRB     r0,[sp,#0]
        0x00004828:    4c23        #L      LDR      r4,[pc,#140] ; [0x48b8] = 0x2000002c
        0x0000482a:    f0100080    ....    ANDS     r0,r0,#0x80
        0x0000482e:    7020         p      STRB     r0,[r4,#0]
        0x00004830:    d00c        ..      BEQ      0x484c ; xPortStartScheduler + 64
        0x00004832:    f89d0000    ....    LDRB     r0,[sp,#0]
        0x00004836:    43c0        .C      MVNS     r0,r0
        0x00004838:    0600        ..      LSLS     r0,r0,#24
        0x0000483a:    d516        ..      BPL      0x486a ; xPortStartScheduler + 94
        0x0000483c:    2080        .       MOVS     r0,#0x80
        0x0000483e:    f3808811    ....    MSR      BASEPRI,r0
        0x00004842:    f3bf8f4f    ..O.    DSB      
        0x00004846:    f3bf8f6f    ..o.    ISB      
        0x0000484a:    e7fe        ..      B        0x484a ; xPortStartScheduler + 62
        0x0000484c:    2080        .       MOVS     r0,#0x80
        0x0000484e:    f3808811    ....    MSR      BASEPRI,r0
        0x00004852:    f3bf8f4f    ..O.    DSB      
        0x00004856:    f3bf8f6f    ..o.    ISB      
        0x0000485a:    e7fe        ..      B        0x485a ; xPortStartScheduler + 78
        0x0000485c:    1c40        @.      ADDS     r0,r0,#1
        0x0000485e:    9001        ..      STR      r0,[sp,#4]
        0x00004860:    f89d0000    ....    LDRB     r0,[sp,#0]
        0x00004864:    0040        @.      LSLS     r0,r0,#1
        0x00004866:    f88d0000    ....    STRB     r0,[sp,#0]
        0x0000486a:    f89d0000    ....    LDRB     r0,[sp,#0]
        0x0000486e:    0600        ..      LSLS     r0,r0,#24
        0x00004870:    9801        ..      LDR      r0,[sp,#4]
        0x00004872:    d4f3        ..      BMI      0x485c ; xPortStartScheduler + 80
        0x00004874:    2808        .(      CMP      r0,#8
        0x00004876:    d01a        ..      BEQ      0x48ae ; xPortStartScheduler + 162
        0x00004878:    f1c00007    ....    RSB      r0,r0,#7
        0x0000487c:    60a0        .`      STR      r0,[r4,#8]
        0x0000487e:    7a20         z      LDRB     r0,[r4,#8]
        0x00004880:    0200        ..      LSLS     r0,r0,#8
        0x00004882:    f40060e0    ...`    AND      r0,r0,#0x700
        0x00004886:    60a0        .`      STR      r0,[r4,#8]
        0x00004888:    f89d0008    ....    LDRB     r0,[sp,#8]
        0x0000488c:    7008        .p      STRB     r0,[r1,#0]
        0x0000488e:    480b        .H      LDR      r0,[pc,#44] ; [0x48bc] = 0xe000ed20
        0x00004890:    6801        .h      LDR      r1,[r0,#0]
        0x00004892:    f441017f    A...    ORR      r1,r1,#0xff0000
        0x00004896:    6001        .`      STR      r1,[r0,#0]
        0x00004898:    6801        .h      LDR      r1,[r0,#0]
        0x0000489a:    f041417f    A..A    ORR      r1,r1,#0xff000000
        0x0000489e:    6001        .`      STR      r1,[r0,#0]
        0x000048a0:    f7fffdac    ....    BL       vPortSetupTimerInterrupt ; 0x43fc
        0x000048a4:    6065        e`      STR      r5,[r4,#4]
        0x000048a6:    f7fbfcc1    ....    BL       __asm___6_port_c_39a90d8d__prvStartFirstTask ; 0x22c
        0x000048aa:    2000        .       MOVS     r0,#0
        0x000048ac:    bd3e        >.      POP      {r1-r5,pc}
        0x000048ae:    60a5        .`      STR      r5,[r4,#8]
        0x000048b0:    e7e5        ..      B        0x487e ; xPortStartScheduler + 114
    $d
        0x000048b2:    0000        ..      DCW    0
        0x000048b4:    e000e400    ....    DCD    3758154752
        0x000048b8:    2000002c    ,..     DCD    536870956
        0x000048bc:    e000ed20     ...    DCD    3758157088
    $t
    i.xQueueCreateMutex
    xQueueCreateMutex
        0x000048c0:    b510        ..      PUSH     {r4,lr}
        0x000048c2:    4602        .F      MOV      r2,r0
        0x000048c4:    2100        .!      MOVS     r1,#0
        0x000048c6:    2001        .       MOVS     r0,#1
        0x000048c8:    f000f80c    ....    BL       xQueueGenericCreate ; 0x48e4
        0x000048cc:    1e04        ..      SUBS     r4,r0,#0
        0x000048ce:    d007        ..      BEQ      0x48e0 ; xQueueCreateMutex + 32
        0x000048d0:    2100        .!      MOVS     r1,#0
        0x000048d2:    6081        .`      STR      r1,[r0,#8]
        0x000048d4:    6001        .`      STR      r1,[r0,#0]
        0x000048d6:    460b        .F      MOV      r3,r1
        0x000048d8:    460a        .F      MOV      r2,r1
        0x000048da:    60c1        .`      STR      r1,[r0,#0xc]
        0x000048dc:    f000f886    ....    BL       xQueueGenericSend ; 0x49ec
        0x000048e0:    4620         F      MOV      r0,r4
        0x000048e2:    bd10        ..      POP      {r4,pc}
    i.xQueueGenericCreate
    xQueueGenericCreate
        0x000048e4:    b570        p.      PUSH     {r4-r6,lr}
        0x000048e6:    460e        .F      MOV      r6,r1
        0x000048e8:    0005        ..      MOVS     r5,r0
        0x000048ea:    d01f        ..      BEQ      0x492c ; xQueueGenericCreate + 72
        0x000048ec:    f04f30ff    O..0    MOV      r0,#0xffffffff
        0x000048f0:    fbb0f0f5    ....    UDIV     r0,r0,r5
        0x000048f4:    42b0        .B      CMP      r0,r6
        0x000048f6:    d319        ..      BCC      0x492c ; xQueueGenericCreate + 72
        0x000048f8:    fb05f006    ....    MUL      r0,r5,r6
        0x000048fc:    f1100f5d    ..].    CMN      r0,#0x5d
        0x00004900:    d814        ..      BHI      0x492c ; xQueueGenericCreate + 72
        0x00004902:    305c        \0      ADDS     r0,r0,#0x5c
        0x00004904:    f7fff9a4    ....    BL       pvPortMalloc ; 0x3c50
        0x00004908:    0004        ..      MOVS     r4,r0
        0x0000490a:    d00c        ..      BEQ      0x4926 ; xQueueGenericCreate + 66
        0x0000490c:    f104005c    ..\.    ADD      r0,r4,#0x5c
        0x00004910:    b156        V.      CBZ      r6,0x4928 ; xQueueGenericCreate + 68
        0x00004912:    6020         `      STR      r0,[r4,#0]
        0x00004914:    e9c45613    ...V    STRD     r5,r6,[r4,#0x4c]
        0x00004918:    4620         F      MOV      r0,r4
        0x0000491a:    2101        .!      MOVS     r1,#1
        0x0000491c:    f000f80e    ....    BL       xQueueGenericReset ; 0x493c
        0x00004920:    2100        .!      MOVS     r1,#0
        0x00004922:    4620         F      MOV      r0,r4
        0x00004924:    65a1        .e      STR      r1,[r4,#0x58]
        0x00004926:    bd70        p.      POP      {r4-r6,pc}
        0x00004928:    6024        $`      STR      r4,[r4,#0]
        0x0000492a:    e7f3        ..      B        0x4914 ; xQueueGenericCreate + 48
        0x0000492c:    2080        .       MOVS     r0,#0x80
        0x0000492e:    f3808811    ....    MSR      BASEPRI,r0
        0x00004932:    f3bf8f4f    ..O.    DSB      
        0x00004936:    f3bf8f6f    ..o.    ISB      
        0x0000493a:    e7fe        ..      B        0x493a ; xQueueGenericCreate + 86
    i.xQueueGenericReset
    xQueueGenericReset
        0x0000493c:    e92d41f0    -..A    PUSH     {r4-r8,lr}
        0x00004940:    460e        .F      MOV      r6,r1
        0x00004942:    0004        ..      MOVS     r4,r0
        0x00004944:    f04f0501    O...    MOV      r5,#1
        0x00004948:    d02c        ,.      BEQ      0x49a4 ; xQueueGenericReset + 104
        0x0000494a:    6ce0        .l      LDR      r0,[r4,#0x4c]
        0x0000494c:    b390        ..      CBZ      r0,0x49b4 ; xQueueGenericReset + 120
        0x0000494e:    1eaf        ..      SUBS     r7,r5,#2
        0x00004950:    fbb7f1f0    ....    UDIV     r1,r7,r0
        0x00004954:    6d20         m      LDR      r0,[r4,#0x50]
        0x00004956:    4281        .B      CMP      r1,r0
        0x00004958:    d33d        =.      BCC      0x49d6 ; xQueueGenericReset + 154
        0x0000495a:    f7fffcd7    ....    BL       vPortEnterCritical ; 0x430c
        0x0000495e:    e9d42013    ...     LDRD     r2,r0,[r4,#0x4c]
        0x00004962:    6821        !h      LDR      r1,[r4,#0]
        0x00004964:    fb021100    ....    MLA      r1,r2,r0,r1
        0x00004968:    60a1        .`      STR      r1,[r4,#8]
        0x0000496a:    2100        .!      MOVS     r1,#0
        0x0000496c:    64a1        .d      STR      r1,[r4,#0x48]
        0x0000496e:    6821        !h      LDR      r1,[r4,#0]
        0x00004970:    6061        a`      STR      r1,[r4,#4]
        0x00004972:    460a        .F      MOV      r2,r1
        0x00004974:    e9d40113    ....    LDRD     r0,r1,[r4,#0x4c]
        0x00004978:    1e40        @.      SUBS     r0,r0,#1
        0x0000497a:    fb002101    ...!    MLA      r1,r0,r1,r2
        0x0000497e:    4620         F      MOV      r0,r4
        0x00004980:    60e1        .`      STR      r1,[r4,#0xc]
        0x00004982:    f8007f54    ..T.    STRB     r7,[r0,#0x54]!
        0x00004986:    7047        Gp      STRB     r7,[r0,#1]
        0x00004988:    f1040010    ....    ADD      r0,r4,#0x10
        0x0000498c:    b19e        ..      CBZ      r6,0x49b6 ; xQueueGenericReset + 122
        0x0000498e:    f7fffc95    ....    BL       vListInitialise ; 0x42bc
        0x00004992:    f104002c    ..,.    ADD      r0,r4,#0x2c
        0x00004996:    f7fffc91    ....    BL       vListInitialise ; 0x42bc
        0x0000499a:    f7fffcd7    ....    BL       vPortExitCritical ; 0x434c
        0x0000499e:    4628        (F      MOV      r0,r5
        0x000049a0:    e8bd81f0    ....    POP      {r4-r8,pc}
        0x000049a4:    2080        .       MOVS     r0,#0x80
        0x000049a6:    f3808811    ....    MSR      BASEPRI,r0
        0x000049aa:    f3bf8f4f    ..O.    DSB      
        0x000049ae:    f3bf8f6f    ..o.    ISB      
        0x000049b2:    e7fe        ..      B        0x49b2 ; xQueueGenericReset + 118
        0x000049b4:    e00f        ..      B        0x49d6 ; xQueueGenericReset + 154
        0x000049b6:    6921        !i      LDR      r1,[r4,#0x10]
        0x000049b8:    2900        .)      CMP      r1,#0
        0x000049ba:    d0ee        ..      BEQ      0x499a ; xQueueGenericReset + 94
        0x000049bc:    f000fbfa    ....    BL       xTaskRemoveFromEventList ; 0x51b4
        0x000049c0:    2800        .(      CMP      r0,#0
        0x000049c2:    d0ea        ..      BEQ      0x499a ; xQueueGenericReset + 94
        0x000049c4:    4908        .I      LDR      r1,[pc,#32] ; [0x49e8] = 0xe000ed04
        0x000049c6:    f04f5080    O..P    MOV      r0,#0x10000000
        0x000049ca:    6008        .`      STR      r0,[r1,#0]
        0x000049cc:    f3bf8f4f    ..O.    DSB      
        0x000049d0:    f3bf8f6f    ..o.    ISB      
        0x000049d4:    e7e1        ..      B        0x499a ; xQueueGenericReset + 94
        0x000049d6:    2080        .       MOVS     r0,#0x80
        0x000049d8:    f3808811    ....    MSR      BASEPRI,r0
        0x000049dc:    f3bf8f4f    ..O.    DSB      
        0x000049e0:    f3bf8f6f    ..o.    ISB      
        0x000049e4:    e7fe        ..      B        0x49e4 ; xQueueGenericReset + 168
    $d
        0x000049e6:    0000        ..      DCW    0
        0x000049e8:    e000ed04    ....    DCD    3758157060
    $t
    i.xQueueGenericSend
    xQueueGenericSend
        0x000049ec:    e92d4fff    -..O    PUSH     {r0-r11,lr}
        0x000049f0:    b083        ..      SUB      sp,sp,#0xc
        0x000049f2:    461f        .F      MOV      r7,r3
        0x000049f4:    468b        .F      MOV      r11,r1
        0x000049f6:    0004        ..      MOVS     r4,r0
        0x000049f8:    f04f0600    O...    MOV      r6,#0
        0x000049fc:    d003        ..      BEQ      0x4a06 ; xQueueGenericSend + 26
        0x000049fe:    f1bb0f00    ....    CMP      r11,#0
        0x00004a02:    d008        ..      BEQ      0x4a16 ; xQueueGenericSend + 42
        0x00004a04:    e011        ..      B        0x4a2a ; xQueueGenericSend + 62
        0x00004a06:    2080        .       MOVS     r0,#0x80
        0x00004a08:    f3808811    ....    MSR      BASEPRI,r0
        0x00004a0c:    f3bf8f4f    ..O.    DSB      
        0x00004a10:    f3bf8f6f    ..o.    ISB      
        0x00004a14:    e7fe        ..      B        0x4a14 ; xQueueGenericSend + 40
        0x00004a16:    6d20         m      LDR      r0,[r4,#0x50]
        0x00004a18:    b138        8.      CBZ      r0,0x4a2a ; xQueueGenericSend + 62
        0x00004a1a:    2080        .       MOVS     r0,#0x80
        0x00004a1c:    f3808811    ....    MSR      BASEPRI,r0
        0x00004a20:    f3bf8f4f    ..O.    DSB      
        0x00004a24:    f3bf8f6f    ..o.    ISB      
        0x00004a28:    e7fe        ..      B        0x4a28 ; xQueueGenericSend + 60
        0x00004a2a:    2f02        ./      CMP      r7,#2
        0x00004a2c:    d10a        ..      BNE      0x4a44 ; xQueueGenericSend + 88
        0x00004a2e:    6ce0        .l      LDR      r0,[r4,#0x4c]
        0x00004a30:    2801        .(      CMP      r0,#1
        0x00004a32:    d007        ..      BEQ      0x4a44 ; xQueueGenericSend + 88
        0x00004a34:    2080        .       MOVS     r0,#0x80
        0x00004a36:    f3808811    ....    MSR      BASEPRI,r0
        0x00004a3a:    f3bf8f4f    ..O.    DSB      
        0x00004a3e:    f3bf8f6f    ..o.    ISB      
        0x00004a42:    e7fe        ..      B        0x4a42 ; xQueueGenericSend + 86
        0x00004a44:    f000fa56    ..V.    BL       xTaskGetSchedulerState ; 0x4ef4
        0x00004a48:    f8df9114    ....    LDR      r9,[pc,#276] ; [0x4b60] = 0xe000ed04
        0x00004a4c:    f04f0a00    O...    MOV      r10,#0
        0x00004a50:    f04f5880    O..X    MOV      r8,#0x10000000
        0x00004a54:    b948        H.      CBNZ     r0,0x4a6a ; xQueueGenericSend + 126
        0x00004a56:    9805        ..      LDR      r0,[sp,#0x14]
        0x00004a58:    b138        8.      CBZ      r0,0x4a6a ; xQueueGenericSend + 126
        0x00004a5a:    2080        .       MOVS     r0,#0x80
        0x00004a5c:    f3808811    ....    MSR      BASEPRI,r0
        0x00004a60:    f3bf8f4f    ..O.    DSB      
        0x00004a64:    f3bf8f6f    ..o.    ISB      
        0x00004a68:    e7fe        ..      B        0x4a68 ; xQueueGenericSend + 124
        0x00004a6a:    f7fffc4f    ..O.    BL       vPortEnterCritical ; 0x430c
        0x00004a6e:    6ca0        .l      LDR      r0,[r4,#0x48]
        0x00004a70:    6ce1        .l      LDR      r1,[r4,#0x4c]
        0x00004a72:    4288        .B      CMP      r0,r1
        0x00004a74:    d305        ..      BCC      0x4a82 ; xQueueGenericSend + 150
        0x00004a76:    2f02        ./      CMP      r7,#2
        0x00004a78:    d003        ..      BEQ      0x4a82 ; xQueueGenericSend + 150
        0x00004a7a:    9805        ..      LDR      r0,[sp,#0x14]
        0x00004a7c:    b318        ..      CBZ      r0,0x4ac6 ; xQueueGenericSend + 218
        0x00004a7e:    b32e        ..      CBZ      r6,0x4acc ; xQueueGenericSend + 224
        0x00004a80:    e028        (.      B        0x4ad4 ; xQueueGenericSend + 232
        0x00004a82:    6ca5        .l      LDR      r5,[r4,#0x48]
        0x00004a84:    463a        :F      MOV      r2,r7
        0x00004a86:    4659        YF      MOV      r1,r11
        0x00004a88:    4620         F      MOV      r0,r4
        0x00004a8a:    f7fefdec    ....    BL       prvCopyDataToQueue ; 0x3666
        0x00004a8e:    6da1        .m      LDR      r1,[r4,#0x58]
        0x00004a90:    b131        1.      CBZ      r1,0x4aa0 ; xQueueGenericSend + 180
        0x00004a92:    2f02        ./      CMP      r7,#2
        0x00004a94:    d100        ..      BNE      0x4a98 ; xQueueGenericSend + 172
        0x00004a96:    b985        ..      CBNZ     r5,0x4aba ; xQueueGenericSend + 206
        0x00004a98:    4620         F      MOV      r0,r4
        0x00004a9a:    f7feff14    ....    BL       prvNotifyQueueSetContainer ; 0x38c6
        0x00004a9e:    e005        ..      B        0x4aac ; xQueueGenericSend + 192
        0x00004aa0:    6ae1        .j      LDR      r1,[r4,#0x2c]
        0x00004aa2:    b119        ..      CBZ      r1,0x4aac ; xQueueGenericSend + 192
        0x00004aa4:    f104002c    ..,.    ADD      r0,r4,#0x2c
        0x00004aa8:    f000fb84    ....    BL       xTaskRemoveFromEventList ; 0x51b4
        0x00004aac:    b128        (.      CBZ      r0,0x4aba ; xQueueGenericSend + 206
        0x00004aae:    f8c98000    ....    STR      r8,[r9,#0]
        0x00004ab2:    f3bf8f4f    ..O.    DSB      
        0x00004ab6:    f3bf8f6f    ..o.    ISB      
        0x00004aba:    f7fffc47    ..G.    BL       vPortExitCritical ; 0x434c
        0x00004abe:    2001        .       MOVS     r0,#1
        0x00004ac0:    b007        ..      ADD      sp,sp,#0x1c
        0x00004ac2:    e8bd8ff0    ....    POP      {r4-r11,pc}
        0x00004ac6:    f7fffc41    ..A.    BL       vPortExitCritical ; 0x434c
        0x00004aca:    e021        !.      B        0x4b10 ; xQueueGenericSend + 292
        0x00004acc:    4668        hF      MOV      r0,sp
        0x00004ace:    f7fffce9    ....    BL       vTaskInternalSetTimeOutState ; 0x44a4
        0x00004ad2:    2601        .&      MOVS     r6,#1
        0x00004ad4:    f7fffc3a    ..:.    BL       vPortExitCritical ; 0x434c
        0x00004ad8:    f7fffdde    ....    BL       vTaskSuspendAll ; 0x4698
        0x00004adc:    f7fffc16    ....    BL       vPortEnterCritical ; 0x430c
        0x00004ae0:    f9940054    ..T.    LDRSB    r0,[r4,#0x54]
        0x00004ae4:    1c40        @.      ADDS     r0,r0,#1
        0x00004ae6:    d101        ..      BNE      0x4aec ; xQueueGenericSend + 256
        0x00004ae8:    f884a054    ..T.    STRB     r10,[r4,#0x54]
        0x00004aec:    f9940055    ..U.    LDRSB    r0,[r4,#0x55]
        0x00004af0:    1c40        @.      ADDS     r0,r0,#1
        0x00004af2:    d101        ..      BNE      0x4af8 ; xQueueGenericSend + 268
        0x00004af4:    f884a055    ..U.    STRB     r10,[r4,#0x55]
        0x00004af8:    f7fffc28    ..(.    BL       vPortExitCritical ; 0x434c
        0x00004afc:    a905        ..      ADD      r1,sp,#0x14
        0x00004afe:    4668        hF      MOV      r0,sp
        0x00004b00:    f000f980    ....    BL       xTaskCheckForTimeOut ; 0x4e04
        0x00004b04:    b130        0.      CBZ      r0,0x4b14 ; xQueueGenericSend + 296
        0x00004b06:    4620         F      MOV      r0,r4
        0x00004b08:    f7fff866    ..f.    BL       prvUnlockQueue ; 0x3bd8
        0x00004b0c:    f000fbc2    ....    BL       xTaskResumeAll ; 0x5294
        0x00004b10:    2000        .       MOVS     r0,#0
        0x00004b12:    e7d5        ..      B        0x4ac0 ; xQueueGenericSend + 212
        0x00004b14:    f7fffbfa    ....    BL       vPortEnterCritical ; 0x430c
        0x00004b18:    6ca0        .l      LDR      r0,[r4,#0x48]
        0x00004b1a:    6ce1        .l      LDR      r1,[r4,#0x4c]
        0x00004b1c:    4288        .B      CMP      r0,r1
        0x00004b1e:    d101        ..      BNE      0x4b24 ; xQueueGenericSend + 312
        0x00004b20:    2501        .%      MOVS     r5,#1
        0x00004b22:    e000        ..      B        0x4b26 ; xQueueGenericSend + 314
        0x00004b24:    2500        .%      MOVS     r5,#0
        0x00004b26:    f7fffc11    ....    BL       vPortExitCritical ; 0x434c
        0x00004b2a:    b195        ..      CBZ      r5,0x4b52 ; xQueueGenericSend + 358
        0x00004b2c:    f1040010    ....    ADD      r0,r4,#0x10
        0x00004b30:    9905        ..      LDR      r1,[sp,#0x14]
        0x00004b32:    f7fffcc5    ....    BL       vTaskPlaceOnEventList ; 0x44c0
        0x00004b36:    4620         F      MOV      r0,r4
        0x00004b38:    f7fff84e    ..N.    BL       prvUnlockQueue ; 0x3bd8
        0x00004b3c:    f000fbaa    ....    BL       xTaskResumeAll ; 0x5294
        0x00004b40:    2800        .(      CMP      r0,#0
        0x00004b42:    d192        ..      BNE      0x4a6a ; xQueueGenericSend + 126
        0x00004b44:    f8c98000    ....    STR      r8,[r9,#0]
        0x00004b48:    f3bf8f4f    ..O.    DSB      
        0x00004b4c:    f3bf8f6f    ..o.    ISB      
        0x00004b50:    e78b        ..      B        0x4a6a ; xQueueGenericSend + 126
        0x00004b52:    4620         F      MOV      r0,r4
        0x00004b54:    f7fff840    ..@.    BL       prvUnlockQueue ; 0x3bd8
        0x00004b58:    f000fb9c    ....    BL       xTaskResumeAll ; 0x5294
        0x00004b5c:    e785        ..      B        0x4a6a ; xQueueGenericSend + 126
    $d
        0x00004b5e:    0000        ..      DCW    0
        0x00004b60:    e000ed04    ....    DCD    3758157060
    $t
    i.xQueueReceive
    xQueueReceive
        0x00004b64:    e92d47f7    -..G    PUSH     {r0-r2,r4-r10,lr}
        0x00004b68:    b083        ..      SUB      sp,sp,#0xc
        0x00004b6a:    468a        .F      MOV      r10,r1
        0x00004b6c:    0004        ..      MOVS     r4,r0
        0x00004b6e:    f04f0600    O...    MOV      r6,#0
        0x00004b72:    d003        ..      BEQ      0x4b7c ; xQueueReceive + 24
        0x00004b74:    f1ba0f00    ....    CMP      r10,#0
        0x00004b78:    d008        ..      BEQ      0x4b8c ; xQueueReceive + 40
        0x00004b7a:    e011        ..      B        0x4ba0 ; xQueueReceive + 60
        0x00004b7c:    2080        .       MOVS     r0,#0x80
        0x00004b7e:    f3808811    ....    MSR      BASEPRI,r0
        0x00004b82:    f3bf8f4f    ..O.    DSB      
        0x00004b86:    f3bf8f6f    ..o.    ISB      
        0x00004b8a:    e7fe        ..      B        0x4b8a ; xQueueReceive + 38
        0x00004b8c:    6d20         m      LDR      r0,[r4,#0x50]
        0x00004b8e:    b138        8.      CBZ      r0,0x4ba0 ; xQueueReceive + 60
        0x00004b90:    2080        .       MOVS     r0,#0x80
        0x00004b92:    f3808811    ....    MSR      BASEPRI,r0
        0x00004b96:    f3bf8f4f    ..O.    DSB      
        0x00004b9a:    f3bf8f6f    ..o.    ISB      
        0x00004b9e:    e7fe        ..      B        0x4b9e ; xQueueReceive + 58
        0x00004ba0:    f000f9a8    ....    BL       xTaskGetSchedulerState ; 0x4ef4
        0x00004ba4:    f8df90f0    ....    LDR      r9,[pc,#240] ; [0x4c98] = 0xe000ed04
        0x00004ba8:    2700        .'      MOVS     r7,#0
        0x00004baa:    f04f5880    O..X    MOV      r8,#0x10000000
        0x00004bae:    b948        H.      CBNZ     r0,0x4bc4 ; xQueueReceive + 96
        0x00004bb0:    9805        ..      LDR      r0,[sp,#0x14]
        0x00004bb2:    b138        8.      CBZ      r0,0x4bc4 ; xQueueReceive + 96
        0x00004bb4:    2080        .       MOVS     r0,#0x80
        0x00004bb6:    f3808811    ....    MSR      BASEPRI,r0
        0x00004bba:    f3bf8f4f    ..O.    DSB      
        0x00004bbe:    f3bf8f6f    ..o.    ISB      
        0x00004bc2:    e7fe        ..      B        0x4bc2 ; xQueueReceive + 94
        0x00004bc4:    f7fffba2    ....    BL       vPortEnterCritical ; 0x430c
        0x00004bc8:    6ca5        .l      LDR      r5,[r4,#0x48]
        0x00004bca:    b1c5        ..      CBZ      r5,0x4bfe ; xQueueReceive + 154
        0x00004bcc:    4651        QF      MOV      r1,r10
        0x00004bce:    4620         F      MOV      r0,r4
        0x00004bd0:    f7fefd36    ..6.    BL       prvCopyDataFromQueue ; 0x3640
        0x00004bd4:    1e6d        m.      SUBS     r5,r5,#1
        0x00004bd6:    64a5        .d      STR      r5,[r4,#0x48]
        0x00004bd8:    6920         i      LDR      r0,[r4,#0x10]
        0x00004bda:    b150        P.      CBZ      r0,0x4bf2 ; xQueueReceive + 142
        0x00004bdc:    f1040010    ....    ADD      r0,r4,#0x10
        0x00004be0:    f000fae8    ....    BL       xTaskRemoveFromEventList ; 0x51b4
        0x00004be4:    b128        (.      CBZ      r0,0x4bf2 ; xQueueReceive + 142
        0x00004be6:    f8c98000    ....    STR      r8,[r9,#0]
        0x00004bea:    f3bf8f4f    ..O.    DSB      
        0x00004bee:    f3bf8f6f    ..o.    ISB      
        0x00004bf2:    f7fffbab    ....    BL       vPortExitCritical ; 0x434c
        0x00004bf6:    2001        .       MOVS     r0,#1
        0x00004bf8:    b006        ..      ADD      sp,sp,#0x18
        0x00004bfa:    e8bd87f0    ....    POP      {r4-r10,pc}
        0x00004bfe:    9805        ..      LDR      r0,[sp,#0x14]
        0x00004c00:    b108        ..      CBZ      r0,0x4c06 ; xQueueReceive + 162
        0x00004c02:    b11e        ..      CBZ      r6,0x4c0c ; xQueueReceive + 168
        0x00004c04:    e006        ..      B        0x4c14 ; xQueueReceive + 176
        0x00004c06:    f7fffba1    ....    BL       vPortExitCritical ; 0x434c
        0x00004c0a:    e027        '.      B        0x4c5c ; xQueueReceive + 248
        0x00004c0c:    4668        hF      MOV      r0,sp
        0x00004c0e:    f7fffc49    ..I.    BL       vTaskInternalSetTimeOutState ; 0x44a4
        0x00004c12:    2601        .&      MOVS     r6,#1
        0x00004c14:    f7fffb9a    ....    BL       vPortExitCritical ; 0x434c
        0x00004c18:    f7fffd3e    ..>.    BL       vTaskSuspendAll ; 0x4698
        0x00004c1c:    f7fffb76    ..v.    BL       vPortEnterCritical ; 0x430c
        0x00004c20:    f9940054    ..T.    LDRSB    r0,[r4,#0x54]
        0x00004c24:    1c40        @.      ADDS     r0,r0,#1
        0x00004c26:    d101        ..      BNE      0x4c2c ; xQueueReceive + 200
        0x00004c28:    f8847054    ..Tp    STRB     r7,[r4,#0x54]
        0x00004c2c:    f9940055    ..U.    LDRSB    r0,[r4,#0x55]
        0x00004c30:    1c40        @.      ADDS     r0,r0,#1
        0x00004c32:    d101        ..      BNE      0x4c38 ; xQueueReceive + 212
        0x00004c34:    f8847055    ..Up    STRB     r7,[r4,#0x55]
        0x00004c38:    f7fffb88    ....    BL       vPortExitCritical ; 0x434c
        0x00004c3c:    a905        ..      ADD      r1,sp,#0x14
        0x00004c3e:    4668        hF      MOV      r0,sp
        0x00004c40:    f000f8e0    ....    BL       xTaskCheckForTimeOut ; 0x4e04
        0x00004c44:    2800        .(      CMP      r0,#0
        0x00004c46:    4620         F      MOV      r0,r4
        0x00004c48:    d00a        ..      BEQ      0x4c60 ; xQueueReceive + 252
        0x00004c4a:    f7feffc5    ....    BL       prvUnlockQueue ; 0x3bd8
        0x00004c4e:    f000fb21    ..!.    BL       xTaskResumeAll ; 0x5294
        0x00004c52:    4620         F      MOV      r0,r4
        0x00004c54:    f7fefe2a    ..*.    BL       prvIsQueueEmpty ; 0x38ac
        0x00004c58:    2800        .(      CMP      r0,#0
        0x00004c5a:    d0b3        ..      BEQ      0x4bc4 ; xQueueReceive + 96
        0x00004c5c:    2000        .       MOVS     r0,#0
        0x00004c5e:    e7cb        ..      B        0x4bf8 ; xQueueReceive + 148
        0x00004c60:    f7fefe24    ..$.    BL       prvIsQueueEmpty ; 0x38ac
        0x00004c64:    b190        ..      CBZ      r0,0x4c8c ; xQueueReceive + 296
        0x00004c66:    f104002c    ..,.    ADD      r0,r4,#0x2c
        0x00004c6a:    9905        ..      LDR      r1,[sp,#0x14]
        0x00004c6c:    f7fffc28    ..(.    BL       vTaskPlaceOnEventList ; 0x44c0
        0x00004c70:    4620         F      MOV      r0,r4
        0x00004c72:    f7feffb1    ....    BL       prvUnlockQueue ; 0x3bd8
        0x00004c76:    f000fb0d    ....    BL       xTaskResumeAll ; 0x5294
        0x00004c7a:    2800        .(      CMP      r0,#0
        0x00004c7c:    d1a2        ..      BNE      0x4bc4 ; xQueueReceive + 96
        0x00004c7e:    f8c98000    ....    STR      r8,[r9,#0]
        0x00004c82:    f3bf8f4f    ..O.    DSB      
        0x00004c86:    f3bf8f6f    ..o.    ISB      
        0x00004c8a:    e79b        ..      B        0x4bc4 ; xQueueReceive + 96
        0x00004c8c:    4620         F      MOV      r0,r4
        0x00004c8e:    f7feffa3    ....    BL       prvUnlockQueue ; 0x3bd8
        0x00004c92:    f000faff    ....    BL       xTaskResumeAll ; 0x5294
        0x00004c96:    e795        ..      B        0x4bc4 ; xQueueReceive + 96
    $d
        0x00004c98:    e000ed04    ....    DCD    3758157060
    $t
    i.xQueueSemaphoreTake
    xQueueSemaphoreTake
        0x00004c9c:    e92d43f3    -..C    PUSH     {r0,r1,r4-r9,lr}
        0x00004ca0:    f04f0500    O...    MOV      r5,#0
        0x00004ca4:    b083        ..      SUB      sp,sp,#0xc
        0x00004ca6:    0004        ..      MOVS     r4,r0
        0x00004ca8:    46a9        .F      MOV      r9,r5
        0x00004caa:    d009        ..      BEQ      0x4cc0 ; xQueueSemaphoreTake + 36
        0x00004cac:    6d20         m      LDR      r0,[r4,#0x50]
        0x00004cae:    b178        x.      CBZ      r0,0x4cd0 ; xQueueSemaphoreTake + 52
        0x00004cb0:    2080        .       MOVS     r0,#0x80
        0x00004cb2:    f3808811    ....    MSR      BASEPRI,r0
        0x00004cb6:    f3bf8f4f    ..O.    DSB      
        0x00004cba:    f3bf8f6f    ..o.    ISB      
        0x00004cbe:    e7fe        ..      B        0x4cbe ; xQueueSemaphoreTake + 34
        0x00004cc0:    2080        .       MOVS     r0,#0x80
        0x00004cc2:    f3808811    ....    MSR      BASEPRI,r0
        0x00004cc6:    f3bf8f4f    ..O.    DSB      
        0x00004cca:    f3bf8f6f    ..o.    ISB      
        0x00004cce:    e7fe        ..      B        0x4cce ; xQueueSemaphoreTake + 50
        0x00004cd0:    f000f910    ....    BL       xTaskGetSchedulerState ; 0x4ef4
        0x00004cd4:    f8df8128    ..(.    LDR      r8,[pc,#296] ; [0x4e00] = 0xe000ed04
        0x00004cd8:    2600        .&      MOVS     r6,#0
        0x00004cda:    f04f5780    O..W    MOV      r7,#0x10000000
        0x00004cde:    b948        H.      CBNZ     r0,0x4cf4 ; xQueueSemaphoreTake + 88
        0x00004ce0:    9804        ..      LDR      r0,[sp,#0x10]
        0x00004ce2:    b138        8.      CBZ      r0,0x4cf4 ; xQueueSemaphoreTake + 88
        0x00004ce4:    2080        .       MOVS     r0,#0x80
        0x00004ce6:    f3808811    ....    MSR      BASEPRI,r0
        0x00004cea:    f3bf8f4f    ..O.    DSB      
        0x00004cee:    f3bf8f6f    ..o.    ISB      
        0x00004cf2:    e7fe        ..      B        0x4cf2 ; xQueueSemaphoreTake + 86
        0x00004cf4:    f7fffb0a    ....    BL       vPortEnterCritical ; 0x430c
        0x00004cf8:    6ca0        .l      LDR      r0,[r4,#0x48]
        0x00004cfa:    b1c8        ..      CBZ      r0,0x4d30 ; xQueueSemaphoreTake + 148
        0x00004cfc:    1e40        @.      SUBS     r0,r0,#1
        0x00004cfe:    64a0        .d      STR      r0,[r4,#0x48]
        0x00004d00:    6820         h      LDR      r0,[r4,#0]
        0x00004d02:    b910        ..      CBNZ     r0,0x4d0a ; xQueueSemaphoreTake + 110
        0x00004d04:    f7fff844    ..D.    BL       pvTaskIncrementMutexHeldCount ; 0x3d90
        0x00004d08:    60a0        .`      STR      r0,[r4,#8]
        0x00004d0a:    6920         i      LDR      r0,[r4,#0x10]
        0x00004d0c:    b150        P.      CBZ      r0,0x4d24 ; xQueueSemaphoreTake + 136
        0x00004d0e:    f1040010    ....    ADD      r0,r4,#0x10
        0x00004d12:    f000fa4f    ..O.    BL       xTaskRemoveFromEventList ; 0x51b4
        0x00004d16:    b128        (.      CBZ      r0,0x4d24 ; xQueueSemaphoreTake + 136
        0x00004d18:    f8c87000    ...p    STR      r7,[r8,#0]
        0x00004d1c:    f3bf8f4f    ..O.    DSB      
        0x00004d20:    f3bf8f6f    ..o.    ISB      
        0x00004d24:    f7fffb12    ....    BL       vPortExitCritical ; 0x434c
        0x00004d28:    2001        .       MOVS     r0,#1
        0x00004d2a:    b005        ..      ADD      sp,sp,#0x14
        0x00004d2c:    e8bd83f0    ....    POP      {r4-r9,pc}
        0x00004d30:    9804        ..      LDR      r0,[sp,#0x10]
        0x00004d32:    b108        ..      CBZ      r0,0x4d38 ; xQueueSemaphoreTake + 156
        0x00004d34:    b11d        ..      CBZ      r5,0x4d3e ; xQueueSemaphoreTake + 162
        0x00004d36:    e006        ..      B        0x4d46 ; xQueueSemaphoreTake + 170
        0x00004d38:    f7fffb08    ....    BL       vPortExitCritical ; 0x434c
        0x00004d3c:    e05e        ^.      B        0x4dfc ; xQueueSemaphoreTake + 352
        0x00004d3e:    4668        hF      MOV      r0,sp
        0x00004d40:    f7fffbb0    ....    BL       vTaskInternalSetTimeOutState ; 0x44a4
        0x00004d44:    2501        .%      MOVS     r5,#1
        0x00004d46:    f7fffb01    ....    BL       vPortExitCritical ; 0x434c
        0x00004d4a:    f7fffca5    ....    BL       vTaskSuspendAll ; 0x4698
        0x00004d4e:    f7fffadd    ....    BL       vPortEnterCritical ; 0x430c
        0x00004d52:    f9940054    ..T.    LDRSB    r0,[r4,#0x54]
        0x00004d56:    1c40        @.      ADDS     r0,r0,#1
        0x00004d58:    d101        ..      BNE      0x4d5e ; xQueueSemaphoreTake + 194
        0x00004d5a:    f8846054    ..T`    STRB     r6,[r4,#0x54]
        0x00004d5e:    f9940055    ..U.    LDRSB    r0,[r4,#0x55]
        0x00004d62:    1c40        @.      ADDS     r0,r0,#1
        0x00004d64:    d101        ..      BNE      0x4d6a ; xQueueSemaphoreTake + 206
        0x00004d66:    f8846055    ..U`    STRB     r6,[r4,#0x55]
        0x00004d6a:    f7fffaef    ....    BL       vPortExitCritical ; 0x434c
        0x00004d6e:    a904        ..      ADD      r1,sp,#0x10
        0x00004d70:    4668        hF      MOV      r0,sp
        0x00004d72:    f000f847    ..G.    BL       xTaskCheckForTimeOut ; 0x4e04
        0x00004d76:    2800        .(      CMP      r0,#0
        0x00004d78:    4620         F      MOV      r0,r4
        0x00004d7a:    d014        ..      BEQ      0x4da6 ; xQueueSemaphoreTake + 266
        0x00004d7c:    f7feff2c    ..,.    BL       prvUnlockQueue ; 0x3bd8
        0x00004d80:    f000fa88    ....    BL       xTaskResumeAll ; 0x5294
        0x00004d84:    4620         F      MOV      r0,r4
        0x00004d86:    f7fefd91    ....    BL       prvIsQueueEmpty ; 0x38ac
        0x00004d8a:    2800        .(      CMP      r0,#0
        0x00004d8c:    d0b2        ..      BEQ      0x4cf4 ; xQueueSemaphoreTake + 88
        0x00004d8e:    f1b90f00    ....    CMP      r9,#0
        0x00004d92:    d033        3.      BEQ      0x4dfc ; xQueueSemaphoreTake + 352
        0x00004d94:    f7fffaba    ....    BL       vPortEnterCritical ; 0x430c
        0x00004d98:    6ae0        .j      LDR      r0,[r4,#0x2c]
        0x00004d9a:    b350        P.      CBZ      r0,0x4df2 ; xQueueSemaphoreTake + 342
        0x00004d9c:    6ba0        .k      LDR      r0,[r4,#0x38]
        0x00004d9e:    6800        .h      LDR      r0,[r0,#0]
        0x00004da0:    f1c00108    ....    RSB      r1,r0,#8
        0x00004da4:    e026        &.      B        0x4df4 ; xQueueSemaphoreTake + 344
        0x00004da6:    f7fefd81    ....    BL       prvIsQueueEmpty ; 0x38ac
        0x00004daa:    b1e0        ..      CBZ      r0,0x4de6 ; xQueueSemaphoreTake + 330
        0x00004dac:    6820         h      LDR      r0,[r4,#0]
        0x00004dae:    b938        8.      CBNZ     r0,0x4dc0 ; xQueueSemaphoreTake + 292
        0x00004db0:    f7fffaac    ....    BL       vPortEnterCritical ; 0x430c
        0x00004db4:    68a0        .h      LDR      r0,[r4,#8]
        0x00004db6:    f000f9a3    ....    BL       xTaskPriorityInherit ; 0x5100
        0x00004dba:    4681        .F      MOV      r9,r0
        0x00004dbc:    f7fffac6    ....    BL       vPortExitCritical ; 0x434c
        0x00004dc0:    f104002c    ..,.    ADD      r0,r4,#0x2c
        0x00004dc4:    9904        ..      LDR      r1,[sp,#0x10]
        0x00004dc6:    f7fffb7b    ..{.    BL       vTaskPlaceOnEventList ; 0x44c0
        0x00004dca:    4620         F      MOV      r0,r4
        0x00004dcc:    f7feff04    ....    BL       prvUnlockQueue ; 0x3bd8
        0x00004dd0:    f000fa60    ..`.    BL       xTaskResumeAll ; 0x5294
        0x00004dd4:    2800        .(      CMP      r0,#0
        0x00004dd6:    d18d        ..      BNE      0x4cf4 ; xQueueSemaphoreTake + 88
        0x00004dd8:    f8c87000    ...p    STR      r7,[r8,#0]
        0x00004ddc:    f3bf8f4f    ..O.    DSB      
        0x00004de0:    f3bf8f6f    ..o.    ISB      
        0x00004de4:    e786        ..      B        0x4cf4 ; xQueueSemaphoreTake + 88
        0x00004de6:    4620         F      MOV      r0,r4
        0x00004de8:    f7fefef6    ....    BL       prvUnlockQueue ; 0x3bd8
        0x00004dec:    f000fa52    ..R.    BL       xTaskResumeAll ; 0x5294
        0x00004df0:    e780        ..      B        0x4cf4 ; xQueueSemaphoreTake + 88
        0x00004df2:    2100        .!      MOVS     r1,#0
        0x00004df4:    68a0        .h      LDR      r0,[r4,#8]
        0x00004df6:    f7fffba3    ....    BL       vTaskPriorityDisinheritAfterTimeout ; 0x4540
        0x00004dfa:    e79d        ..      B        0x4d38 ; xQueueSemaphoreTake + 156
        0x00004dfc:    2000        .       MOVS     r0,#0
        0x00004dfe:    e794        ..      B        0x4d2a ; xQueueSemaphoreTake + 142
    $d
        0x00004e00:    e000ed04    ....    DCD    3758157060
    $t
    i.xTaskCheckForTimeOut
    xTaskCheckForTimeOut
        0x00004e04:    e92d41f0    -..A    PUSH     {r4-r8,lr}
        0x00004e08:    460d        .F      MOV      r5,r1
        0x00004e0a:    0004        ..      MOVS     r4,r0
        0x00004e0c:    d00f        ..      BEQ      0x4e2e ; xTaskCheckForTimeOut + 42
        0x00004e0e:    b1b5        ..      CBZ      r5,0x4e3e ; xTaskCheckForTimeOut + 58
        0x00004e10:    f7fffa7c    ..|.    BL       vPortEnterCritical ; 0x430c
        0x00004e14:    4e1d        .N      LDR      r6,[pc,#116] ; [0x4e8c] = 0x20000038
        0x00004e16:    68f1        .h      LDR      r1,[r6,#0xc]
        0x00004e18:    6863        ch      LDR      r3,[r4,#4]
        0x00004e1a:    6830        0h      LDR      r0,[r6,#0]
        0x00004e1c:    1aca        ..      SUBS     r2,r1,r3
        0x00004e1e:    2700        .'      MOVS     r7,#0
        0x00004e20:    f8900051    ..Q.    LDRB     r0,[r0,#0x51]
        0x00004e24:    b198        ..      CBZ      r0,0x4e4e ; xTaskCheckForTimeOut + 74
        0x00004e26:    6830        0h      LDR      r0,[r6,#0]
        0x00004e28:    f8807051    ..Qp    STRB     r7,[r0,#0x51]
        0x00004e2c:    e028        (.      B        0x4e80 ; xTaskCheckForTimeOut + 124
        0x00004e2e:    2080        .       MOVS     r0,#0x80
        0x00004e30:    f3808811    ....    MSR      BASEPRI,r0
        0x00004e34:    f3bf8f4f    ..O.    DSB      
        0x00004e38:    f3bf8f6f    ..o.    ISB      
        0x00004e3c:    e7fe        ..      B        0x4e3c ; xTaskCheckForTimeOut + 56
        0x00004e3e:    2080        .       MOVS     r0,#0x80
        0x00004e40:    f3808811    ....    MSR      BASEPRI,r0
        0x00004e44:    f3bf8f4f    ..O.    DSB      
        0x00004e48:    f3bf8f6f    ..o.    ISB      
        0x00004e4c:    e7fe        ..      B        0x4e4c ; xTaskCheckForTimeOut + 72
        0x00004e4e:    6828        (h      LDR      r0,[r5,#0]
        0x00004e50:    f1b03fff    ...?    CMP      r0,#0xffffffff
        0x00004e54:    d009        ..      BEQ      0x4e6a ; xTaskCheckForTimeOut + 102
        0x00004e56:    f8d4c000    ....    LDR      r12,[r4,#0]
        0x00004e5a:    6a36        6j      LDR      r6,[r6,#0x20]
        0x00004e5c:    45b4        .E      CMP      r12,r6
        0x00004e5e:    d006        ..      BEQ      0x4e6e ; xTaskCheckForTimeOut + 106
        0x00004e60:    428b        .B      CMP      r3,r1
        0x00004e62:    d804        ..      BHI      0x4e6e ; xTaskCheckForTimeOut + 106
        0x00004e64:    2401        .$      MOVS     r4,#1
        0x00004e66:    602f        /`      STR      r7,[r5,#0]
        0x00004e68:    e00b        ..      B        0x4e82 ; xTaskCheckForTimeOut + 126
        0x00004e6a:    2400        .$      MOVS     r4,#0
        0x00004e6c:    e009        ..      B        0x4e82 ; xTaskCheckForTimeOut + 126
        0x00004e6e:    4290        .B      CMP      r0,r2
        0x00004e70:    d905        ..      BLS      0x4e7e ; xTaskCheckForTimeOut + 122
        0x00004e72:    1a80        ..      SUBS     r0,r0,r2
        0x00004e74:    6028        (`      STR      r0,[r5,#0]
        0x00004e76:    4620         F      MOV      r0,r4
        0x00004e78:    f7fffb14    ....    BL       vTaskInternalSetTimeOutState ; 0x44a4
        0x00004e7c:    e7f5        ..      B        0x4e6a ; xTaskCheckForTimeOut + 102
        0x00004e7e:    602f        /`      STR      r7,[r5,#0]
        0x00004e80:    2401        .$      MOVS     r4,#1
        0x00004e82:    f7fffa63    ..c.    BL       vPortExitCritical ; 0x434c
        0x00004e86:    4620         F      MOV      r0,r4
        0x00004e88:    e8bd81f0    ....    POP      {r4-r8,pc}
    $d
        0x00004e8c:    20000038    8..     DCD    536870968
    $t
    i.xTaskCreate
    xTaskCreate
        0x00004e90:    e92d5fff    -.._    PUSH     {r0-r12,lr}
        0x00004e94:    4683        .F      MOV      r11,r0
        0x00004e96:    e9dd870e    ....    LDRD     r8,r7,[sp,#0x38]
        0x00004e9a:    4616        .F      MOV      r6,r2
        0x00004e9c:    468a        .F      MOV      r10,r1
        0x00004e9e:    4699        .F      MOV      r9,r3
        0x00004ea0:    0090        ..      LSLS     r0,r2,#2
        0x00004ea2:    f7fefed5    ....    BL       pvPortMalloc ; 0x3c50
        0x00004ea6:    0005        ..      MOVS     r5,r0
        0x00004ea8:    d018        ..      BEQ      0x4edc ; xTaskCreate + 76
        0x00004eaa:    2054        T       MOVS     r0,#0x54
        0x00004eac:    f7fefed0    ....    BL       pvPortMalloc ; 0x3c50
        0x00004eb0:    0004        ..      MOVS     r4,r0
        0x00004eb2:    d00f        ..      BEQ      0x4ed4 ; xTaskCreate + 68
        0x00004eb4:    2154        T!      MOVS     r1,#0x54
        0x00004eb6:    f7fbfbf8    ....    BL       __aeabi_memclr4 ; 0x6aa
        0x00004eba:    6325        %c      STR      r5,[r4,#0x30]
        0x00004ebc:    2100        .!      MOVS     r1,#0
        0x00004ebe:    e9cd4102    ...A    STRD     r4,r1,[sp,#8]
        0x00004ec2:    e9cd8700    ....    STRD     r8,r7,[sp,#0]
        0x00004ec6:    464b        KF      MOV      r3,r9
        0x00004ec8:    4632        2F      MOV      r2,r6
        0x00004eca:    4651        QF      MOV      r1,r10
        0x00004ecc:    4658        XF      MOV      r0,r11
        0x00004ece:    f7fefc41    ..A.    BL       prvInitialiseNewTask ; 0x3754
        0x00004ed2:    e004        ..      B        0x4ede ; xTaskCreate + 78
        0x00004ed4:    4628        (F      MOV      r0,r5
        0x00004ed6:    f7fffa4d    ..M.    BL       vPortFree ; 0x4374
        0x00004eda:    e000        ..      B        0x4ede ; xTaskCreate + 78
        0x00004edc:    2400        .$      MOVS     r4,#0
        0x00004ede:    0020         .      MOVS     r0,r4
        0x00004ee0:    d005        ..      BEQ      0x4eee ; xTaskCreate + 94
        0x00004ee2:    f7fefaf7    ....    BL       prvAddNewTaskToReadyList ; 0x34d4
        0x00004ee6:    2001        .       MOVS     r0,#1
        0x00004ee8:    b004        ..      ADD      sp,sp,#0x10
        0x00004eea:    e8bd9ff0    ....    POP      {r4-r12,pc}
        0x00004eee:    f04f30ff    O..0    MOV      r0,#0xffffffff
        0x00004ef2:    e7f9        ..      B        0x4ee8 ; xTaskCreate + 88
    i.xTaskGetSchedulerState
    xTaskGetSchedulerState
        0x00004ef4:    4805        .H      LDR      r0,[pc,#20] ; [0x4f0c] = 0x20000038
        0x00004ef6:    6941        Ai      LDR      r1,[r0,#0x14]
        0x00004ef8:    b119        ..      CBZ      r1,0x4f02 ; xTaskGetSchedulerState + 14
        0x00004efa:    6b00        .k      LDR      r0,[r0,#0x30]
        0x00004efc:    b118        ..      CBZ      r0,0x4f06 ; xTaskGetSchedulerState + 18
        0x00004efe:    2000        .       MOVS     r0,#0
        0x00004f00:    4770        pG      BX       lr
        0x00004f02:    2001        .       MOVS     r0,#1
        0x00004f04:    4770        pG      BX       lr
        0x00004f06:    2002        .       MOVS     r0,#2
        0x00004f08:    4770        pG      BX       lr
    $d
        0x00004f0a:    0000        ..      DCW    0
        0x00004f0c:    20000038    8..     DCD    536870968
    $t
    i.xTaskGetTickCount
    xTaskGetTickCount
        0x00004f10:    4801        .H      LDR      r0,[pc,#4] ; [0x4f18] = 0x20000038
        0x00004f12:    68c0        .h      LDR      r0,[r0,#0xc]
        0x00004f14:    4770        pG      BX       lr
    $d
        0x00004f16:    0000        ..      DCW    0
        0x00004f18:    20000038    8..     DCD    536870968
    $t
    i.xTaskIncrementTick
    xTaskIncrementTick
        0x00004f1c:    e92d41f0    -..A    PUSH     {r4-r8,lr}
        0x00004f20:    4e47        GN      LDR      r6,[pc,#284] ; [0x5040] = 0x20000038
        0x00004f22:    2500        .%      MOVS     r5,#0
        0x00004f24:    6b30        0k      LDR      r0,[r6,#0x30]
        0x00004f26:    b128        (.      CBZ      r0,0x4f34 ; xTaskIncrementTick + 24
        0x00004f28:    69b0        .i      LDR      r0,[r6,#0x18]
        0x00004f2a:    1c40        @.      ADDS     r0,r0,#1
        0x00004f2c:    61b0        .a      STR      r0,[r6,#0x18]
        0x00004f2e:    4628        (F      MOV      r0,r5
        0x00004f30:    e8bd81f0    ....    POP      {r4-r8,pc}
        0x00004f34:    68f4        .h      LDR      r4,[r6,#0xc]
        0x00004f36:    1c64        d.      ADDS     r4,r4,#1
        0x00004f38:    60f4        .`      STR      r4,[r6,#0xc]
        0x00004f3a:    d113        ..      BNE      0x4f64 ; xTaskIncrementTick + 72
        0x00004f3c:    6b70        pk      LDR      r0,[r6,#0x34]
        0x00004f3e:    6800        .h      LDR      r0,[r0,#0]
        0x00004f40:    b138        8.      CBZ      r0,0x4f52 ; xTaskIncrementTick + 54
        0x00004f42:    2080        .       MOVS     r0,#0x80
        0x00004f44:    f3808811    ....    MSR      BASEPRI,r0
        0x00004f48:    f3bf8f4f    ..O.    DSB      
        0x00004f4c:    f3bf8f6f    ..o.    ISB      
        0x00004f50:    e7fe        ..      B        0x4f50 ; xTaskIncrementTick + 52
        0x00004f52:    6b70        pk      LDR      r0,[r6,#0x34]
        0x00004f54:    6bb1        .k      LDR      r1,[r6,#0x38]
        0x00004f56:    6371        qc      STR      r1,[r6,#0x34]
        0x00004f58:    63b0        .c      STR      r0,[r6,#0x38]
        0x00004f5a:    6a30        0j      LDR      r0,[r6,#0x20]
        0x00004f5c:    1c40        @.      ADDS     r0,r0,#1
        0x00004f5e:    6230        0b      STR      r0,[r6,#0x20]
        0x00004f60:    f7fefde0    ....    BL       prvResetNextTaskUnblockTime ; 0x3b24
        0x00004f64:    6ab0        .j      LDR      r0,[r6,#0x28]
        0x00004f66:    f8dfe0dc    ....    LDR      lr,[pc,#220] ; [0x5044] = 0x20005114
        0x00004f6a:    4284        .B      CMP      r4,r0
        0x00004f6c:    d30b        ..      BCC      0x4f86 ; xTaskIncrementTick + 106
        0x00004f6e:    f04f0c00    O...    MOV      r12,#0
        0x00004f72:    6b70        pk      LDR      r0,[r6,#0x34]
        0x00004f74:    6800        .h      LDR      r0,[r0,#0]
        0x00004f76:    b1b0        ..      CBZ      r0,0x4fa6 ; xTaskIncrementTick + 138
        0x00004f78:    6b70        pk      LDR      r0,[r6,#0x34]
        0x00004f7a:    68c0        .h      LDR      r0,[r0,#0xc]
        0x00004f7c:    68c1        .h      LDR      r1,[r0,#0xc]
        0x00004f7e:    6848        Hh      LDR      r0,[r1,#4]
        0x00004f80:    4284        .B      CMP      r4,r0
        0x00004f82:    d213        ..      BCS      0x4fac ; xTaskIncrementTick + 144
        0x00004f84:    62b0        .b      STR      r0,[r6,#0x28]
        0x00004f86:    6830        0h      LDR      r0,[r6,#0]
        0x00004f88:    6ac0        .j      LDR      r0,[r0,#0x2c]
        0x00004f8a:    ebc000c0    ....    RSB      r0,r0,r0,LSL #3
        0x00004f8e:    f85e0020    ^. .    LDR      r0,[lr,r0,LSL #2]
        0x00004f92:    2801        .(      CMP      r0,#1
        0x00004f94:    d900        ..      BLS      0x4f98 ; xTaskIncrementTick + 124
        0x00004f96:    2501        .%      MOVS     r5,#1
        0x00004f98:    4829        )H      LDR      r0,[pc,#164] ; [0x5040] = 0x20000038
        0x00004f9a:    301c        .0      ADDS     r0,r0,#0x1c
        0x00004f9c:    6800        .h      LDR      r0,[r0,#0]
        0x00004f9e:    2800        .(      CMP      r0,#0
        0x00004fa0:    d0c5        ..      BEQ      0x4f2e ; xTaskIncrementTick + 18
        0x00004fa2:    2501        .%      MOVS     r5,#1
        0x00004fa4:    e7c3        ..      B        0x4f2e ; xTaskIncrementTick + 18
        0x00004fa6:    f04f30ff    O..0    MOV      r0,#0xffffffff
        0x00004faa:    e7eb        ..      B        0x4f84 ; xTaskIncrementTick + 104
        0x00004fac:    e9d13202    ...2    LDRD     r3,r2,[r1,#8]
        0x00004fb0:    6948        Hi      LDR      r0,[r1,#0x14]
        0x00004fb2:    609a        .`      STR      r2,[r3,#8]
        0x00004fb4:    e9d12302    ...#    LDRD     r2,r3,[r1,#8]
        0x00004fb8:    605a        Z`      STR      r2,[r3,#4]
        0x00004fba:    6843        Ch      LDR      r3,[r0,#4]
        0x00004fbc:    1d0a        ..      ADDS     r2,r1,#4
        0x00004fbe:    4293        .B      CMP      r3,r2
        0x00004fc0:    d101        ..      BNE      0x4fc6 ; xTaskIncrementTick + 170
        0x00004fc2:    68cb        .h      LDR      r3,[r1,#0xc]
        0x00004fc4:    6043        C`      STR      r3,[r0,#4]
        0x00004fc6:    f8c1c014    ....    STR      r12,[r1,#0x14]
        0x00004fca:    6803        .h      LDR      r3,[r0,#0]
        0x00004fcc:    1e5b        [.      SUBS     r3,r3,#1
        0x00004fce:    6003        .`      STR      r3,[r0,#0]
        0x00004fd0:    6a88        .j      LDR      r0,[r1,#0x28]
        0x00004fd2:    b188        ..      CBZ      r0,0x4ff8 ; xTaskIncrementTick + 220
        0x00004fd4:    e9d13707    ...7    LDRD     r3,r7,[r1,#0x1c]
        0x00004fd8:    609f        .`      STR      r7,[r3,#8]
        0x00004fda:    e9d13707    ...7    LDRD     r3,r7,[r1,#0x1c]
        0x00004fde:    607b        {`      STR      r3,[r7,#4]
        0x00004fe0:    6847        Gh      LDR      r7,[r0,#4]
        0x00004fe2:    f1010318    ....    ADD      r3,r1,#0x18
        0x00004fe6:    429f        .B      CMP      r7,r3
        0x00004fe8:    d101        ..      BNE      0x4fee ; xTaskIncrementTick + 210
        0x00004fea:    6a0b        .j      LDR      r3,[r1,#0x20]
        0x00004fec:    6043        C`      STR      r3,[r0,#4]
        0x00004fee:    f8c1c028    ..(.    STR      r12,[r1,#0x28]
        0x00004ff2:    6803        .h      LDR      r3,[r0,#0]
        0x00004ff4:    1e5b        [.      SUBS     r3,r3,#1
        0x00004ff6:    6003        .`      STR      r3,[r0,#0]
        0x00004ff8:    6ac8        .j      LDR      r0,[r1,#0x2c]
        0x00004ffa:    2301        .#      MOVS     r3,#1
        0x00004ffc:    6937        7i      LDR      r7,[r6,#0x10]
        0x00004ffe:    4083        .@      LSLS     r3,r3,r0
        0x00005000:    433b        ;C      ORRS     r3,r3,r7
        0x00005002:    6133        3a      STR      r3,[r6,#0x10]
        0x00005004:    ebc000c0    ....    RSB      r0,r0,r0,LSL #3
        0x00005008:    eb0e0080    ....    ADD      r0,lr,r0,LSL #2
        0x0000500c:    6840        @h      LDR      r0,[r0,#4]
        0x0000500e:    6088        .`      STR      r0,[r1,#8]
        0x00005010:    6883        .h      LDR      r3,[r0,#8]
        0x00005012:    60cb        .`      STR      r3,[r1,#0xc]
        0x00005014:    6883        .h      LDR      r3,[r0,#8]
        0x00005016:    605a        Z`      STR      r2,[r3,#4]
        0x00005018:    6082        .`      STR      r2,[r0,#8]
        0x0000501a:    6ac8        .j      LDR      r0,[r1,#0x2c]
        0x0000501c:    ebc000c0    ....    RSB      r0,r0,r0,LSL #3
        0x00005020:    eb0e0280    ....    ADD      r2,lr,r0,LSL #2
        0x00005024:    614a        Ja      STR      r2,[r1,#0x14]
        0x00005026:    f85e2020    ^.      LDR      r2,[lr,r0,LSL #2]
        0x0000502a:    1c52        R.      ADDS     r2,r2,#1
        0x0000502c:    f84e2020    N.      STR      r2,[lr,r0,LSL #2]
        0x00005030:    6ac8        .j      LDR      r0,[r1,#0x2c]
        0x00005032:    6831        1h      LDR      r1,[r6,#0]
        0x00005034:    6ac9        .j      LDR      r1,[r1,#0x2c]
        0x00005036:    4288        .B      CMP      r0,r1
        0x00005038:    d99b        ..      BLS      0x4f72 ; xTaskIncrementTick + 86
        0x0000503a:    2501        .%      MOVS     r5,#1
        0x0000503c:    e799        ..      B        0x4f72 ; xTaskIncrementTick + 86
    $d
        0x0000503e:    0000        ..      DCW    0
        0x00005040:    20000038    8..     DCD    536870968
        0x00005044:    20005114    .Q.     DCD    536891668
    $t
    i.xTaskPriorityDisinherit
    xTaskPriorityDisinherit
        0x00005048:    b570        p.      PUSH     {r4-r6,lr}
        0x0000504a:    0004        ..      MOVS     r4,r0
        0x0000504c:    f04f0000    O...    MOV      r0,#0
        0x00005050:    d050        P.      BEQ      0x50f4 ; xTaskPriorityDisinherit + 172
        0x00005052:    4d29        )M      LDR      r5,[pc,#164] ; [0x50f8] = 0x20000038
        0x00005054:    6829        )h      LDR      r1,[r5,#0]
        0x00005056:    428c        .B      CMP      r4,r1
        0x00005058:    d007        ..      BEQ      0x506a ; xTaskPriorityDisinherit + 34
        0x0000505a:    2080        .       MOVS     r0,#0x80
        0x0000505c:    f3808811    ....    MSR      BASEPRI,r0
        0x00005060:    f3bf8f4f    ..O.    DSB      
        0x00005064:    f3bf8f6f    ..o.    ISB      
        0x00005068:    e7fe        ..      B        0x5068 ; xTaskPriorityDisinherit + 32
        0x0000506a:    6ca1        .l      LDR      r1,[r4,#0x48]
        0x0000506c:    b169        i.      CBZ      r1,0x508a ; xTaskPriorityDisinherit + 66
        0x0000506e:    1e49        I.      SUBS     r1,r1,#1
        0x00005070:    64a1        .d      STR      r1,[r4,#0x48]
        0x00005072:    6c63        cl      LDR      r3,[r4,#0x44]
        0x00005074:    6ae2        .j      LDR      r2,[r4,#0x2c]
        0x00005076:    429a        .B      CMP      r2,r3
        0x00005078:    d03c        <.      BEQ      0x50f4 ; xTaskPriorityDisinherit + 172
        0x0000507a:    2900        .)      CMP      r1,#0
        0x0000507c:    d13a        :.      BNE      0x50f4 ; xTaskPriorityDisinherit + 172
        0x0000507e:    1d20         .      ADDS     r0,r4,#4
        0x00005080:    f7fff904    ....    BL       uxListRemove ; 0x428c
        0x00005084:    2101        .!      MOVS     r1,#1
        0x00005086:    b140        @.      CBZ      r0,0x509a ; xTaskPriorityDisinherit + 82
        0x00005088:    e00e        ..      B        0x50a8 ; xTaskPriorityDisinherit + 96
        0x0000508a:    2080        .       MOVS     r0,#0x80
        0x0000508c:    f3808811    ....    MSR      BASEPRI,r0
        0x00005090:    f3bf8f4f    ..O.    DSB      
        0x00005094:    f3bf8f6f    ..o.    ISB      
        0x00005098:    e7fe        ..      B        0x5098 ; xTaskPriorityDisinherit + 80
        0x0000509a:    f894002c    ..,.    LDRB     r0,[r4,#0x2c]
        0x0000509e:    692a        *i      LDR      r2,[r5,#0x10]
        0x000050a0:    fa01f000    ....    LSL      r0,r1,r0
        0x000050a4:    4382        .C      BICS     r2,r2,r0
        0x000050a6:    612a        *a      STR      r2,[r5,#0x10]
        0x000050a8:    6c60        `l      LDR      r0,[r4,#0x44]
        0x000050aa:    62e0        .b      STR      r0,[r4,#0x2c]
        0x000050ac:    f1c00008    ....    RSB      r0,r0,#8
        0x000050b0:    61a0        .a      STR      r0,[r4,#0x18]
        0x000050b2:    6ae0        .j      LDR      r0,[r4,#0x2c]
        0x000050b4:    692a        *i      LDR      r2,[r5,#0x10]
        0x000050b6:    4081        .@      LSLS     r1,r1,r0
        0x000050b8:    4311        .C      ORRS     r1,r1,r2
        0x000050ba:    6129        )a      STR      r1,[r5,#0x10]
        0x000050bc:    4a0f        .J      LDR      r2,[pc,#60] ; [0x50fc] = 0x20005114
        0x000050be:    ebc000c0    ....    RSB      r0,r0,r0,LSL #3
        0x000050c2:    eb020080    ....    ADD      r0,r2,r0,LSL #2
        0x000050c6:    6840        @h      LDR      r0,[r0,#4]
        0x000050c8:    60a0        .`      STR      r0,[r4,#8]
        0x000050ca:    6881        .h      LDR      r1,[r0,#8]
        0x000050cc:    60e1        .`      STR      r1,[r4,#0xc]
        0x000050ce:    6883        .h      LDR      r3,[r0,#8]
        0x000050d0:    1d21        !.      ADDS     r1,r4,#4
        0x000050d2:    6059        Y`      STR      r1,[r3,#4]
        0x000050d4:    6081        .`      STR      r1,[r0,#8]
        0x000050d6:    6ae0        .j      LDR      r0,[r4,#0x2c]
        0x000050d8:    ebc000c0    ....    RSB      r0,r0,r0,LSL #3
        0x000050dc:    eb020080    ....    ADD      r0,r2,r0,LSL #2
        0x000050e0:    6160        `a      STR      r0,[r4,#0x14]
        0x000050e2:    6ae0        .j      LDR      r0,[r4,#0x2c]
        0x000050e4:    ebc000c0    ....    RSB      r0,r0,r0,LSL #3
        0x000050e8:    f8521020    R. .    LDR      r1,[r2,r0,LSL #2]
        0x000050ec:    1c49        I.      ADDS     r1,r1,#1
        0x000050ee:    f8421020    B. .    STR      r1,[r2,r0,LSL #2]
        0x000050f2:    2001        .       MOVS     r0,#1
        0x000050f4:    bd70        p.      POP      {r4-r6,pc}
    $d
        0x000050f6:    0000        ..      DCW    0
        0x000050f8:    20000038    8..     DCD    536870968
        0x000050fc:    20005114    .Q.     DCD    536891668
    $t
    i.xTaskPriorityInherit
    xTaskPriorityInherit
        0x00005100:    b570        p.      PUSH     {r4-r6,lr}
        0x00005102:    0004        ..      MOVS     r4,r0
        0x00005104:    f04f0000    O...    MOV      r0,#0
        0x00005108:    d048        H.      BEQ      0x519c ; xTaskPriorityInherit + 156
        0x0000510a:    4d28        (M      LDR      r5,[pc,#160] ; [0x51ac] = 0x20000038
        0x0000510c:    6ae1        .j      LDR      r1,[r4,#0x2c]
        0x0000510e:    682a        *h      LDR      r2,[r5,#0]
        0x00005110:    6ad2        .j      LDR      r2,[r2,#0x2c]
        0x00005112:    4291        .B      CMP      r1,r2
        0x00005114:    d243        C.      BCS      0x519e ; xTaskPriorityInherit + 158
        0x00005116:    69a0        .i      LDR      r0,[r4,#0x18]
        0x00005118:    2800        .(      CMP      r0,#0
        0x0000511a:    db04        ..      BLT      0x5126 ; xTaskPriorityInherit + 38
        0x0000511c:    6828        (h      LDR      r0,[r5,#0]
        0x0000511e:    6ac0        .j      LDR      r0,[r0,#0x2c]
        0x00005120:    f1c00008    ....    RSB      r0,r0,#8
        0x00005124:    61a0        .a      STR      r0,[r4,#0x18]
        0x00005126:    6ae0        .j      LDR      r0,[r4,#0x2c]
        0x00005128:    4e21        !N      LDR      r6,[pc,#132] ; [0x51b0] = 0x20005114
        0x0000512a:    ebc000c0    ....    RSB      r0,r0,r0,LSL #3
        0x0000512e:    6961        ai      LDR      r1,[r4,#0x14]
        0x00005130:    eb060080    ....    ADD      r0,r6,r0,LSL #2
        0x00005134:    4281        .B      CMP      r1,r0
        0x00005136:    d12d        -.      BNE      0x5194 ; xTaskPriorityInherit + 148
        0x00005138:    1d20         .      ADDS     r0,r4,#4
        0x0000513a:    f7fff8a7    ....    BL       uxListRemove ; 0x428c
        0x0000513e:    2101        .!      MOVS     r1,#1
        0x00005140:    b930        0.      CBNZ     r0,0x5150 ; xTaskPriorityInherit + 80
        0x00005142:    f894002c    ..,.    LDRB     r0,[r4,#0x2c]
        0x00005146:    692a        *i      LDR      r2,[r5,#0x10]
        0x00005148:    fa01f000    ....    LSL      r0,r1,r0
        0x0000514c:    4382        .C      BICS     r2,r2,r0
        0x0000514e:    612a        *a      STR      r2,[r5,#0x10]
        0x00005150:    6828        (h      LDR      r0,[r5,#0]
        0x00005152:    6ac0        .j      LDR      r0,[r0,#0x2c]
        0x00005154:    62e0        .b      STR      r0,[r4,#0x2c]
        0x00005156:    692a        *i      LDR      r2,[r5,#0x10]
        0x00005158:    4081        .@      LSLS     r1,r1,r0
        0x0000515a:    4311        .C      ORRS     r1,r1,r2
        0x0000515c:    6129        )a      STR      r1,[r5,#0x10]
        0x0000515e:    ebc000c0    ....    RSB      r0,r0,r0,LSL #3
        0x00005162:    eb060080    ....    ADD      r0,r6,r0,LSL #2
        0x00005166:    6840        @h      LDR      r0,[r0,#4]
        0x00005168:    60a0        .`      STR      r0,[r4,#8]
        0x0000516a:    6881        .h      LDR      r1,[r0,#8]
        0x0000516c:    60e1        .`      STR      r1,[r4,#0xc]
        0x0000516e:    6882        .h      LDR      r2,[r0,#8]
        0x00005170:    1d21        !.      ADDS     r1,r4,#4
        0x00005172:    6051        Q`      STR      r1,[r2,#4]
        0x00005174:    6081        .`      STR      r1,[r0,#8]
        0x00005176:    6ae0        .j      LDR      r0,[r4,#0x2c]
        0x00005178:    ebc000c0    ....    RSB      r0,r0,r0,LSL #3
        0x0000517c:    eb060080    ....    ADD      r0,r6,r0,LSL #2
        0x00005180:    6160        `a      STR      r0,[r4,#0x14]
        0x00005182:    6ae0        .j      LDR      r0,[r4,#0x2c]
        0x00005184:    ebc000c0    ....    RSB      r0,r0,r0,LSL #3
        0x00005188:    f8561020    V. .    LDR      r1,[r6,r0,LSL #2]
        0x0000518c:    1c49        I.      ADDS     r1,r1,#1
        0x0000518e:    f8461020    F. .    STR      r1,[r6,r0,LSL #2]
        0x00005192:    e002        ..      B        0x519a ; xTaskPriorityInherit + 154
        0x00005194:    6828        (h      LDR      r0,[r5,#0]
        0x00005196:    6ac0        .j      LDR      r0,[r0,#0x2c]
        0x00005198:    62e0        .b      STR      r0,[r4,#0x2c]
        0x0000519a:    2001        .       MOVS     r0,#1
        0x0000519c:    bd70        p.      POP      {r4-r6,pc}
        0x0000519e:    6c61        al      LDR      r1,[r4,#0x44]
        0x000051a0:    682a        *h      LDR      r2,[r5,#0]
        0x000051a2:    6ad2        .j      LDR      r2,[r2,#0x2c]
        0x000051a4:    4291        .B      CMP      r1,r2
        0x000051a6:    d3f8        ..      BCC      0x519a ; xTaskPriorityInherit + 154
        0x000051a8:    bd70        p.      POP      {r4-r6,pc}
    $d
        0x000051aa:    0000        ..      DCW    0
        0x000051ac:    20000038    8..     DCD    536870968
        0x000051b0:    20005114    .Q.     DCD    536891668
    $t
    i.xTaskRemoveFromEventList
    xTaskRemoveFromEventList
        0x000051b4:    b570        p.      PUSH     {r4-r6,lr}
        0x000051b6:    68c0        .h      LDR      r0,[r0,#0xc]
        0x000051b8:    68c0        .h      LDR      r0,[r0,#0xc]
        0x000051ba:    b360        `.      CBZ      r0,0x5216 ; xTaskRemoveFromEventList + 98
        0x000051bc:    e9d03207    ...2    LDRD     r3,r2,[r0,#0x1c]
        0x000051c0:    6a81        .j      LDR      r1,[r0,#0x28]
        0x000051c2:    609a        .`      STR      r2,[r3,#8]
        0x000051c4:    e9d02307    ...#    LDRD     r2,r3,[r0,#0x1c]
        0x000051c8:    605a        Z`      STR      r2,[r3,#4]
        0x000051ca:    684b        Kh      LDR      r3,[r1,#4]
        0x000051cc:    f1000218    ....    ADD      r2,r0,#0x18
        0x000051d0:    4293        .B      CMP      r3,r2
        0x000051d2:    d101        ..      BNE      0x51d8 ; xTaskRemoveFromEventList + 36
        0x000051d4:    6a03        .j      LDR      r3,[r0,#0x20]
        0x000051d6:    604b        K`      STR      r3,[r1,#4]
        0x000051d8:    2500        .%      MOVS     r5,#0
        0x000051da:    6285        .b      STR      r5,[r0,#0x28]
        0x000051dc:    680b        .h      LDR      r3,[r1,#0]
        0x000051de:    4c2a        *L      LDR      r4,[pc,#168] ; [0x5288] = 0x20000038
        0x000051e0:    1e5b        [.      SUBS     r3,r3,#1
        0x000051e2:    600b        .`      STR      r3,[r1,#0]
        0x000051e4:    6b21        !k      LDR      r1,[r4,#0x30]
        0x000051e6:    2301        .#      MOVS     r3,#1
        0x000051e8:    b1e9        ..      CBZ      r1,0x5226 ; xTaskRemoveFromEventList + 114
        0x000051ea:    4d28        (M      LDR      r5,[pc,#160] ; [0x528c] = 0x2000522c
        0x000051ec:    6869        ih      LDR      r1,[r5,#4]
        0x000051ee:    61c1        .a      STR      r1,[r0,#0x1c]
        0x000051f0:    688e        .h      LDR      r6,[r1,#8]
        0x000051f2:    6206        .b      STR      r6,[r0,#0x20]
        0x000051f4:    688e        .h      LDR      r6,[r1,#8]
        0x000051f6:    6072        r`      STR      r2,[r6,#4]
        0x000051f8:    608a        .`      STR      r2,[r1,#8]
        0x000051fa:    6285        .b      STR      r5,[r0,#0x28]
        0x000051fc:    6829        )h      LDR      r1,[r5,#0]
        0x000051fe:    1c49        I.      ADDS     r1,r1,#1
        0x00005200:    6029        )`      STR      r1,[r5,#0]
        0x00005202:    6ac0        .j      LDR      r0,[r0,#0x2c]
        0x00005204:    6821        !h      LDR      r1,[r4,#0]
        0x00005206:    6ac9        .j      LDR      r1,[r1,#0x2c]
        0x00005208:    4288        .B      CMP      r0,r1
        0x0000520a:    d93b        ;.      BLS      0x5284 ; xTaskRemoveFromEventList + 208
        0x0000520c:    491e        .I      LDR      r1,[pc,#120] ; [0x5288] = 0x20000038
        0x0000520e:    2001        .       MOVS     r0,#1
        0x00005210:    311c        .1      ADDS     r1,r1,#0x1c
        0x00005212:    600b        .`      STR      r3,[r1,#0]
        0x00005214:    bd70        p.      POP      {r4-r6,pc}
        0x00005216:    2080        .       MOVS     r0,#0x80
        0x00005218:    f3808811    ....    MSR      BASEPRI,r0
        0x0000521c:    f3bf8f4f    ..O.    DSB      
        0x00005220:    f3bf8f6f    ..o.    ISB      
        0x00005224:    e7fe        ..      B        0x5224 ; xTaskRemoveFromEventList + 112
        0x00005226:    e9d06202    ...b    LDRD     r6,r2,[r0,#8]
        0x0000522a:    6941        Ai      LDR      r1,[r0,#0x14]
        0x0000522c:    60b2        .`      STR      r2,[r6,#8]
        0x0000522e:    e9d02602    ...&    LDRD     r2,r6,[r0,#8]
        0x00005232:    6072        r`      STR      r2,[r6,#4]
        0x00005234:    684e        Nh      LDR      r6,[r1,#4]
        0x00005236:    1d02        ..      ADDS     r2,r0,#4
        0x00005238:    4296        .B      CMP      r6,r2
        0x0000523a:    d101        ..      BNE      0x5240 ; xTaskRemoveFromEventList + 140
        0x0000523c:    68c6        .h      LDR      r6,[r0,#0xc]
        0x0000523e:    604e        N`      STR      r6,[r1,#4]
        0x00005240:    6145        Ea      STR      r5,[r0,#0x14]
        0x00005242:    680d        .h      LDR      r5,[r1,#0]
        0x00005244:    1e6d        m.      SUBS     r5,r5,#1
        0x00005246:    600d        .`      STR      r5,[r1,#0]
        0x00005248:    6ac1        .j      LDR      r1,[r0,#0x2c]
        0x0000524a:    6926        &i      LDR      r6,[r4,#0x10]
        0x0000524c:    fa03f501    ....    LSL      r5,r3,r1
        0x00005250:    4335        5C      ORRS     r5,r5,r6
        0x00005252:    6125        %a      STR      r5,[r4,#0x10]
        0x00005254:    4d0e        .M      LDR      r5,[pc,#56] ; [0x5290] = 0x20005114
        0x00005256:    ebc101c1    ....    RSB      r1,r1,r1,LSL #3
        0x0000525a:    eb050181    ....    ADD      r1,r5,r1,LSL #2
        0x0000525e:    6849        Ih      LDR      r1,[r1,#4]
        0x00005260:    6081        .`      STR      r1,[r0,#8]
        0x00005262:    688e        .h      LDR      r6,[r1,#8]
        0x00005264:    60c6        .`      STR      r6,[r0,#0xc]
        0x00005266:    688e        .h      LDR      r6,[r1,#8]
        0x00005268:    6072        r`      STR      r2,[r6,#4]
        0x0000526a:    608a        .`      STR      r2,[r1,#8]
        0x0000526c:    6ac1        .j      LDR      r1,[r0,#0x2c]
        0x0000526e:    ebc101c1    ....    RSB      r1,r1,r1,LSL #3
        0x00005272:    eb050281    ....    ADD      r2,r5,r1,LSL #2
        0x00005276:    6142        Ba      STR      r2,[r0,#0x14]
        0x00005278:    f8552021    U.!     LDR      r2,[r5,r1,LSL #2]
        0x0000527c:    1c52        R.      ADDS     r2,r2,#1
        0x0000527e:    f8452021    E.!     STR      r2,[r5,r1,LSL #2]
        0x00005282:    e7be        ..      B        0x5202 ; xTaskRemoveFromEventList + 78
        0x00005284:    2000        .       MOVS     r0,#0
        0x00005286:    bd70        p.      POP      {r4-r6,pc}
    $d
        0x00005288:    20000038    8..     DCD    536870968
        0x0000528c:    2000522c    ,R.     DCD    536891948
        0x00005290:    20005114    .Q.     DCD    536891668
    $t
    i.xTaskResumeAll
    xTaskResumeAll
        0x00005294:    e92d5ff0    -.._    PUSH     {r4-r12,lr}
        0x00005298:    2400        .$      MOVS     r4,#0
        0x0000529a:    46a2        .F      MOV      r10,r4
        0x0000529c:    f7fff836    ..6.    BL       vPortEnterCritical ; 0x430c
        0x000052a0:    4f4b        KO      LDR      r7,[pc,#300] ; [0x53d0] = 0x20000038
        0x000052a2:    2500        .%      MOVS     r5,#0
        0x000052a4:    6b38        8k      LDR      r0,[r7,#0x30]
        0x000052a6:    b128        (.      CBZ      r0,0x52b4 ; xTaskResumeAll + 32
        0x000052a8:    6b38        8k      LDR      r0,[r7,#0x30]
        0x000052aa:    1e40        @.      SUBS     r0,r0,#1
        0x000052ac:    6338        8c      STR      r0,[r7,#0x30]
        0x000052ae:    6b38        8k      LDR      r0,[r7,#0x30]
        0x000052b0:    b140        @.      CBZ      r0,0x52c4 ; xTaskResumeAll + 48
        0x000052b2:    e087        ..      B        0x53c4 ; xTaskResumeAll + 304
        0x000052b4:    2080        .       MOVS     r0,#0x80
        0x000052b6:    f3808811    ....    MSR      BASEPRI,r0
        0x000052ba:    f3bf8f4f    ..O.    DSB      
        0x000052be:    f3bf8f6f    ..o.    ISB      
        0x000052c2:    e7fe        ..      B        0x52c2 ; xTaskResumeAll + 46
        0x000052c4:    68b8        .h      LDR      r0,[r7,#8]
        0x000052c6:    4e42        BN      LDR      r6,[pc,#264] ; [0x53d0] = 0x20000038
        0x000052c8:    4942        BI      LDR      r1,[pc,#264] ; [0x53d4] = 0x2000522c
        0x000052ca:    361c        .6      ADDS     r6,r6,#0x1c
        0x000052cc:    f04f0900    O...    MOV      r9,#0
        0x000052d0:    f04f0801    O...    MOV      r8,#1
        0x000052d4:    2800        .(      CMP      r0,#0
        0x000052d6:    d075        u.      BEQ      0x53c4 ; xTaskResumeAll + 304
        0x000052d8:    468b        .F      MOV      r11,r1
        0x000052da:    f8db1000    ....    LDR      r1,[r11,#0]
        0x000052de:    b3e1        ..      CBZ      r1,0x535a ; xTaskResumeAll + 198
        0x000052e0:    f8db000c    ....    LDR      r0,[r11,#0xc]
        0x000052e4:    68c4        .h      LDR      r4,[r0,#0xc]
        0x000052e6:    e9d42107    ...!    LDRD     r2,r1,[r4,#0x1c]
        0x000052ea:    6aa0        .j      LDR      r0,[r4,#0x28]
        0x000052ec:    6091        .`      STR      r1,[r2,#8]
        0x000052ee:    e9d41207    ....    LDRD     r1,r2,[r4,#0x1c]
        0x000052f2:    6051        Q`      STR      r1,[r2,#4]
        0x000052f4:    6842        Bh      LDR      r2,[r0,#4]
        0x000052f6:    f1040118    ....    ADD      r1,r4,#0x18
        0x000052fa:    428a        .B      CMP      r2,r1
        0x000052fc:    d101        ..      BNE      0x5302 ; xTaskResumeAll + 110
        0x000052fe:    6a21        !j      LDR      r1,[r4,#0x20]
        0x00005300:    6041        A`      STR      r1,[r0,#4]
        0x00005302:    f8c49028    ..(.    STR      r9,[r4,#0x28]
        0x00005306:    6801        .h      LDR      r1,[r0,#0]
        0x00005308:    464a        JF      MOV      r2,r9
        0x0000530a:    1e49        I.      SUBS     r1,r1,#1
        0x0000530c:    6001        .`      STR      r1,[r0,#0]
        0x0000530e:    e9d43102    ...1    LDRD     r3,r1,[r4,#8]
        0x00005312:    6960        `i      LDR      r0,[r4,#0x14]
        0x00005314:    6099        .`      STR      r1,[r3,#8]
        0x00005316:    e9d41302    ....    LDRD     r1,r3,[r4,#8]
        0x0000531a:    6059        Y`      STR      r1,[r3,#4]
        0x0000531c:    6843        Ch      LDR      r3,[r0,#4]
        0x0000531e:    1d21        !.      ADDS     r1,r4,#4
        0x00005320:    428b        .B      CMP      r3,r1
        0x00005322:    d101        ..      BNE      0x5328 ; xTaskResumeAll + 148
        0x00005324:    68e3        .h      LDR      r3,[r4,#0xc]
        0x00005326:    6043        C`      STR      r3,[r0,#4]
        0x00005328:    6162        ba      STR      r2,[r4,#0x14]
        0x0000532a:    6802        .h      LDR      r2,[r0,#0]
        0x0000532c:    4643        CF      MOV      r3,r8
        0x0000532e:    1e52        R.      SUBS     r2,r2,#1
        0x00005330:    6002        .`      STR      r2,[r0,#0]
        0x00005332:    6ae0        .j      LDR      r0,[r4,#0x2c]
        0x00005334:    f8d7c010    ....    LDR      r12,[r7,#0x10]
        0x00005338:    fa08f200    ....    LSL      r2,r8,r0
        0x0000533c:    ea42020c    B...    ORR      r2,r2,r12
        0x00005340:    613a        :a      STR      r2,[r7,#0x10]
        0x00005342:    4a25        %J      LDR      r2,[pc,#148] ; [0x53d8] = 0x20005114
        0x00005344:    ebc000c0    ....    RSB      r0,r0,r0,LSL #3
        0x00005348:    eb020080    ....    ADD      r0,r2,r0,LSL #2
        0x0000534c:    6840        @h      LDR      r0,[r0,#4]
        0x0000534e:    60a0        .`      STR      r0,[r4,#8]
        0x00005350:    f8d0c008    ....    LDR      r12,[r0,#8]
        0x00005354:    f8c4c00c    ....    STR      r12,[r4,#0xc]
        0x00005358:    e000        ..      B        0x535c ; xTaskResumeAll + 200
        0x0000535a:    e017        ..      B        0x538c ; xTaskResumeAll + 248
        0x0000535c:    f8d0c008    ....    LDR      r12,[r0,#8]
        0x00005360:    f8cc1004    ....    STR      r1,[r12,#4]
        0x00005364:    6081        .`      STR      r1,[r0,#8]
        0x00005366:    6ae0        .j      LDR      r0,[r4,#0x2c]
        0x00005368:    ebc000c0    ....    RSB      r0,r0,r0,LSL #3
        0x0000536c:    eb020180    ....    ADD      r1,r2,r0,LSL #2
        0x00005370:    6161        aa      STR      r1,[r4,#0x14]
        0x00005372:    f8521020    R. .    LDR      r1,[r2,r0,LSL #2]
        0x00005376:    1c49        I.      ADDS     r1,r1,#1
        0x00005378:    f8421020    B. .    STR      r1,[r2,r0,LSL #2]
        0x0000537c:    6ae0        .j      LDR      r0,[r4,#0x2c]
        0x0000537e:    6839        9h      LDR      r1,[r7,#0]
        0x00005380:    6ac9        .j      LDR      r1,[r1,#0x2c]
        0x00005382:    4288        .B      CMP      r0,r1
        0x00005384:    d9a9        ..      BLS      0x52da ; xTaskResumeAll + 70
        0x00005386:    f8463025    F.%0    STR      r3,[r6,r5,LSL #2]
        0x0000538a:    e7a6        ..      B        0x52da ; xTaskResumeAll + 70
        0x0000538c:    b10c        ..      CBZ      r4,0x5392 ; xTaskResumeAll + 254
        0x0000538e:    f7fefbc9    ....    BL       prvResetNextTaskUnblockTime ; 0x3b24
        0x00005392:    69bc        .i      LDR      r4,[r7,#0x18]
        0x00005394:    b144        D.      CBZ      r4,0x53a8 ; xTaskResumeAll + 276
        0x00005396:    f7fffdc1    ....    BL       xTaskIncrementTick ; 0x4f1c
        0x0000539a:    b108        ..      CBZ      r0,0x53a0 ; xTaskResumeAll + 268
        0x0000539c:    f8468025    F.%.    STR      r8,[r6,r5,LSL #2]
        0x000053a0:    1e64        d.      SUBS     r4,r4,#1
        0x000053a2:    d1f8        ..      BNE      0x5396 ; xTaskResumeAll + 258
        0x000053a4:    f8c79018    ....    STR      r9,[r7,#0x18]
        0x000053a8:    f8560025    V.%.    LDR      r0,[r6,r5,LSL #2]
        0x000053ac:    b150        P.      CBZ      r0,0x53c4 ; xTaskResumeAll + 304
        0x000053ae:    6838        8h      LDR      r0,[r7,#0]
        0x000053b0:    f04f0a01    O...    MOV      r10,#1
        0x000053b4:    4909        .I      LDR      r1,[pc,#36] ; [0x53dc] = 0xe000ed04
        0x000053b6:    f04f5080    O..P    MOV      r0,#0x10000000
        0x000053ba:    6008        .`      STR      r0,[r1,#0]
        0x000053bc:    f3bf8f4f    ..O.    DSB      
        0x000053c0:    f3bf8f6f    ..o.    ISB      
        0x000053c4:    f7feffc2    ....    BL       vPortExitCritical ; 0x434c
        0x000053c8:    4650        PF      MOV      r0,r10
        0x000053ca:    e8bd9ff0    ....    POP      {r4-r12,pc}
    $d
        0x000053ce:    0000        ..      DCW    0
        0x000053d0:    20000038    8..     DCD    536870968
        0x000053d4:    2000522c    ,R.     DCD    536891948
        0x000053d8:    20005114    .Q.     DCD    536891668
        0x000053dc:    e000ed04    ....    DCD    3758157060
    $t
    i.xTimerCreateTimerTask
    xTimerCreateTimerTask
        0x000053e0:    b51c        ..      PUSH     {r2-r4,lr}
        0x000053e2:    f7fef8ef    ....    BL       prvCheckForValidListAndQueue ; 0x35c4
        0x000053e6:    480c        .H      LDR      r0,[pc,#48] ; [0x5418] = 0x20000078
        0x000053e8:    6800        .h      LDR      r0,[r0,#0]
        0x000053ea:    b160        `.      CBZ      r0,0x5406 ; xTimerCreateTimerTask + 38
        0x000053ec:    490a        .I      LDR      r1,[pc,#40] ; [0x5418] = 0x20000078
        0x000053ee:    2007        .       MOVS     r0,#7
        0x000053f0:    1d09        ..      ADDS     r1,r1,#4
        0x000053f2:    e9cd0100    ....    STRD     r0,r1,[sp,#0]
        0x000053f6:    2300        .#      MOVS     r3,#0
        0x000053f8:    2280        ."      MOVS     r2,#0x80
        0x000053fa:    a108        ..      ADR      r1,{pc}+0x22 ; 0x541c
        0x000053fc:    4809        .H      LDR      r0,[pc,#36] ; [0x5424] = 0x3bb1
        0x000053fe:    f7fffd47    ..G.    BL       xTaskCreate ; 0x4e90
        0x00005402:    2800        .(      CMP      r0,#0
        0x00005404:    d107        ..      BNE      0x5416 ; xTimerCreateTimerTask + 54
        0x00005406:    2080        .       MOVS     r0,#0x80
        0x00005408:    f3808811    ....    MSR      BASEPRI,r0
        0x0000540c:    f3bf8f4f    ..O.    DSB      
        0x00005410:    f3bf8f6f    ..o.    ISB      
        0x00005414:    e7fe        ..      B        0x5414 ; xTimerCreateTimerTask + 52
        0x00005416:    bd1c        ..      POP      {r2-r4,pc}
    $d
        0x00005418:    20000078    x..     DCD    536871032
        0x0000541c:    20726d54    Tmr     DCD    544370004
        0x00005420:    00637653    Svc.    DCD    6518355
        0x00005424:    00003bb1    .;..    DCD    15281
    $t
    locale$$code
    _get_lc_numeric
        0x00005428:    b510        ..      PUSH     {r4,lr}
        0x0000542a:    2900        .)      CMP      r1,#0
        0x0000542c:    d00a        ..      BEQ      0x5444 ; _get_lc_numeric + 28
        0x0000542e:    7808        .x      LDRB     r0,[r1,#0]
        0x00005430:    2800        .(      CMP      r0,#0
        0x00005432:    d007        ..      BEQ      0x5444 ; _get_lc_numeric + 28
        0x00005434:    4805        .H      LDR      r0,[pc,#20] ; [0x544c] = 0x1266
        0x00005436:    4478        xD      ADD      r0,r0,pc
        0x00005438:    f7fbfd74    ..t.    BL       strcmp ; 0xf24
        0x0000543c:    2800        .(      CMP      r0,#0
        0x0000543e:    d001        ..      BEQ      0x5444 ; _get_lc_numeric + 28
        0x00005440:    2000        .       MOVS     r0,#0
        0x00005442:    bd10        ..      POP      {r4,pc}
        0x00005444:    4802        .H      LDR      r0,[pc,#8] ; [0x5450] = 0x125e
        0x00005446:    4478        xD      ADD      r0,r0,pc
        0x00005448:    bd10        ..      POP      {r4,pc}
    $d
        0x0000544a:    0000        ..      DCW    0
        0x0000544c:    00001266    f...    DCD    4710
        0x00005450:    0000125e    ^...    DCD    4702
    $t
    x$fpl$dretinf
    __fpl_dretinf
        0x00005454:    0808        ..      LSRS     r0,r1,#32
        0x00005456:    f5a01100    ....    SUB      r1,r0,#0x200000
        0x0000545a:    ea4f0131    O.1.    RRX      r1,r1
        0x0000545e:    4770        pG      BX       lr
    x$fpl$f2d
    __aeabi_f2d
    _f2d
        0x00005460:    0043        C.      LSLS     r3,r0,#1
        0x00005462:    ea4f0cd3    O...    LSR      r12,r3,#3
        0x00005466:    ea4f0c3c    O.<.    RRX      r12,r12
        0x0000546a:    4043        C@      EORS     r3,r3,r0
        0x0000546c:    bf1f        ..      ITTTT    NE
        0x0000546e:    0740        @.      LSLNE    r0,r0,#29
        0x00005470:    f10c5160    ..`Q    ADDNE    r1,r12,#0x38000000
        0x00005474:    f0134ffe    ...O    TSTNE    r3,#0x7f000000
        0x00005478:    4770        pG      BXNE     lr
        0x0000547a:    f01c6f00    ...o    TST      r12,#0x8000000
        0x0000547e:    d103        ..      BNE      0x5488 ; __aeabi_f2d + 40
        0x00005480:    2000        .       MOVS     r0,#0
        0x00005482:    f00c4100    ...A    AND      r1,r12,#0x80000000
        0x00005486:    4770        pG      BX       lr
        0x00005488:    f00c4300    ...C    AND      r3,r12,#0x80000000
        0x0000548c:    ea437050    C.Pp    ORR      r0,r3,r0,LSR #29
        0x00005490:    b510        ..      PUSH     {r4,lr}
        0x00005492:    ea4000cc    @...    ORR      r0,r0,r12,LSL #3
        0x00005496:    f000fa22    ..".    BL       __fpl_fnaninf ; 0x58de
        0x0000549a:    bf00        ..      NOP      
    $d
        0x0000549c:    92000000    ....    DCD    2449473536
    $t
        0x000054a0:    ea4f0100    O...    MOV.W    r1,r0
        0x000054a4:    f7ffbfd6    ....    B.W      __fpl_dretinf ; 0x5454
        0x000054a8:    f04f4100    O..A    MOV      r1,#0x80000000
        0x000054ac:    f04f0000    O...    MOV      r0,#0
        0x000054b0:    f5a12100    ...!    SUB      r1,r1,#0x80000
        0x000054b4:    4770        pG      BX       lr
        0x000054b6:    0000        ..      MOVS     r0,r0
    x$fpl$fadd
    __aeabi_fadd
    _fadd
        0x000054b8:    ea900f01    ....    TEQ      r0,r1
        0x000054bc:    bf48        H.      IT       MI
        0x000054be:    f0814100    ...A    EORMI    r1,r1,#0x80000000
        0x000054c2:    f100825e    ..^.    BMI.W    _fsub1 ; 0x5982
    _fadd1
        0x000054c6:    1a42        B.      SUBS     r2,r0,r1
        0x000054c8:    bf3c        <.      ITT      CC
        0x000054ca:    1a80        ..      SUBCC    r0,r0,r2
        0x000054cc:    1889        ..      ADDCC    r1,r1,r2
        0x000054ce:    ea4f52d0    O..R    LSR      r2,r0,#23
        0x000054d2:    f04f4c7f    O..L    MOV      r12,#0xff000000
        0x000054d6:    ea1c0f41    ..A.    TST      r12,r1,LSL #1
        0x000054da:    eba253d1    ...S    SUB      r3,r2,r1,LSR #23
        0x000054de:    bf18        ..      IT       NE
        0x000054e0:    ea9c6f02    ...o    TEQNE    r12,r2,LSL #24
        0x000054e4:    f000803b    ..;.    BEQ.W    0x555e ; _fadd1 + 152
        0x000054e8:    f04f4c00    O..L    MOV      r12,#0x80000000
        0x000054ec:    ea4c2000    L..     ORR      r0,r12,r0,LSL #8
        0x000054f0:    ea4c2101    L..!    ORR      r1,r12,r1,LSL #8
        0x000054f4:    fa21fc03    !...    LSR      r12,r1,r3
        0x000054f8:    eb100c0c    ....    ADDS     r12,r0,r12
        0x000054fc:    d21e        ..      BCS      0x553c ; _fadd1 + 118
        0x000054fe:    f10232ff    ...2    ADD      r2,r2,#0xffffffff
        0x00005502:    ea5f201c    _..     LSRS     r0,r12,#8
        0x00005506:    eb4050c2    @..P    ADC      r0,r0,r2,LSL #23
        0x0000550a:    bf38        8.      IT       CC
        0x0000550c:    4770        pG      BXCC     lr
        0x0000550e:    f01c0f7f    ....    TST      r12,#0x7f
        0x00005512:    ea4f0c40    O.@.    LSL      r12,r0,#1
        0x00005516:    bf18        ..      IT       NE
        0x00005518:    f1bc4f7f    ...O    CMPNE    r12,#0xff000000
        0x0000551c:    bf38        8.      IT       CC
        0x0000551e:    4770        pG      BXCC     lr
        0x00005520:    f1c30320    .. .    RSB      r3,r3,#0x20
        0x00005524:    4099        .@      LSLS     r1,r1,r3
        0x00005526:    bf08        ..      IT       EQ
        0x00005528:    f0200001     ...    BICEQ    r0,r0,#1
        0x0000552c:    f1bc4f7f    ...O    CMP      r12,#0xff000000
        0x00005530:    bf38        8.      IT       CC
        0x00005532:    4770        pG      BXCC     lr
        0x00005534:    f1a040c0    ...@    SUB      r0,r0,#0x60000000
        0x00005538:    f000ba17    ....    B.W      __fpl_fretinf ; 0x596a
        0x0000553c:    ea4f003c    O.<.    RRX      r0,r12
        0x00005540:    0a00        ..      LSRS     r0,r0,#8
        0x00005542:    eb4050c2    @..P    ADC      r0,r0,r2,LSL #23
        0x00005546:    bf28        (.      IT       CS
        0x00005548:    f01c0fff    ....    TSTCS    r12,#0xff
        0x0000554c:    ea4f0c40    O.@.    LSL      r12,r0,#1
        0x00005550:    d0e6        ..      BEQ      0x5520 ; _fadd1 + 90
        0x00005552:    bf18        ..      IT       NE
        0x00005554:    f1bc4f7f    ...O    CMPNE    r12,#0xff000000
        0x00005558:    bf38        8.      IT       CC
        0x0000555a:    4770        pG      BXCC     lr
        0x0000555c:    e7ea        ..      B        0x5534 ; _fadd1 + 110
        0x0000555e:    ea9c6f02    ...o    TEQ      r12,r2,LSL #24
        0x00005562:    d005        ..      BEQ      0x5570 ; _fadd1 + 170
        0x00005564:    ea100f5c    ..\.    TST      r0,r12,LSR #1
        0x00005568:    bf08        ..      IT       EQ
        0x0000556a:    f0004000    ...@    ANDEQ    r0,r0,#0x80000000
        0x0000556e:    4770        pG      BX       lr
        0x00005570:    b510        ..      PUSH     {r4,lr}
        0x00005572:    f000f9b4    ....    BL       __fpl_fnaninf ; 0x58de
        0x00005576:    bf00        ..      NOP      
    $d
        0x00005578:    3ebefb64    d..>    DCD    1052703588
    $t
    x$fpl$fcheck1
    __fpl_fcheck_NaN1
        0x0000557c:    4801        .H      LDR      r0,[pc,#4] ; [0x5584] = 0x7fc00000
        0x0000557e:    f000ba70    ..p.    B.W      __fpl_return_NaN ; 0x5a62
        0x00005582:    bf00        ..      NOP      
    $d
        0x00005584:    7fc00000    ....    DCD    2143289344
    $t
    x$fpl$fdiv
    _fdiv1
    __aeabi_fdiv
    _fdiv
        0x00005588:    f44f0c7f    O...    MOV      r12,#0xff0000
        0x0000558c:    ea1c12d0    ....    ANDS     r2,r12,r0,LSR #7
        0x00005590:    bf1e        ..      ITTT     NE
        0x00005592:    ea1c13d1    ....    ANDSNE   r3,r12,r1,LSR #7
        0x00005596:    ea920f0c    ....    TEQNE    r2,r12
        0x0000559a:    ea930f0c    ....    TEQNE    r3,r12
        0x0000559e:    f0008085    ....    BEQ.W    0x56ac ; _fdiv1 + 292
        0x000055a2:    ea900f01    ....    TEQ      r0,r1
        0x000055a6:    bf48        H.      IT       MI
        0x000055a8:    f4427280    B..r    ORRMI    r2,r2,#0x100
        0x000055ac:    f4400c00    @...    ORR      r12,r0,#0x800000
        0x000055b0:    f4410000    A...    ORR      r0,r1,#0x800000
        0x000055b4:    f02c417f    ,..A    BIC      r1,r12,#0xff000000
        0x000055b8:    f020407f     ..@    BIC      r0,r0,#0xff000000
        0x000055bc:    b500        ..      PUSH     {lr}
        0x000055be:    4281        .B      CMP      r1,r0
        0x000055c0:    eba20203    ....    SUB      r2,r2,r3
        0x000055c4:    f20f1c08    ....    ADR.W    r12,{pc}+0x10c ; 0x56d0
        0x000055c8:    ebac4e50    ..PN    SUB      lr,r12,r0,LSR #17
        0x000055cc:    f1c00000    ....    RSB      r0,r0,#0
        0x000055d0:    f89ee000    ....    LDRB     lr,[lr,#0]
        0x000055d4:    ea4f0e4e    O.N.    LSL      lr,lr,#1
        0x000055d8:    fb00fc0e    ....    MUL      r12,r0,lr
        0x000055dc:    bf38        8.      IT       CC
        0x000055de:    0049        I.      LSLCC    r1,r1,#1
        0x000055e0:    ea4f1c2c    O.,.    ASR      r12,r12,#4
        0x000055e4:    f50202fa    ....    ADD      r2,r2,#0x7d0000
        0x000055e8:    fb0cf30e    ....    MUL      r3,r12,lr
        0x000055ec:    ea4f1ece    O...    LSL      lr,lr,#7
        0x000055f0:    ea4f2c11    O..,    LSR      r12,r1,#8
        0x000055f4:    ea4f21c1    O..!    LSL      r1,r1,#11
        0x000055f8:    eb0e5e63    ..c^    ADD      lr,lr,r3,ASR #21
        0x000055fc:    eb424222    B."B    ADC      r2,r2,r2,ASR #16
        0x00005600:    fb0efc0c    ....    MUL      r12,lr,r12
        0x00005604:    ea4f531c    O..S    LSR      r3,r12,#20
        0x00005608:    fb001103    ....    MLA      r1,r0,r3,r1
        0x0000560c:    ea4f2c11    O..,    LSR      r12,r1,#8
        0x00005610:    ea4f3101    O..1    LSL      r1,r1,#12
        0x00005614:    fb0efc0c    ....    MUL      r12,lr,r12
        0x00005618:    ea4f4cdc    O..L    LSR      r12,r12,#19
        0x0000561c:    fb00110c    ....    MLA      r1,r0,r12,r1
        0x00005620:    42c1        .B      CMN      r1,r0
        0x00005622:    bf28        (.      IT       CS
        0x00005624:    1809        ..      ADDCS    r1,r1,r0
        0x00005626:    eb4c3303    L..3    ADC      r3,r12,r3,LSL #12
        0x0000562a:    f85deb04    ]...    POP      {lr}
        0x0000562e:    eb100141    ..A.    ADDS     r1,r0,r1,LSL #1
        0x00005632:    eb4350c2    C..P    ADC      r0,r3,r2,LSL #23
        0x00005636:    f5b20f7c    ..|.    CMP      r2,#0xfc0000
        0x0000563a:    bf38        8.      IT       CC
        0x0000563c:    4770        pG      BXCC     lr
        0x0000563e:    d529        ).      BPL      0x5694 ; _fdiv1 + 268
        0x00005640:    f0120ff0    ....    TST      r2,#0xf0
        0x00005644:    bf1c        ..      ITT      NE
        0x00005646:    f10040c0    ...@    ADDNE    r0,r0,#0x60000000
        0x0000564a:    f0004000    ...@    ANDNE    r0,r0,#0x80000000
        0x0000564e:    4770        pG      BX       lr
    $d
        0x00005650:    83828100    ....    DCD    2206368000
        0x00005654:    87868584    ....    DCD    2273740164
        0x00005658:    8c8b8988    ....    DCD    2357954952
        0x0000565c:    918f8e8d    ....    DCD    2442104461
        0x00005660:    96959392    ....    DCD    2526385042
        0x00005664:    9c9a9997    ....    DCD    2627377559
        0x00005668:    a2a09f9d    ....    DCD    2728435613
        0x0000566c:    a8a7a5a3    ....    DCD    2829559203
        0x00005670:    b0aeacaa    ....    DCD    2964237482
        0x00005674:    b7b5b3b2    ....    DCD    3082138546
        0x00005678:    c0bebcb9    ....    DCD    3233725625
        0x0000567c:    c9c7c5c2    ....    DCD    3385312706
        0x00005680:    d4d1cecc    ....    DCD    3570519756
        0x00005684:    dfdcd9d7    ....    DCD    3755792855
        0x00005688:    ece9e6e2    ....    DCD    3974751970
        0x0000568c:    faf7f3f0    ....    DCD    4210553840
        0x00005690:    000000fe    ....    DCD    254
    $t
        0x00005694:    ea4f0c40    O.@.    LSL      r12,r0,#1
        0x00005698:    f10c7c80    ...|    ADD      r12,r12,#0x1000000
        0x0000569c:    f1bc4f7e    ..~O    CMP      r12,#0xfe000000
        0x000056a0:    bf28        (.      IT       CS
        0x000056a2:    4770        pG      BXCS     lr
        0x000056a4:    f1b040c0    ...@    SUBS     r0,r0,#0x60000000
        0x000056a8:    f000b95f    .._.    B.W      __fpl_fretinf ; 0x596a
        0x000056ac:    ea900f01    ....    TEQ      r0,r1
        0x000056b0:    ea0c13d1    ....    AND      r3,r12,r1,LSR #7
        0x000056b4:    bf48        H.      IT       MI
        0x000056b6:    f4427280    B..r    ORRMI    r2,r2,#0x100
        0x000056ba:    4562        bE      CMP      r2,r12
        0x000056bc:    bf38        8.      IT       CC
        0x000056be:    4563        cE      CMPCC    r3,r12
        0x000056c0:    d207        ..      BCS      0x56d2 ; _fdiv1 + 330
        0x000056c2:    f4130f7f    ....    TST      r3,#0xff0000
        0x000056c6:    d016        ..      BEQ      0x56f6 ; _fdiv1 + 366
        0x000056c8:    ea800001    ....    EOR      r0,r0,r1
        0x000056cc:    f0004000    ...@    AND      r0,r0,#0x80000000
        0x000056d0:    4770        pG      BX       lr
        0x000056d2:    b510        ..      PUSH     {r4,lr}
        0x000056d4:    f000f903    ....    BL       __fpl_fnaninf ; 0x58de
    $d
        0x000056d8:    3efc7e09    .~.>    DCD    1056734729
    $t
        0x000056dc:    f000b805    ....    B.W      0x56ea ; _fdiv1 + 354
        0x000056e0:    ea800001    ....    EOR      r0,r0,r1
        0x000056e4:    f0004000    ...@    AND      r0,r0,#0x80000000
        0x000056e8:    4770        pG      BX       lr
        0x000056ea:    ea800001    ....    EOR      r0,r0,r1
        0x000056ee:    f0004000    ...@    AND      r0,r0,#0x80000000
        0x000056f2:    f000b93a    ..:.    B.W      __fpl_fretinf ; 0x596a
        0x000056f6:    f4120f7f    ....    TST      r2,#0xff0000
        0x000056fa:    bf04        ..      ITT      EQ
        0x000056fc:    4802        .H      LDREQ    r0,[pc,#8] ; [0x5708] = 0x7fc00000
        0x000056fe:    4770        pG      BXEQ     lr
        0x00005700:    ea800001    ....    EOR      r0,r0,r1
        0x00005704:    f000b931    ..1.    B.W      __fpl_fretinf ; 0x596a
    $d
        0x00005708:    7fc00000    ....    DCD    2143289344
    $t
    x$fpl$ffix
    __aeabi_f2iz
    _ffix
        0x0000570c:    0041        A.      LSLS     r1,r0,#1
        0x0000570e:    0e0b        ..      LSRS     r3,r1,#24
        0x00005710:    f1d3029e    ....    RSBS     r2,r3,#0x9e
        0x00005714:    d908        ..      BLS      0x5728 ; __aeabi_f2iz + 28
        0x00005716:    f4500300    P...    ORRS     r3,r0,#0x800000
        0x0000571a:    ea4f2303    O..#    LSL      r3,r3,#8
        0x0000571e:    fa23f002    #...    LSR      r0,r3,r2
        0x00005722:    bf48        H.      IT       MI
        0x00005724:    4240        @B      RSBMI    r0,r0,#0
        0x00005726:    4770        pG      BX       lr
        0x00005728:    b510        ..      PUSH     {r4,lr}
        0x0000572a:    f000f8d8    ....    BL       __fpl_fnaninf ; 0x58de
        0x0000572e:    bf00        ..      NOP      
    $d
        0x00005730:    80249249    I.$.    DCD    2149880393
    $t
        0x00005734:    2000        .       MOVS     r0,#0
        0x00005736:    4770        pG      BX       lr
        0x00005738:    f06f4200    o..B    MVN      r2,#0x80000000
        0x0000573c:    ea820020    .. .    EOR      r0,r2,r0,ASR #32
        0x00005740:    4770        pG      BX       lr
        0x00005742:    0000        ..      MOVS     r0,r0
    x$fpl$ffixu
    __aeabi_f2uiz
    _ffixu
        0x00005744:    0dc1        ..      LSRS     r1,r0,#23
        0x00005746:    f1d1029e    ....    RSBS     r2,r1,#0x9e
        0x0000574a:    db06        ..      BLT      0x575a ; __aeabi_f2uiz + 22
        0x0000574c:    ea4f2300    O..#    LSL      r3,r0,#8
        0x00005750:    f0434300    C..C    ORR      r3,r3,#0x80000000
        0x00005754:    fa23f002    #...    LSR      r0,r3,r2
        0x00005758:    4770        pG      BX       lr
        0x0000575a:    4200        .B      TST      r0,r0
        0x0000575c:    d507        ..      BPL      0x576e ; __aeabi_f2uiz + 42
        0x0000575e:    ea4f0140    O.@.    LSL      r1,r0,#1
        0x00005762:    f1b14ffe    ...O    CMP      r1,#0x7f000000
        0x00005766:    d202        ..      BCS      0x576e ; __aeabi_f2uiz + 42
        0x00005768:    f04f0000    O...    MOV      r0,#0
        0x0000576c:    4770        pG      BX       lr
        0x0000576e:    b510        ..      PUSH     {r4,lr}
        0x00005770:    f000f8b5    ....    BL       __fpl_fnaninf ; 0x58de
    $d
        0x00005774:    80249249    I.$.    DCD    2149880393
    $t
        0x00005778:    2000        .       MOVS     r0,#0
        0x0000577a:    4770        pG      BX       lr
        0x0000577c:    ea6f0020    o. .    MVN      r0,r0,ASR #32
        0x00005780:    4770        pG      BX       lr
        0x00005782:    0000        ..      MOVS     r0,r0
    x$fpl$fflt
    __aeabi_i2f
    _fflt
        0x00005784:    f0104100    ...A    ANDS     r1,r0,#0x80000000
        0x00005788:    bf48        H.      IT       MI
        0x0000578a:    4240        @B      RSBMI    r0,r0,#0
        0x0000578c:    fab0f380    ....    CLZ      r3,r0
        0x00005790:    fa10f203    ....    LSLS     r2,r0,r3
        0x00005794:    f1c3039d    ....    RSB      r3,r3,#0x9d
        0x00005798:    d00b        ..      BEQ      0x57b2 ; __aeabi_i2f + 46
        0x0000579a:    ea5151c3    Q..Q    ORRS     r1,r1,r3,LSL #23
        0x0000579e:    eb012012    ...     ADD      r0,r1,r2,LSR #8
        0x000057a2:    0653        S.      LSLS     r3,r2,#25
        0x000057a4:    bf38        8.      IT       CC
        0x000057a6:    4770        pG      BXCC     lr
        0x000057a8:    f1000001    ....    ADD      r0,r0,#1
        0x000057ac:    bf08        ..      IT       EQ
        0x000057ae:    f0200001     ...    BICEQ    r0,r0,#1
        0x000057b2:    4770        pG      BX       lr
    x$fpl$ffltu
    __aeabi_ui2f
    _ffltu
        0x000057b4:    fab0f380    ....    CLZ      r3,r0
        0x000057b8:    fa10f203    ....    LSLS     r2,r0,r3
        0x000057bc:    f1c3039d    ....    RSB      r3,r3,#0x9d
        0x000057c0:    d00a        ..      BEQ      0x57d8 ; __aeabi_ui2f + 36
        0x000057c2:    05d9        ..      LSLS     r1,r3,#23
        0x000057c4:    eb012012    ...     ADD      r0,r1,r2,LSR #8
        0x000057c8:    0653        S.      LSLS     r3,r2,#25
        0x000057ca:    bf38        8.      IT       CC
        0x000057cc:    4770        pG      BXCC     lr
        0x000057ce:    f1000001    ....    ADD      r0,r0,#1
        0x000057d2:    bf08        ..      IT       EQ
        0x000057d4:    f0200001     ...    BICEQ    r0,r0,#1
        0x000057d8:    4770        pG      BX       lr
        0x000057da:    0000        ..      MOVS     r0,r0
    x$fpl$fmul
    __aeabi_fmul
    _fmul
        0x000057dc:    f44f0c7f    O...    MOV      r12,#0xff0000
        0x000057e0:    ea1c12d0    ....    ANDS     r2,r12,r0,LSR #7
        0x000057e4:    bf1e        ..      ITTT     NE
        0x000057e6:    ea1c13d1    ....    ANDSNE   r3,r12,r1,LSR #7
        0x000057ea:    ea920f0c    ....    TEQNE    r2,r12
        0x000057ee:    ea930f0c    ....    TEQNE    r3,r12
        0x000057f2:    f0008047    ..G.    BEQ.W    0x5884 ; __aeabi_fmul + 168
        0x000057f6:    ea900f01    ....    TEQ      r0,r1
        0x000057fa:    bf48        H.      IT       MI
        0x000057fc:    f4427280    B..r    ORRMI    r2,r2,#0x100
        0x00005800:    f04f4c00    O..L    MOV      r12,#0x80000000
        0x00005804:    ea4c2000    L..     ORR      r0,r12,r0,LSL #8
        0x00005808:    ea4c2101    L..!    ORR      r1,r12,r1,LSL #8
        0x0000580c:    eb020203    ....    ADD.W    r2,r2,r3
        0x00005810:    fba01301    ....    UMULL    r1,r3,r0,r1
        0x00005814:    f5a20200    ....    SUB      r2,r2,#0x800000
        0x00005818:    2900        .)      CMP      r1,#0
        0x0000581a:    bf18        ..      IT       NE
        0x0000581c:    f0430301    C...    ORRNE    r3,r3,#1
        0x00005820:    005b        [.      LSLS     r3,r3,#1
        0x00005822:    bf28        (.      IT       CS
        0x00005824:    ea4f0333    O.3.    RRXCS    r3,r3
        0x00005828:    eb424222    B."B    ADC      r2,r2,r2,ASR #16
        0x0000582c:    ea5f2c13    _..,    LSRS     r12,r3,#8
        0x00005830:    eb4c50c2    L..P    ADC      r0,r12,r2,LSL #23
        0x00005834:    bf2e        ..      ITEE     CS
        0x00005836:    ebbc6f43    ..Co    CMPCS    r12,r3,LSL #25
        0x0000583a:    f5b20f7c    ..|.    CMPCC    r2,#0xfc0000
        0x0000583e:    4770        pG      BXCC     lr
        0x00005840:    ea4f6c03    O..l    LSL      r12,r3,#24
        0x00005844:    f1bc4f00    ...O    CMP      r12,#0x80000000
        0x00005848:    bf08        ..      IT       EQ
        0x0000584a:    f0200001     ...    BICEQ    r0,r0,#1
        0x0000584e:    f5b20f7c    ..|.    CMP      r2,#0xfc0000
        0x00005852:    bf38        8.      IT       CC
        0x00005854:    4770        pG      BXCC     lr
        0x00005856:    d50b        ..      BPL      0x5870 ; __aeabi_fmul + 148
        0x00005858:    f08202ff    ....    EOR      r2,r2,#0xff
        0x0000585c:    f5123f80    ...?    CMN      r2,#0x10000
        0x00005860:    bfc8        ..      IT       GT
        0x00005862:    4770        pG      BXGT     lr
        0x00005864:    f10040c0    ...@    ADD      r0,r0,#0x60000000
        0x00005868:    bfd8        ..      IT       LE
        0x0000586a:    f0004000    ...@    ANDLE    r0,r0,#0x80000000
        0x0000586e:    4770        pG      BX       lr
        0x00005870:    f5000c00    ....    ADD      r12,r0,#0x800000
        0x00005874:    ea5f0c4c    _.L.    LSLS     r12,r12,#1
        0x00005878:    bf48        H.      IT       MI
        0x0000587a:    4770        pG      BXMI     lr
        0x0000587c:    f1b040c0    ...@    SUBS     r0,r0,#0x60000000
        0x00005880:    f000b873    ..s.    B.W      __fpl_fretinf ; 0x596a
        0x00005884:    ea900f01    ....    TEQ      r0,r1
        0x00005888:    ea0c13d1    ....    AND      r3,r12,r1,LSR #7
        0x0000588c:    bf48        H.      IT       MI
        0x0000588e:    f4427280    B..r    ORRMI    r2,r2,#0x100
        0x00005892:    4562        bE      CMP      r2,r12
        0x00005894:    bf38        8.      IT       CC
        0x00005896:    4563        cE      CMPCC    r3,r12
        0x00005898:    d204        ..      BCS      0x58a4 ; __aeabi_fmul + 200
        0x0000589a:    ea800001    ....    EOR      r0,r0,r1
        0x0000589e:    f0004000    ...@    AND      r0,r0,#0x80000000
        0x000058a2:    4770        pG      BX       lr
        0x000058a4:    b510        ..      PUSH     {r4,lr}
        0x000058a6:    f000f81a    ....    BL       __fpl_fnaninf ; 0x58de
        0x000058aa:    bf00        ..      NOP      
    $d
        0x000058ac:    3e010089    ...>    DCD    1040253065
    $t
        0x000058b0:    f000b807    ....    B.W      0x58c2 ; __aeabi_fmul + 230
        0x000058b4:    f000b809    ....    B.W      0x58ca ; __aeabi_fmul + 238
        0x000058b8:    ea5f0c41    _.A.    LSLS     r12,r1,#1
        0x000058bc:    ea5f6c1c    _..l    LSRS     r12,r12,#24
        0x000058c0:    d008        ..      BEQ      0x58d4 ; __aeabi_fmul + 248
        0x000058c2:    ea800001    ....    EOR      r0,r0,r1
        0x000058c6:    f000b850    ..P.    B.W      __fpl_fretinf ; 0x596a
        0x000058ca:    ea5f0c40    _.@.    LSLS     r12,r0,#1
        0x000058ce:    ea5f6c1c    _..l    LSRS     r12,r12,#24
        0x000058d2:    d1f6        ..      BNE      0x58c2 ; __aeabi_fmul + 230
        0x000058d4:    f04f4000    O..@    MOV      r0,#0x80000000
        0x000058d8:    f5a00080    ....    SUB      r0,r0,#0x400000
        0x000058dc:    4770        pG      BX       lr
    x$fpl$fnaninf
    __fpl_fnaninf
        0x000058de:    f10e0e02    ....    ADD      lr,lr,#2
        0x000058e2:    f02e0e03    ....    BIC      lr,lr,#3
        0x000058e6:    f85e4b04    ^..K    LDR      r4,[lr],#4
        0x000058ea:    4224        $B      TST      r4,r4
        0x000058ec:    d404        ..      BMI      0x58f8 ; __fpl_fnaninf + 26
        0x000058ee:    ea4f0241    O.A.    LSL      r2,r1,#1
        0x000058f2:    f1b24f7f    ...O    CMP      r2,#0xff000000
        0x000058f6:    d811        ..      BHI      0x591c ; __fpl_fnaninf + 62
        0x000058f8:    ea4f0340    O.@.    LSL      r3,r0,#1
        0x000058fc:    f1b34f7f    ...O    CMP      r3,#0xff000000
        0x00005900:    d80c        ..      BHI      0x591c ; __fpl_fnaninf + 62
        0x00005902:    d10e        ..      BNE      0x5922 ; __fpl_fnaninf + 68
        0x00005904:    ea4f7cd0    O..|    LSR      r12,r0,#31
        0x00005908:    f1b24f7f    ...O    CMP      r2,#0xff000000
        0x0000590c:    eb0c0c4c    ..L.    ADD      r12,r12,r12,LSL #1
        0x00005910:    f10c0c02    ....    ADD      r12,r12,#2
        0x00005914:    bf08        ..      IT       EQ
        0x00005916:    eb4c7cd1    L..|    ADCEQ    r12,r12,r1,LSR #31
        0x0000591a:    e004        ..      B        0x5926 ; __fpl_fnaninf + 72
        0x0000591c:    f04f0c08    O...    MOV      r12,#8
        0x00005920:    e001        ..      B        0x5926 ; __fpl_fnaninf + 72
        0x00005922:    ea4f7cd1    O..|    LSR      r12,r1,#31
        0x00005926:    eb0c034c    ..L.    ADD      r3,r12,r12,LSL #1
        0x0000592a:    fa24f403    $...    LSR      r4,r4,r3
        0x0000592e:    f0040407    ....    AND      r4,r4,#7
        0x00005932:    f1b40c04    ....    SUBS     r12,r4,#4
        0x00005936:    d206        ..      BCS      0x5946 ; __fpl_fnaninf + 104
        0x00005938:    eb0e0c84    ....    ADD      r12,lr,r4,LSL #2
        0x0000593c:    e8bd4010    ...@    POP      {r4,lr}
        0x00005940:    f04c0c01    L...    ORR      r12,r12,#1
        0x00005944:    4760        `G      BX       r12
        0x00005946:    e8dff00c    ....    TBB      [pc,r12]
    $d
        0x0000594a:    0807        ..      DCW    2055
        0x0000594c:    0202        ..      DCW    514
    $t
        0x0000594e:    f04f4000    O..@    MOV      r0,#0x80000000
        0x00005952:    f5a00080    ....    SUB      r0,r0,#0x400000
        0x00005956:    bd10        ..      POP      {r4,pc}
        0x00005958:    4608        .F      MOV      r0,r1
        0x0000595a:    0042        B.      LSLS     r2,r0,#1
        0x0000595c:    bf18        ..      IT       NE
        0x0000595e:    f1d27280    ...r    RSBSNE   r2,r2,#0x1000000
        0x00005962:    bf88        ..      IT       HI
        0x00005964:    f0004000    ...@    ANDHI    r0,r0,#0x80000000
        0x00005968:    bd10        ..      POP      {r4,pc}
    x$fpl$fretinf
    __fpl_fretinf
        0x0000596a:    21ff        .!      MOVS     r1,#0xff
        0x0000596c:    ea4150d0    A..P    ORR      r0,r1,r0,LSR #23
        0x00005970:    05c0        ..      LSLS     r0,r0,#23
        0x00005972:    4770        pG      BX       lr
    x$fpl$fsub
    __aeabi_fsub
    _fsub
        0x00005974:    ea900f01    ....    TEQ      r0,r1
        0x00005978:    bf48        H.      IT       MI
        0x0000597a:    f0814100    ...A    EORMI    r1,r1,#0x80000000
        0x0000597e:    f53fada2    ?...    BMI      _fadd1 ; 0x54c6
    _fsub1
        0x00005982:    1a42        B.      SUBS     r2,r0,r1
        0x00005984:    d804        ..      BHI      0x5990 ; _fsub1 + 14
        0x00005986:    f0824200    ...B    EOR      r2,r2,#0x80000000
        0x0000598a:    eba00002    ....    SUB      r0,r0,r2
        0x0000598e:    4411        .D      ADD      r1,r1,r2
        0x00005990:    ea4f52d0    O..R    LSR      r2,r0,#23
        0x00005994:    f04f4c7f    O..L    MOV      r12,#0xff000000
        0x00005998:    ea1c0f41    ..A.    TST      r12,r1,LSL #1
        0x0000599c:    eba253d1    ...S    SUB      r3,r2,r1,LSR #23
        0x000059a0:    bf18        ..      IT       NE
        0x000059a2:    ea9c6f02    ...o    TEQNE    r12,r2,LSL #24
        0x000059a6:    d04a        J.      BEQ      0x5a3e ; _fsub1 + 188
        0x000059a8:    f04f4c00    O..L    MOV      r12,#0x80000000
        0x000059ac:    ea4c2000    L..     ORR      r0,r12,r0,LSL #8
        0x000059b0:    ea4c2101    L..!    ORR      r1,r12,r1,LSL #8
        0x000059b4:    fa21fc03    !...    LSR      r12,r1,r3
        0x000059b8:    ebb00c0c    ....    SUBS     r12,r0,r12
        0x000059bc:    d40f        ..      BMI      0x59de ; _fsub1 + 92
        0x000059be:    f0120ffe    ....    TST      r2,#0xfe
        0x000059c2:    d036        6.      BEQ      0x5a32 ; _fsub1 + 176
        0x000059c4:    ea5f004c    _.L.    LSLS     r0,r12,#1
        0x000059c8:    d51d        ..      BPL      0x5a06 ; _fsub1 + 132
        0x000059ca:    1200        ..      ASRS     r0,r0,#8
        0x000059cc:    eb4050c2    @..P    ADC      r0,r0,r2,LSL #23
        0x000059d0:    bf38        8.      IT       CC
        0x000059d2:    4770        pG      BXCC     lr
        0x000059d4:    f01c0f3f    ..?.    TST      r12,#0x3f
        0x000059d8:    bf18        ..      IT       NE
        0x000059da:    4770        pG      BXNE     lr
        0x000059dc:    e00b        ..      B        0x59f6 ; _fsub1 + 116
        0x000059de:    f1a20201    ....    SUB      r2,r2,#1
        0x000059e2:    ea5f201c    _..     LSRS     r0,r12,#8
        0x000059e6:    eb4050c2    @..P    ADC      r0,r0,r2,LSL #23
        0x000059ea:    bf38        8.      IT       CC
        0x000059ec:    4770        pG      BXCC     lr
        0x000059ee:    f01c0f7f    ....    TST      r12,#0x7f
        0x000059f2:    bf18        ..      IT       NE
        0x000059f4:    4770        pG      BXNE     lr
        0x000059f6:    f1c30320    .. .    RSB      r3,r3,#0x20
        0x000059fa:    4099        .@      LSLS     r1,r1,r3
        0x000059fc:    bf14        ..      ITE      NE
        0x000059fe:    1e40        @.      SUBNE    r0,r0,#1
        0x00005a00:    f0200001     ...    BICEQ    r0,r0,#1
        0x00005a04:    4770        pG      BX       lr
        0x00005a06:    0880        ..      LSRS     r0,r0,#2
        0x00005a08:    ea4f2312    O..#    LSR      r3,r2,#8
        0x00005a0c:    bf08        ..      IT       EQ
        0x00005a0e:    4770        pG      BXEQ     lr
        0x00005a10:    fab0fc80    ....    CLZ      r12,r0
        0x00005a14:    eba2020c    ....    SUB      r2,r2,r12
        0x00005a18:    f1cc0c28    ..(.    RSB      r12,r12,#0x28
        0x00005a1c:    fa60f00c    `...    ROR      r0,r0,r12
        0x00005a20:    ea932f12    .../    TEQ      r3,r2,LSR #8
        0x00005a24:    bf04        ..      ITT      EQ
        0x00005a26:    eb0050c2    ...P    ADDEQ    r0,r0,r2,LSL #23
        0x00005a2a:    4770        pG      BXEQ     lr
        0x00005a2c:    ea4f70c3    O..p    LSL      r0,r3,#31
        0x00005a30:    4770        pG      BX       lr
        0x00005a32:    0a13        ..      LSRS     r3,r2,#8
        0x00005a34:    ea5f10dc    _...    LSRS     r0,r12,#7
        0x00005a38:    bf08        ..      IT       EQ
        0x00005a3a:    4770        pG      BXEQ     lr
        0x00005a3c:    e7f6        ..      B        0x5a2c ; _fsub1 + 170
        0x00005a3e:    ea9c6f02    ...o    TEQ      r12,r2,LSL #24
        0x00005a42:    d004        ..      BEQ      0x5a4e ; _fsub1 + 204
        0x00005a44:    ea100f5c    ..\.    TST      r0,r12,LSR #1
        0x00005a48:    bf08        ..      IT       EQ
        0x00005a4a:    2000        .       MOVEQ    r0,#0
        0x00005a4c:    4770        pG      BX       lr
        0x00005a4e:    b510        ..      PUSH     {r4,lr}
        0x00005a50:    f7ffff45    ..E.    BL       __fpl_fnaninf ; 0x58de
    $d
        0x00005a54:    3ef6df40    @..>    DCD    1056366400
    $t
        0x00005a58:    f0814000    ...@    EOR      r0,r1,#0x80000000
        0x00005a5c:    4770        pG      BX       lr
    x$fpl$printf1
    _printf_fp_dec
        0x00005a5e:    f7fabf80    ....    B        _printf_fp_dec_real ; 0x962
    x$fpl$retnan
    __fpl_return_NaN
        0x00005a62:    f00c030f    ....    AND      r3,r12,#0xf
        0x00005a66:    2b09        .+      CMP      r3,#9
        0x00005a68:    bf08        ..      IT       EQ
        0x00005a6a:    2008        .       MOVEQ    r0,#8
        0x00005a6c:    f0008051    ..Q.    BEQ.W    __fpl_cmpreturn ; 0x5b12
        0x00005a70:    2b0a        .+      CMP      r3,#0xa
        0x00005a72:    d00b        ..      BEQ      0x5a8c ; __fpl_return_NaN + 42
        0x00005a74:    2b08        .+      CMP      r3,#8
        0x00005a76:    bf18        ..      IT       NE
        0x00005a78:    4770        pG      BXNE     lr
        0x00005a7a:    bf08        ..      IT       EQ
        0x00005a7c:    f01c0f40    ..@.    TSTEQ    r12,#0x40
        0x00005a80:    d00a        ..      BEQ      0x5a98 ; __fpl_return_NaN + 54
        0x00005a82:    f04f0000    O...    MOV      r0,#0
        0x00005a86:    f04f0100    O...    MOV      r1,#0
        0x00005a8a:    4770        pG      BX       lr
        0x00005a8c:    f01c0f40    ..@.    TST      r12,#0x40
        0x00005a90:    bf18        ..      IT       NE
        0x00005a92:    f04f4000    O..@    MOVNE    r0,#0x80000000
        0x00005a96:    4770        pG      BX       lr
        0x00005a98:    f01c0f10    ....    TST      r12,#0x10
        0x00005a9c:    d008        ..      BEQ      0x5ab0 ; __fpl_return_NaN + 78
        0x00005a9e:    f0204370     .pC    BIC      r3,r0,#0xf0000000
        0x00005aa2:    f000427f    ...B    AND      r2,r0,#0xff000000
        0x00005aa6:    ea4201d3    B...    ORR      r1,r2,r3,LSR #3
        0x00005aaa:    ea4f7043    O.Cp    LSL      r0,r3,#29
        0x00005aae:    4770        pG      BX       lr
        0x00005ab0:    f0004060    ..`@    AND      r0,r0,#0xe0000000
        0x00005ab4:    f021427f    !..B    BIC      r2,r1,#0xff000000
        0x00005ab8:    ea420200    B...    ORR      r2,r2,r0
        0x00005abc:    f001407f    ...@    AND      r0,r1,#0xff000000
        0x00005ac0:    ea407072    @.rp    ORR      r0,r0,r2,ROR #29
        0x00005ac4:    4770        pG      BX       lr
    x$fpl$scalbnf
    __ARM_scalbnf
        0x00005ac6:    f04f02ff    O...    MOV      r2,#0xff
        0x00005aca:    ea1252d0    ...R    ANDS     r2,r2,r0,LSR #23
        0x00005ace:    bf1c        ..      ITT      NE
        0x00005ad0:    f09203ff    ....    EORSNE   r3,r2,#0xff
        0x00005ad4:    428b        .B      CMPNE    r3,r1
        0x00005ad6:    bfc2        ..      ITTT     GT
        0x00005ad8:    42d1        .B      CMNGT    r1,r2
        0x00005ada:    eb0050c1    ...P    ADDGT    r0,r0,r1,LSL #23
        0x00005ade:    4770        pG      BXGT     lr
        0x00005ae0:    2a00        .*      CMP      r2,#0
        0x00005ae2:    d00a        ..      BEQ      0x5afa ; __ARM_scalbnf + 52
        0x00005ae4:    2b00        .+      CMP      r3,#0
        0x00005ae6:    d00b        ..      BEQ      0x5b00 ; __ARM_scalbnf + 58
        0x00005ae8:    2900        .)      CMP      r1,#0
        0x00005aea:    f0004000    ...@    AND      r0,r0,#0x80000000
        0x00005aee:    bfa4        ..      ITT      GE
        0x00005af0:    f04040fe    @..@    ORRGE    r0,r0,#0x7f000000
        0x00005af4:    f4400000    @...    ORRGE    r0,r0,#0x800000
        0x00005af8:    4770        pG      BX       lr
        0x00005afa:    f0004000    ...@    AND      r0,r0,#0x80000000
        0x00005afe:    4770        pG      BX       lr
        0x00005b00:    0243        C.      LSLS     r3,r0,#9
        0x00005b02:    f04f0c0b    O...    MOV      r12,#0xb
        0x00005b06:    bf18        ..      IT       NE
        0x00005b08:    f04c6c80    L..l    ORRNE    r12,r12,#0x4000000
        0x00005b0c:    f47fad36    ..6.    BNE      __fpl_fcheck_NaN1 ; 0x557c
        0x00005b10:    4770        pG      BX       lr
    x$fpl$trapveneer
    __fpl_cmpreturn
        0x00005b12:    f41c1f80    ....    TST      r12,#0x100000
        0x00005b16:    d011        ..      BEQ      0x5b3c ; __fpl_cmpreturn + 42
        0x00005b18:    f41c2fe0    .../    TST      r12,#0x70000
        0x00005b1c:    d003        ..      BEQ      0x5b26 ; __fpl_cmpreturn + 20
        0x00005b1e:    ea6f31cc    o..1    MVN      r1,r12,LSL #15
        0x00005b22:    0049        I.      LSLS     r1,r1,#1
        0x00005b24:    4770        pG      BX       lr
        0x00005b26:    f04f5040    O.@P    MOV      r0,#0x30000000
        0x00005b2a:    f3ef8200    ....    MRS      r2,APSR ; formerly CPSR
        0x00005b2e:    f0224270    ".pB    BIC      r2,r2,#0xf0000000
        0x00005b32:    ea420200    B...    ORR      r2,r2,r0
        0x00005b36:    f3828800    ....    MSR      APSR_nzcvq,r2 ; formerly CPSR_f
        0x00005b3a:    4770        pG      BX       lr
        0x00005b3c:    f04f0000    O...    MOV      r0,#0
        0x00005b40:    4770        pG      BX       lr
    $d.realdata
    .constdata
    asc2_1608
    x$fpl$usenofp
    __I$use$fp
        0x00005b42:    0000        ..      DCW    0
        0x00005b44:    00000000    ....    DCD    0
        0x00005b48:    00000000    ....    DCD    0
        0x00005b4c:    00000000    ....    DCD    0
        0x00005b50:    00000000    ....    DCD    0
        0x00005b54:    00000000    ....    DCD    0
        0x00005b58:    0c00cc1f    ....    DCD    201378847
        0x00005b5c:    00000000    ....    DCD    0
        0x00005b60:    00000000    ....    DCD    0
        0x00005b64:    00300008    ..0.    DCD    3145736
        0x00005b68:    00080060    `...    DCD    524384
        0x00005b6c:    00600030    0.`.    DCD    6291504
        0x00005b70:    20020000    ...     DCD    537001984
        0x00005b74:    201efc03    ...     DCD    538901507
        0x00005b78:    fc032002    . ..    DCD    4228063234
        0x00005b7c:    2002201e    . .     DCD    537010206
        0x00005b80:    00000000    ....    DCD    0
        0x00005b84:    0411180e    ....    DCD    68229134
        0x00005b88:    8410ff3f    ?...    DCD    2215706431
        0x00005b8c:    0000780c    .x..    DCD    30732
        0x00005b90:    000f0000    ....    DCD    983040
        0x00005b94:    380f8410    ...8    DCD    940540944
        0x00005b98:    7807c000    ...x    DCD    2013773824
        0x00005b9c:    78008418    ...x    DCD    2013299736
        0x00005ba0:    78000000    ...x    DCD    2013265920
        0x00005ba4:    c410840f    ....    DCD    3289416719
        0x00005ba8:    980e2411    .$..    DCD    2551063569
        0x00005bac:    8400e400    ....    DCD    2214650880
        0x00005bb0:    00080800    ....    DCD    526336
        0x00005bb4:    00700068    h.p.    DCD    7340136
        0x00005bb8:    00000000    ....    DCD    0
        0x00005bbc:    00000000    ....    DCD    0
        0x00005bc0:    00000000    ....    DCD    0
        0x00005bc4:    00000000    ....    DCD    0
        0x00005bc8:    1818e007    ....    DCD    404283399
        0x00005bcc:    02400420     .@.    DCD    37749792
        0x00005bd0:    00000000    ....    DCD    0
        0x00005bd4:    04200240    @. .    DCD    69206592
        0x00005bd8:    e0071818    ....    DCD    3758561304
        0x00005bdc:    00000000    ....    DCD    0
        0x00005be0:    40020000    ...@    DCD    1073872896
        0x00005be4:    80014002    .@..    DCD    2147565570
        0x00005be8:    8001f00f    ....    DCD    2147610639
        0x00005bec:    40024002    .@.@    DCD    1073889282
        0x00005bf0:    80000000    ....    DCD    2147483648
        0x00005bf4:    80008000    ....    DCD    2147516416
        0x00005bf8:    8000f80f    ....    DCD    2147547151
        0x00005bfc:    80008000    ....    DCD    2147516416
        0x00005c00:    01000000    ....    DCD    16777216
        0x00005c04:    0e000d00    ....    DCD    234884352
        0x00005c08:    00000000    ....    DCD    0
        0x00005c0c:    00000000    ....    DCD    0
        0x00005c10:    00000000    ....    DCD    0
        0x00005c14:    80008000    ....    DCD    2147516416
        0x00005c18:    80008000    ....    DCD    2147516416
        0x00005c1c:    80008000    ....    DCD    2147516416
        0x00005c20:    00008000    ....    DCD    32768
        0x00005c24:    0c000c00    ....    DCD    201329664
        0x00005c28:    00000000    ....    DCD    0
        0x00005c2c:    00000000    ....    DCD    0
        0x00005c30:    00000000    ....    DCD    0
        0x00005c34:    18000600    ....    DCD    402654720
        0x00005c38:    80016000    .`..    DCD    2147573760
        0x00005c3c:    00180006    ....    DCD    1572870
        0x00005c40:    00000020     ...    DCD    32
        0x00005c44:    0808f007    ....    DCD    134803463
        0x00005c48:    04100410    ....    DCD    68158480
        0x00005c4c:    f0070808    ....    DCD    4026992648
        0x00005c50:    00000000    ....    DCD    0
        0x00005c54:    04080408    ....    DCD    67634184
        0x00005c58:    0400fc1f    ....    DCD    67173407
        0x00005c5c:    00000400    ....    DCD    1024
        0x00005c60:    00000000    ....    DCD    0
        0x00005c64:    14100c0e    ....    DCD    336595982
        0x00005c68:    44102410    .$.D    DCD    1141908496
        0x00005c6c:    0c0e8411    ....    DCD    202277905
        0x00005c70:    00000000    ....    DCD    0
        0x00005c74:    0410180c    ....    DCD    68163596
        0x00005c78:    04110411    ....    DCD    68224017
        0x00005c7c:    700c8812    ...p    DCD    1879869458
        0x00005c80:    00000000    ....    DCD    0
        0x00005c84:    2003e000    ...     DCD    537124864
        0x00005c88:    24082404    .$.$    DCD    604513284
        0x00005c8c:    2400fc1f    ...$    DCD    604044319
        0x00005c90:    00000000    ....    DCD    0
        0x00005c94:    8410981f    ....    DCD    2215680031
        0x00005c98:    04110411    ....    DCD    68224017
        0x00005c9c:    70108810    ...p    DCD    1880131600
        0x00005ca0:    00000000    ....    DCD    0
        0x00005ca4:    8808f007    ....    DCD    2282287111
        0x00005ca8:    04110411    ....    DCD    68224017
        0x00005cac:    70008818    ...p    DCD    1879083032
        0x00005cb0:    00000000    ....    DCD    0
        0x00005cb4:    0010001c    ....    DCD    1048604
        0x00005cb8:    0013fc10    ....    DCD    1309712
        0x00005cbc:    0010001c    ....    DCD    1048604
        0x00005cc0:    00000000    ....    DCD    0
        0x00005cc4:    4411380e    .8.D    DCD    1141979150
        0x00005cc8:    84108410    ....    DCD    2215674896
        0x00005ccc:    380e4411    .D.8    DCD    940459025
        0x00005cd0:    00000000    ....    DCD    0
        0x00005cd4:    8c080007    ....    DCD    2349334535
        0x00005cd8:    44104410    .D.D    DCD    1141916688
        0x00005cdc:    f0078808    ....    DCD    4027025416
        0x00005ce0:    00000000    ....    DCD    0
        0x00005ce4:    00000000    ....    DCD    0
        0x00005ce8:    0c030c03    ....    DCD    201526275
        0x00005cec:    00000000    ....    DCD    0
        0x00005cf0:    00000000    ....    DCD    0
        0x00005cf4:    01000000    ....    DCD    16777216
        0x00005cf8:    00000601    ....    DCD    1537
        0x00005cfc:    00000000    ....    DCD    0
        0x00005d00:    00000000    ....    DCD    0
        0x00005d04:    40018000    ...@    DCD    1073840128
        0x00005d08:    10042002    . ..    DCD    268705794
        0x00005d0c:    04100808    ....    DCD    68159496
        0x00005d10:    20020000    ...     DCD    537001984
        0x00005d14:    20022002    . .     DCD    537010178
        0x00005d18:    20022002    . .     DCD    537010178
        0x00005d1c:    20022002    . .     DCD    537010178
        0x00005d20:    00000000    ....    DCD    0
        0x00005d24:    08080410    ....    DCD    134743056
        0x00005d28:    20021004    ...     DCD    537006084
        0x00005d2c:    80004001    .@..    DCD    2147500033
        0x00005d30:    00000000    ....    DCD    0
        0x00005d34:    0012000e    ....    DCD    1179662
        0x00005d38:    6c100c10    ...l    DCD    1812990992
        0x00005d3c:    000f8010    ....    DCD    1015824
        0x00005d40:    e0030000    ....    DCD    3758292992
        0x00005d44:    e413180c    ....    DCD    3826456588
        0x00005d48:    c4172414    .$..    DCD    3289850900
        0x00005d4c:    d0072808    .(..    DCD    3490129928
        0x00005d50:    04000000    ....    DCD    67108864
        0x00005d54:    c4033c00    .<..    DCD    3288546304
        0x00005d58:    4007401c    .@.@    DCD    1074216988
        0x00005d5c:    1c00e400    ....    DCD    469820416
        0x00005d60:    04100400    ....    DCD    68158464
        0x00005d64:    0411fc1f    ....    DCD    68287519
        0x00005d68:    04110411    ....    DCD    68224017
        0x00005d6c:    7000880e    ...p    DCD    1879083022
        0x00005d70:    e0030000    ....    DCD    3758292992
        0x00005d74:    0410180c    ....    DCD    68163596
        0x00005d78:    04100410    ....    DCD    68158480
        0x00005d7c:    101c0810    ....    DCD    270272528
        0x00005d80:    04100000    ....    DCD    68157440
        0x00005d84:    0410fc1f    ....    DCD    68221983
        0x00005d88:    04100410    ....    DCD    68158480
        0x00005d8c:    f0070808    ....    DCD    4026992648
        0x00005d90:    04100000    ....    DCD    68157440
        0x00005d94:    0411fc1f    ....    DCD    68287519
        0x00005d98:    c4170411    ....    DCD    3289842705
        0x00005d9c:    18080410    ....    DCD    403178512
        0x00005da0:    04100000    ....    DCD    68157440
        0x00005da4:    0411fc1f    ....    DCD    68287519
        0x00005da8:    c0170011    ....    DCD    3222732817
        0x00005dac:    00080010    ....    DCD    524304
        0x00005db0:    e0030000    ....    DCD    3758292992
        0x00005db4:    0410180c    ....    DCD    68163596
        0x00005db8:    44100410    ...D    DCD    1141900304
        0x00005dbc:    4000781c    .x.@    DCD    1073772572
        0x00005dc0:    04100000    ....    DCD    68157440
        0x00005dc4:    8410fc1f    ....    DCD    2215705631
        0x00005dc8:    80008000    ....    DCD    2147516416
        0x00005dcc:    fc1f8410    ....    DCD    4229923856
        0x00005dd0:    00000410    ....    DCD    1040
        0x00005dd4:    04100410    ....    DCD    68158480
        0x00005dd8:    0410fc1f    ....    DCD    68221983
        0x00005ddc:    00000410    ....    DCD    1040
        0x00005de0:    03000000    ....    DCD    50331648
        0x00005de4:    01100100    ....    DCD    17826048
        0x00005de8:    fe1f0110    ....    DCD    4263444752
        0x00005dec:    00100010    ....    DCD    1048592
        0x00005df0:    04100000    ....    DCD    68157440
        0x00005df4:    0411fc1f    ....    DCD    68287519
        0x00005df8:    64148003    ...d    DCD    1679065091
        0x00005dfc:    04101c18    ....    DCD    68164632
        0x00005e00:    04100000    ....    DCD    68157440
        0x00005e04:    0410fc1f    ....    DCD    68221983
        0x00005e08:    04000400    ....    DCD    67109888
        0x00005e0c:    0c000400    ....    DCD    201327616
        0x00005e10:    04100000    ....    DCD    68157440
        0x00005e14:    001ffc1f    ....    DCD    2096159
        0x00005e18:    001ffc00    ....    DCD    2096128
        0x00005e1c:    0410fc1f    ....    DCD    68221983
        0x00005e20:    04100000    ....    DCD    68157440
        0x00005e24:    040cfc1f    ....    DCD    67959839
        0x00005e28:    e0000003    ....    DCD    3758096387
        0x00005e2c:    fc1f1810    ....    DCD    4229896208
        0x00005e30:    f0070010    ....    DCD    4026990608
        0x00005e34:    04100808    ....    DCD    68159496
        0x00005e38:    04100410    ....    DCD    68158480
        0x00005e3c:    f0070808    ....    DCD    4026992648
        0x00005e40:    04100000    ....    DCD    68157440
        0x00005e44:    8410fc1f    ....    DCD    2215705631
        0x00005e48:    80108010    ....    DCD    2148565008
        0x00005e4c:    000f8010    ....    DCD    1015824
        0x00005e50:    f0070000    ....    DCD    4026990592
        0x00005e54:    24101808    ...$    DCD    605034504
        0x00005e58:    1c102410    .$..    DCD    470819856
        0x00005e5c:    f2070a08    ....    DCD    4060547592
        0x00005e60:    04100000    ....    DCD    68157440
        0x00005e64:    0411fc1f    ....    DCD    68287519
        0x00005e68:    c0110011    ....    DCD    3222339601
        0x00005e6c:    0c0e3011    .0..    DCD    202256401
        0x00005e70:    00000400    ....    DCD    1024
        0x00005e74:    04111c0e    ....    DCD    68230158
        0x00005e78:    84108410    ....    DCD    2215674896
        0x00005e7c:    381c4410    .D.8    DCD    941376528
        0x00005e80:    00180000    ....    DCD    1572864
        0x00005e84:    04100010    ....    DCD    68157456
        0x00005e88:    0410fc1f    ....    DCD    68221983
        0x00005e8c:    00180010    ....    DCD    1572880
        0x00005e90:    00100000    ....    DCD    1048576
        0x00005e94:    0410f81f    ....    DCD    68220959
        0x00005e98:    04000400    ....    DCD    67109888
        0x00005e9c:    f81f0410    ....    DCD    4162782224
        0x00005ea0:    00100010    ....    DCD    1048592
        0x00005ea4:    e011001e    ....    DCD    3759210526
        0x00005ea8:    70001c00    ...p    DCD    1879055360
        0x00005eac:    001c8013    ....    DCD    1867795
        0x00005eb0:    c01f0010    ....    DCD    3223257104
        0x00005eb4:    e0003c10    .<..    DCD    3758111760
        0x00005eb8:    e000001f    ....    DCD    3758096415
        0x00005ebc:    c01f3c10    .<..    DCD    3223272464
        0x00005ec0:    04100000    ....    DCD    68157440
        0x00005ec4:    34160c18    ...4    DCD    873860120
        0x00005ec8:    c001c001    ....    DCD    3221340161
        0x00005ecc:    0c183416    .4..    DCD    202912790
        0x00005ed0:    00100410    ....    DCD    1049616
        0x00005ed4:    0413001c    ....    DCD    68354076
        0x00005ed8:    0413fc00    ....    DCD    68418560
        0x00005edc:    0010001c    ....    DCD    1048604
        0x00005ee0:    04080000    ....    DCD    67633152
        0x00005ee4:    64101c10    ...d    DCD    1678777360
        0x00005ee8:    04138410    ....    DCD    68387856
        0x00005eec:    1810041c    ....    DCD    403702812
        0x00005ef0:    00000000    ....    DCD    0
        0x00005ef4:    00000000    ....    DCD    0
        0x00005ef8:    0240fe7f    ..@.    DCD    37813887
        0x00005efc:    02400240    @.@.    DCD    37749312
        0x00005f00:    00000000    ....    DCD    0
        0x00005f04:    000c0030    0...    DCD    786480
        0x00005f08:    60008003    ...`    DCD    1610645507
        0x00005f0c:    03001c00    ....    DCD    50338816
        0x00005f10:    00000000    ....    DCD    0
        0x00005f14:    02400240    @.@.    DCD    37749312
        0x00005f18:    fe7f0240    @...    DCD    4269736512
        0x00005f1c:    00000000    ....    DCD    0
        0x00005f20:    00000000    ....    DCD    0
        0x00005f24:    00200000    .. .    DCD    2097152
        0x00005f28:    00400040    @.@.    DCD    4194368
        0x00005f2c:    00200040    @. .    DCD    2097216
        0x00005f30:    01000000    ....    DCD    16777216
        0x00005f34:    01000100    ....    DCD    16777472
        0x00005f38:    01000100    ....    DCD    16777472
        0x00005f3c:    01000100    ....    DCD    16777472
        0x00005f40:    00000100    ....    DCD    256
        0x00005f44:    00400040    @.@.    DCD    4194368
        0x00005f48:    00000020     ...    DCD    32
        0x00005f4c:    00000000    ....    DCD    0
        0x00005f50:    00000000    ....    DCD    0
        0x00005f54:    24019800    ...$    DCD    604084224
        0x00005f58:    44014401    .D.D    DCD    1140933633
        0x00005f5c:    fc004401    .D..    DCD    4227875841
        0x00005f60:    00100400    ....    DCD    1049600
        0x00005f64:    8800fc1f    ....    DCD    2281765919
        0x00005f68:    04010401    ....    DCD    67175425
        0x00005f6c:    70008800    ...p    DCD    1879083008
        0x00005f70:    00000000    ....    DCD    0
        0x00005f74:    88007000    .p..    DCD    2281730048
        0x00005f78:    04010401    ....    DCD    67175425
        0x00005f7c:    88000401    ....    DCD    2281702401
        0x00005f80:    00000000    ....    DCD    0
        0x00005f84:    88007000    .p..    DCD    2281730048
        0x00005f88:    04010401    ....    DCD    67175425
        0x00005f8c:    fc1f0811    ....    DCD    4229892113
        0x00005f90:    00000400    ....    DCD    1024
        0x00005f94:    4401f800    ...D    DCD    1140979712
        0x00005f98:    44014401    .D.D    DCD    1140933633
        0x00005f9c:    c8004401    .D..    DCD    3355460609
        0x00005fa0:    00000000    ....    DCD    0
        0x00005fa4:    04010401    ....    DCD    67175425
        0x00005fa8:    0411fc0f    ....    DCD    68287503
        0x00005fac:    00110411    ....    DCD    1115153
        0x00005fb0:    00000018    ....    DCD    24
        0x00005fb4:    2901d600    ...)    DCD    687986176
        0x00005fb8:    29012901    .).)    DCD    687941889
        0x00005fbc:    0601c901    ....    DCD    100780289
        0x00005fc0:    04100000    ....    DCD    68157440
        0x00005fc4:    8400fc1f    ....    DCD    2214657055
        0x00005fc8:    00010001    ....    DCD    65537
        0x00005fcc:    fc000401    ....    DCD    4227859457
        0x00005fd0:    00000400    ....    DCD    1024
        0x00005fd4:    04190401    ....    DCD    68748289
        0x00005fd8:    0400fc19    ....    DCD    67173401
        0x00005fdc:    00000400    ....    DCD    1024
        0x00005fe0:    00000000    ....    DCD    0
        0x00005fe4:    01000300    ....    DCD    16777984
        0x00005fe8:    01190101    ....    DCD    18415873
        0x00005fec:    0000fe19    ....    DCD    65049
        0x00005ff0:    04100000    ....    DCD    68157440
        0x00005ff4:    2400fc1f    ...$    DCD    604044319
        0x00005ff8:    b4014000    .@..    DCD    3019980800
        0x00005ffc:    04010c01    ....    DCD    67177473
        0x00006000:    00000000    ....    DCD    0
        0x00006004:    04100410    ....    DCD    68158480
        0x00006008:    0400fc1f    ....    DCD    67173407
        0x0000600c:    00000400    ....    DCD    1024
        0x00006010:    04010000    ....    DCD    67174400
        0x00006014:    0401fc01    ....    DCD    67238913
        0x00006018:    fc010001    ....    DCD    4227923969
        0x0000601c:    00010401    ....    DCD    66561
        0x00006020:    0401fc00    ....    DCD    67238912
        0x00006024:    8400fc01    ....    DCD    2214657025
        0x00006028:    00010001    ....    DCD    65537
        0x0000602c:    fc000401    ....    DCD    4227859457
        0x00006030:    00000400    ....    DCD    1024
        0x00006034:    0401f800    ....    DCD    67237888
        0x00006038:    04010401    ....    DCD    67175425
        0x0000603c:    f8000401    ....    DCD    4160750593
        0x00006040:    01010000    ....    DCD    16842752
        0x00006044:    8500ff01    ....    DCD    2231435009
        0x00006048:    04010401    ....    DCD    67175425
        0x0000604c:    70008800    ...p    DCD    1879083008
        0x00006050:    00000000    ....    DCD    0
        0x00006054:    88007000    .p..    DCD    2281730048
        0x00006058:    04010401    ....    DCD    67175425
        0x0000605c:    ff010501    ....    DCD    4278256897
        0x00006060:    04010100    ....    DCD    67174656
        0x00006064:    fc010401    ....    DCD    4227924993
        0x00006068:    04018400    ....    DCD    67208192
        0x0000606c:    80010001    ....    DCD    2147549185
        0x00006070:    00000000    ....    DCD    0
        0x00006074:    2401cc00    ...$    DCD    604097536
        0x00006078:    24012401    .$.$    DCD    604054529
        0x0000607c:    98012401    .$..    DCD    2550211585
        0x00006080:    00000000    ....    DCD    0
        0x00006084:    00010001    ....    DCD    65537
        0x00006088:    0401f807    ....    DCD    67237895
        0x0000608c:    00000401    ....    DCD    1025
        0x00006090:    00010000    ....    DCD    65536
        0x00006094:    0400f801    ....    DCD    67172353
        0x00006098:    04000400    ....    DCD    67109888
        0x0000609c:    fc010801    ....    DCD    4227926017
        0x000060a0:    00010400    ....    DCD    66560
        0x000060a4:    70018001    ...p    DCD    1879146497
        0x000060a8:    10000c00    ....    DCD    268438528
        0x000060ac:    80016001    .`..    DCD    2147573761
        0x000060b0:    f0010001    ....    DCD    4026597377
        0x000060b4:    30000c01    ...0    DCD    805309441
        0x000060b8:    3000c001    ...0    DCD    805355521
        0x000060bc:    f0010c01    ....    DCD    4026600449
        0x000060c0:    00000001    ....    DCD    1
        0x000060c4:    8c010401    ....    DCD    2348876801
        0x000060c8:    70017400    .t.p    DCD    1879143424
        0x000060cc:    04018c01    ....    DCD    67210241
        0x000060d0:    01010000    ....    DCD    16842752
        0x000060d4:    71018101    ...q    DCD    1895923969
        0x000060d8:    18000e00    ....    DCD    402656768
        0x000060dc:    80016001    .`..    DCD    2147573761
        0x000060e0:    00000001    ....    DCD    1
        0x000060e4:    0c018401    ....    DCD    201425921
        0x000060e8:    44013401    .4.D    DCD    1140929537
        0x000060ec:    0c018401    ....    DCD    201425921
        0x000060f0:    00000000    ....    DCD    0
        0x000060f4:    00000000    ....    DCD    0
        0x000060f8:    00010000    ....    DCD    65536
        0x000060fc:    0240fc3e    >.@.    DCD    37813310
        0x00006100:    00000240    @...    DCD    576
        0x00006104:    00000000    ....    DCD    0
        0x00006108:    ffff0000    ....    DCD    4294901760
        0x0000610c:    00000000    ....    DCD    0
        0x00006110:    00000000    ....    DCD    0
        0x00006114:    02400240    @.@.    DCD    37749312
        0x00006118:    0001fc3e    >...    DCD    130110
        0x0000611c:    00000000    ....    DCD    0
        0x00006120:    00000000    ....    DCD    0
        0x00006124:    00800060    `...    DCD    8388704
        0x00006128:    00400080    ..@.    DCD    4194432
        0x0000612c:    00200040    @. .    DCD    2097216
        0x00006130:    00000020     ...    DCD    32
    .constdata
        0x00006134:    7f800000    ....    DCD    2139095040
        0x00006138:    00000000    ....    DCD    0
    cz_ctype
        0x0000613c:    00000020     ...    DCD    32
        0x00006140:    00010120     ...    DCD    65824
        0x00006144:    00020220     ...    DCD    131616
        0x00006148:    00030320     ...    DCD    197408
        0x0000614c:    00040420     ...    DCD    263200
        0x00006150:    00050520     ...    DCD    328992
        0x00006154:    00060620     ...    DCD    394784
        0x00006158:    00070720     ...    DCD    460576
        0x0000615c:    00080820     ...    DCD    526368
        0x00006160:    00090968    h...    DCD    592232
        0x00006164:    000a0a28    (...    DCD    657960
        0x00006168:    000b0b28    (...    DCD    723752
        0x0000616c:    000c0c28    (...    DCD    789544
        0x00006170:    000d0d28    (...    DCD    855336
        0x00006174:    000e0e20     ...    DCD    921120
        0x00006178:    000f0f20     ...    DCD    986912
        0x0000617c:    00101020     ...    DCD    1052704
        0x00006180:    00111120     ...    DCD    1118496
        0x00006184:    00121220     ...    DCD    1184288
        0x00006188:    00131320     ...    DCD    1250080
        0x0000618c:    00141420     ...    DCD    1315872
        0x00006190:    00151520     ...    DCD    1381664
        0x00006194:    00161620     ...    DCD    1447456
        0x00006198:    00171720     ...    DCD    1513248
        0x0000619c:    00181820     ...    DCD    1579040
        0x000061a0:    00191920     ...    DCD    1644832
        0x000061a4:    001a1a20     ...    DCD    1710624
        0x000061a8:    001b1b20     ...    DCD    1776416
        0x000061ac:    001c1c20     ...    DCD    1842208
        0x000061b0:    001d1d20     ...    DCD    1908000
        0x000061b4:    001e1e20     ...    DCD    1973792
        0x000061b8:    001f1f20     ...    DCD    2039584
        0x000061bc:    00202048    H  .    DCD    2105416
        0x000061c0:    00212110    .!!.    DCD    2171152
        0x000061c4:    00222210    ."".    DCD    2236944
        0x000061c8:    00232310    .##.    DCD    2302736
        0x000061cc:    00242410    .$$.    DCD    2368528
        0x000061d0:    00252510    .%%.    DCD    2434320
        0x000061d4:    00262610    .&&.    DCD    2500112
        0x000061d8:    00272710    .''.    DCD    2565904
        0x000061dc:    00282810    .((.    DCD    2631696
        0x000061e0:    00292910    .)).    DCD    2697488
        0x000061e4:    002a2a10    .**.    DCD    2763280
        0x000061e8:    002b2b10    .++.    DCD    2829072
        0x000061ec:    002c2c10    .,,.    DCD    2894864
        0x000061f0:    002d2d10    .--.    DCD    2960656
        0x000061f4:    002e2e10    ....    DCD    3026448
        0x000061f8:    002f2f10    .//.    DCD    3092240
        0x000061fc:    00303004    .00.    DCD    3158020
        0x00006200:    00313104    .11.    DCD    3223812
        0x00006204:    00323204    .22.    DCD    3289604
        0x00006208:    00333304    .33.    DCD    3355396
        0x0000620c:    00343404    .44.    DCD    3421188
        0x00006210:    00353504    .55.    DCD    3486980
        0x00006214:    00363604    .66.    DCD    3552772
        0x00006218:    00373704    .77.    DCD    3618564
        0x0000621c:    00383804    .88.    DCD    3684356
        0x00006220:    00393904    .99.    DCD    3750148
        0x00006224:    003a3a10    .::.    DCD    3815952
        0x00006228:    003b3b10    .;;.    DCD    3881744
        0x0000622c:    003c3c10    .<<.    DCD    3947536
        0x00006230:    003d3d10    .==.    DCD    4013328
        0x00006234:    003e3e10    .>>.    DCD    4079120
        0x00006238:    003f3f10    .??.    DCD    4144912
        0x0000623c:    00404010    .@@.    DCD    4210704
        0x00006240:    00614181    .Aa.    DCD    6373761
        0x00006244:    00624281    .Bb.    DCD    6439553
        0x00006248:    00634381    .Cc.    DCD    6505345
        0x0000624c:    00644481    .Dd.    DCD    6571137
        0x00006250:    00654581    .Ee.    DCD    6636929
        0x00006254:    00664681    .Ff.    DCD    6702721
        0x00006258:    00674701    .Gg.    DCD    6768385
        0x0000625c:    00684801    .Hh.    DCD    6834177
        0x00006260:    00694901    .Ii.    DCD    6899969
        0x00006264:    006a4a01    .Jj.    DCD    6965761
        0x00006268:    006b4b01    .Kk.    DCD    7031553
        0x0000626c:    006c4c01    .Ll.    DCD    7097345
        0x00006270:    006d4d01    .Mm.    DCD    7163137
        0x00006274:    006e4e01    .Nn.    DCD    7228929
        0x00006278:    006f4f01    .Oo.    DCD    7294721
        0x0000627c:    00705001    .Pp.    DCD    7360513
        0x00006280:    00715101    .Qq.    DCD    7426305
        0x00006284:    00725201    .Rr.    DCD    7492097
        0x00006288:    00735301    .Ss.    DCD    7557889
        0x0000628c:    00745401    .Tt.    DCD    7623681
        0x00006290:    00755501    .Uu.    DCD    7689473
        0x00006294:    00765601    .Vv.    DCD    7755265
        0x00006298:    00775701    .Ww.    DCD    7821057
        0x0000629c:    00785801    .Xx.    DCD    7886849
        0x000062a0:    00795901    .Yy.    DCD    7952641
        0x000062a4:    007a5a01    .Zz.    DCD    8018433
        0x000062a8:    005b5b10    .[[.    DCD    5987088
        0x000062ac:    005c5c10    .\\.    DCD    6052880
        0x000062b0:    005d5d10    .]].    DCD    6118672
        0x000062b4:    005e5e10    .^^.    DCD    6184464
        0x000062b8:    005f5f10    .__.    DCD    6250256
        0x000062bc:    00606010    .``.    DCD    6316048
        0x000062c0:    00614182    .Aa.    DCD    6373762
        0x000062c4:    00624282    .Bb.    DCD    6439554
        0x000062c8:    00634382    .Cc.    DCD    6505346
        0x000062cc:    00644482    .Dd.    DCD    6571138
        0x000062d0:    00654582    .Ee.    DCD    6636930
        0x000062d4:    00664682    .Ff.    DCD    6702722
        0x000062d8:    00674702    .Gg.    DCD    6768386
        0x000062dc:    00684802    .Hh.    DCD    6834178
        0x000062e0:    00694902    .Ii.    DCD    6899970
        0x000062e4:    006a4a02    .Jj.    DCD    6965762
        0x000062e8:    006b4b02    .Kk.    DCD    7031554
        0x000062ec:    006c4c02    .Ll.    DCD    7097346
        0x000062f0:    006d4d02    .Mm.    DCD    7163138
        0x000062f4:    006e4e02    .Nn.    DCD    7228930
        0x000062f8:    006f4f02    .Oo.    DCD    7294722
        0x000062fc:    00705002    .Pp.    DCD    7360514
        0x00006300:    00715102    .Qq.    DCD    7426306
        0x00006304:    00725202    .Rr.    DCD    7492098
        0x00006308:    00735302    .Ss.    DCD    7557890
        0x0000630c:    00745402    .Tt.    DCD    7623682
        0x00006310:    00755502    .Uu.    DCD    7689474
        0x00006314:    00765602    .Vv.    DCD    7755266
        0x00006318:    00775702    .Ww.    DCD    7821058
        0x0000631c:    00785802    .Xx.    DCD    7886850
        0x00006320:    00795902    .Yy.    DCD    7952642
        0x00006324:    007a5a02    .Zz.    DCD    8018434
        0x00006328:    007b7b10    .{{.    DCD    8092432
        0x0000632c:    007c7c10    .||.    DCD    8158224
        0x00006330:    007d7d10    .}}.    DCD    8224016
        0x00006334:    007e7e10    .~~.    DCD    8289808
        0x00006338:    007f7f20     ...    DCD    8355616
        0x0000633c:    00808000    ....    DCD    8421376
        0x00006340:    00818100    ....    DCD    8487168
        0x00006344:    00828200    ....    DCD    8552960
        0x00006348:    00838300    ....    DCD    8618752
        0x0000634c:    00848400    ....    DCD    8684544
        0x00006350:    00858500    ....    DCD    8750336
        0x00006354:    00868600    ....    DCD    8816128
        0x00006358:    00878700    ....    DCD    8881920
        0x0000635c:    00888800    ....    DCD    8947712
        0x00006360:    00898900    ....    DCD    9013504
        0x00006364:    008a8a00    ....    DCD    9079296
        0x00006368:    008b8b00    ....    DCD    9145088
        0x0000636c:    008c8c00    ....    DCD    9210880
        0x00006370:    008d8d00    ....    DCD    9276672
        0x00006374:    008e8e00    ....    DCD    9342464
        0x00006378:    008f8f00    ....    DCD    9408256
        0x0000637c:    00909000    ....    DCD    9474048
        0x00006380:    00919100    ....    DCD    9539840
        0x00006384:    00929200    ....    DCD    9605632
        0x00006388:    00939300    ....    DCD    9671424
        0x0000638c:    00949400    ....    DCD    9737216
        0x00006390:    00959500    ....    DCD    9803008
        0x00006394:    00969600    ....    DCD    9868800
        0x00006398:    00979700    ....    DCD    9934592
        0x0000639c:    00989800    ....    DCD    10000384
        0x000063a0:    00999900    ....    DCD    10066176
        0x000063a4:    009a9a00    ....    DCD    10131968
        0x000063a8:    009b9b00    ....    DCD    10197760
        0x000063ac:    009c9c00    ....    DCD    10263552
        0x000063b0:    009d9d00    ....    DCD    10329344
        0x000063b4:    009e9e00    ....    DCD    10395136
        0x000063b8:    009f9f00    ....    DCD    10460928
        0x000063bc:    00a0a000    ....    DCD    10526720
        0x000063c0:    00a1a100    ....    DCD    10592512
        0x000063c4:    00a2a200    ....    DCD    10658304
        0x000063c8:    00a3a300    ....    DCD    10724096
        0x000063cc:    00a4a400    ....    DCD    10789888
        0x000063d0:    00a5a500    ....    DCD    10855680
        0x000063d4:    00a6a600    ....    DCD    10921472
        0x000063d8:    00a7a700    ....    DCD    10987264
        0x000063dc:    00a8a800    ....    DCD    11053056
        0x000063e0:    00a9a900    ....    DCD    11118848
        0x000063e4:    00aaaa00    ....    DCD    11184640
        0x000063e8:    00abab00    ....    DCD    11250432
        0x000063ec:    00acac00    ....    DCD    11316224
        0x000063f0:    00adad00    ....    DCD    11382016
        0x000063f4:    00aeae00    ....    DCD    11447808
        0x000063f8:    00afaf00    ....    DCD    11513600
        0x000063fc:    00b0b000    ....    DCD    11579392
        0x00006400:    00b1b100    ....    DCD    11645184
        0x00006404:    00b2b200    ....    DCD    11710976
        0x00006408:    00b3b300    ....    DCD    11776768
        0x0000640c:    00b4b400    ....    DCD    11842560
        0x00006410:    00b5b500    ....    DCD    11908352
        0x00006414:    00b6b600    ....    DCD    11974144
        0x00006418:    00b7b700    ....    DCD    12039936
        0x0000641c:    00b8b800    ....    DCD    12105728
        0x00006420:    00b9b900    ....    DCD    12171520
        0x00006424:    00baba00    ....    DCD    12237312
        0x00006428:    00bbbb00    ....    DCD    12303104
        0x0000642c:    00bcbc00    ....    DCD    12368896
        0x00006430:    00bdbd00    ....    DCD    12434688
        0x00006434:    00bebe00    ....    DCD    12500480
        0x00006438:    00bfbf00    ....    DCD    12566272
        0x0000643c:    00c0c000    ....    DCD    12632064
        0x00006440:    00c1c100    ....    DCD    12697856
        0x00006444:    00c2c200    ....    DCD    12763648
        0x00006448:    00c3c300    ....    DCD    12829440
        0x0000644c:    00c4c400    ....    DCD    12895232
        0x00006450:    00c5c500    ....    DCD    12961024
        0x00006454:    00c6c600    ....    DCD    13026816
        0x00006458:    00c7c700    ....    DCD    13092608
        0x0000645c:    00c8c800    ....    DCD    13158400
        0x00006460:    00c9c900    ....    DCD    13224192
        0x00006464:    00caca00    ....    DCD    13289984
        0x00006468:    00cbcb00    ....    DCD    13355776
        0x0000646c:    00cccc00    ....    DCD    13421568
        0x00006470:    00cdcd00    ....    DCD    13487360
        0x00006474:    00cece00    ....    DCD    13553152
        0x00006478:    00cfcf00    ....    DCD    13618944
        0x0000647c:    00d0d000    ....    DCD    13684736
        0x00006480:    00d1d100    ....    DCD    13750528
        0x00006484:    00d2d200    ....    DCD    13816320
        0x00006488:    00d3d300    ....    DCD    13882112
        0x0000648c:    00d4d400    ....    DCD    13947904
        0x00006490:    00d5d500    ....    DCD    14013696
        0x00006494:    00d6d600    ....    DCD    14079488
        0x00006498:    00d7d700    ....    DCD    14145280
        0x0000649c:    00d8d800    ....    DCD    14211072
        0x000064a0:    00d9d900    ....    DCD    14276864
        0x000064a4:    00dada00    ....    DCD    14342656
        0x000064a8:    00dbdb00    ....    DCD    14408448
        0x000064ac:    00dcdc00    ....    DCD    14474240
        0x000064b0:    00dddd00    ....    DCD    14540032
        0x000064b4:    00dede00    ....    DCD    14605824
        0x000064b8:    00dfdf00    ....    DCD    14671616
        0x000064bc:    00e0e000    ....    DCD    14737408
        0x000064c0:    00e1e100    ....    DCD    14803200
        0x000064c4:    00e2e200    ....    DCD    14868992
        0x000064c8:    00e3e300    ....    DCD    14934784
        0x000064cc:    00e4e400    ....    DCD    15000576
        0x000064d0:    00e5e500    ....    DCD    15066368
        0x000064d4:    00e6e600    ....    DCD    15132160
        0x000064d8:    00e7e700    ....    DCD    15197952
        0x000064dc:    00e8e800    ....    DCD    15263744
        0x000064e0:    00e9e900    ....    DCD    15329536
        0x000064e4:    00eaea00    ....    DCD    15395328
        0x000064e8:    00ebeb00    ....    DCD    15461120
        0x000064ec:    00ecec00    ....    DCD    15526912
        0x000064f0:    00eded00    ....    DCD    15592704
        0x000064f4:    00eeee00    ....    DCD    15658496
        0x000064f8:    00efef00    ....    DCD    15724288
        0x000064fc:    00f0f000    ....    DCD    15790080
        0x00006500:    00f1f100    ....    DCD    15855872
        0x00006504:    00f2f200    ....    DCD    15921664
        0x00006508:    00f3f300    ....    DCD    15987456
        0x0000650c:    00f4f400    ....    DCD    16053248
        0x00006510:    00f5f500    ....    DCD    16119040
        0x00006514:    00f6f600    ....    DCD    16184832
        0x00006518:    00f7f700    ....    DCD    16250624
        0x0000651c:    00f8f800    ....    DCD    16316416
        0x00006520:    00f9f900    ....    DCD    16382208
        0x00006524:    00fafa00    ....    DCD    16448000
        0x00006528:    00fbfb00    ....    DCD    16513792
        0x0000652c:    00fcfc00    ....    DCD    16579584
        0x00006530:    00fdfd00    ....    DCD    16645376
        0x00006534:    00fefe00    ....    DCD    16711168
        0x00006538:    00ffff00    ....    DCD    16776960
    .constdata
    tyj_unit_struct_1
        0x0000653c:    2000008c    ...     DCD    536871052
        0x00006540:    00000004    ....    DCD    4
        0x00006544:    200000b0    ...     DCD    536871088
        0x00006548:    00000002    ....    DCD    2
        0x0000654c:    200000b2    ...     DCD    536871090
        0x00006550:    00000002    ....    DCD    2
        0x00006554:    200000b4    ...     DCD    536871092
        0x00006558:    00000002    ....    DCD    2
        0x0000655c:    200000b6    ...     DCD    536871094
        0x00006560:    00000002    ....    DCD    2
        0x00006564:    200000b8    ...     DCD    536871096
        0x00006568:    00000002    ....    DCD    2
        0x0000656c:    200000ba    ...     DCD    536871098
        0x00006570:    00000002    ....    DCD    2
        0x00006574:    200000bc    ...     DCD    536871100
        0x00006578:    00000002    ....    DCD    2
        0x0000657c:    200000be    ...     DCD    536871102
        0x00006580:    00000002    ....    DCD    2
        0x00006584:    200000c0    ...     DCD    536871104
        0x00006588:    00000002    ....    DCD    2
    .constdata
    uc_hextab
        0x0000658c:    33323130    0123    DCD    858927408
        0x00006590:    37363534    4567    DCD    926299444
        0x00006594:    42413938    89AB    DCD    1111570744
        0x00006598:    46454443    CDEF    DCD    1178944579
        0x0000659c:    00583040    @0X.    DCD    5779520
    lc_hextab
        0x000065a0:    33323130    0123    DCD    858927408
        0x000065a4:    37363534    4567    DCD    926299444
        0x000065a8:    62613938    89ab    DCD    1650538808
        0x000065ac:    66656463    cdef    DCD    1717920867
        0x000065b0:    00783040    @0x.    DCD    7876672
    .constdata
    maptable
        0x000065b4:    08000004    ....    DCD    134217732
        0x000065b8:    00000000    ....    DCD    0
        0x000065bc:    02000000    ....    DCD    33554432
        0x000065c0:    00000100    ....    DCD    256
        0x000065c4:    00000010    ....    DCD    16
    .constdata
    tenpwrs_x
        0x000065c8:    00004002    .@..    DCD    16386
        0x000065cc:    a0000000    ....    DCD    2684354560
        0x000065d0:    00000000    ....    DCD    0
        0x000065d4:    00004005    .@..    DCD    16389
        0x000065d8:    c8000000    ....    DCD    3355443200
        0x000065dc:    00000000    ....    DCD    0
        0x000065e0:    0000400c    .@..    DCD    16396
        0x000065e4:    9c400000    ..@.    DCD    2621440000
        0x000065e8:    00000000    ....    DCD    0
        0x000065ec:    00004019    .@..    DCD    16409
        0x000065f0:    bebc2000    . ..    DCD    3200000000
        0x000065f4:    00000000    ....    DCD    0
        0x000065f8:    00004034    4@..    DCD    16436
        0x000065fc:    8e1bc9bf    ....    DCD    2384185791
        0x00006600:    04000000    ....    DCD    67108864
    tenpwrs_i
        0x00006604:    000040b5    .@..    DCD    16565
        0x00006608:    d0cf4b50    PK..    DCD    3503246160
        0x0000660c:    cfe20766    f...    DCD    3487696742
        0x00006610:    00000001    ....    DCD    1
        0x00006614:    0000416c    lA..    DCD    16748
        0x00006618:    aa51823e    >.Q.    DCD    2857468478
        0x0000661c:    34a7eedf    ...4    DCD    883420895
        0x00006620:    00000001    ....    DCD    1
        0x00006624:    000042d9    .B..    DCD    17113
        0x00006628:    e2a0b5dc    ....    DCD    3802183132
        0x0000662c:    971f303a    :0..    DCD    2535403578
        0x00006630:    ffffffff    ....    DCD    4294967295
        0x00006634:    000045b4    .E..    DCD    17844
        0x00006638:    c8a025fd    .%..    DCD    3365938685
        0x0000663c:    4fc1a3e9    ...O    DCD    1338090473
        0x00006640:    ffffffff    ....    DCD    4294967295
        0x00006644:    00003fff    .?..    DCD    16383
        0x00006648:    80000000    ....    DCD    2147483648
        0x0000664c:    00000000    ....    DCD    0
        0x00006650:    00003fff    .?..    DCD    16383
        0x00006654:    80000000    ....    DCD    2147483648
        0x00006658:    00000000    ....    DCD    0
    .conststring
        0x0000665c:    666e6f63    conf    DCD    1718513507
        0x00006660:    00000000    ....    DCD    0
        0x00006664:    00676863    chg.    DCD    6776931
        0x00006668:    6c6c6163    call    DCD    1819042147
        0x0000666c:    00000000    ....    DCD    0
        0x00006670:    706d7564    dump    DCD    1886221668
        0x00006674:    00000000    ....    DCD    0
        0x00006678:    00746573    set.    DCD    7628147
    Region$$Table$$Base
        0x0000667c:    000066b8    .f..    DCD    26296
        0x00006680:    20000000    ...     DCD    536870912
        0x00006684:    00000114    ....    DCD    276
        0x00006688:    0000017c    |...    DCD    380
        0x0000668c:    000067cc    .g..    DCD    26572
        0x00006690:    20000114    ...     DCD    536871188
        0x00006694:    00006344    Dc..    DCD    25412
        0x00006698:    00000198    ....    DCD    408
    locale$$data
    Region$$Table$$Limit
        0x0000669c:    0000001c    ....    DCD    28
    __lcnum_c_name
        0x000066a0:    00000043    C...    DCD    67
        0x000066a4:    fffffff8    ....    DCD    4294967288
    __lcnum_c_start
        0x000066a8:    0000000c    ....    DCD    12
        0x000066ac:    0000000e    ....    DCD    14
        0x000066b0:    0000000f    ....    DCD    15
    __lcnum_c_point
        0x000066b4:    002e        ..      DCW    46
    __lcnum_c_thousands
        0x000066b6:    00          .       DCB    0
    __lcnum_c_grouping
        0x000066b7:    00          .       DCB    0
    __lcnum_c_end

** Section #2 'RW_IRAM1' (SHT_PROGBITS) [SHF_ALLOC + SHF_WRITE]
    Size   : 276 bytes (alignment 4)
    Address: 0x20000000

    0x20000000:   00 e1 f5 05 00 00 00 00 00 00 00 ff ff ff ff ff    ................
    0x20000010:   00 00 00 00 00 00 00 00 00 00 00 00 00 00 00 00    ................
    0x20000020:   00 00 00 00 00 00 00 00 00 00 00 00 00 00 00 00    ................
    0x20000030:   aa aa aa aa 00 00 00 00 00 00 00 00 00 00 00 00    ................
    0x20000040:   00 00 00 00 00 00 00 00 00 00 00 00 00 00 00 00    ................
    0x20000050:   00 00 00 00 00 00 00 00 00 00 00 00 00 00 00 00    ................
    0x20000060:   00 00 00 00 07 00 00 00 00 00 00 00 00 00 00 00    ................
    0x20000070:   00 00 00 00 00 00 00 00 00 00 00 00 00 00 00 00    ................
    0x20000080:   00 00 00 00 00 00 00 00 00 00 00 00 00 00 00 00    ................
    0x20000090:   00 00 00 3f 00 00 00 00 00 00 00 00 00 00 00 00    ...?............
    0x200000a0:   00 00 00 00 00 00 00 00 00 00 00 00 00 00 00 00    ................
    0x200000b0:   00 00 00 00 00 00 00 00 00 00 00 00 00 00 00 00    ................
    0x200000c0:   00 00 00 00 00 00 00 00 78 66 00 00 5c 66 00 00    ........xf..\f..
    0x200000d0:   64 66 00 00 70 66 00 00 68 66 00 00 91 24 00 00    df..pf..hf...$..
    0x200000e0:   55 24 00 00 41 24 00 00 6b 24 00 00 19 24 00 00    U$..A$..k$...$..
    0x200000f0:   a9 29 00 00 85 28 00 00 61 26 00 00 75 26 00 00    .)...(..a&..u&..
    0x20000100:   09 28 00 00 00 00 81 7f 00 00 83 7f 00 00 00 00    .(..............
    0x20000110:   00 00 82 7f                                        ....


** Section #3 'RW_IRAM1' (SHT_NOBITS) [SHF_ALLOC + SHF_WRITE]
    Size   : 25412 bytes (alignment 8)
    Address: 0x20000114


** Section #4 '.debug_abbrev' (SHT_PROGBITS)
    Size   : 1476 bytes


** Section #5 '.debug_frame' (SHT_PROGBITS)
    Size   : 6440 bytes


** Section #6 '.debug_info' (SHT_PROGBITS)
    Size   : 89364 bytes


** Section #7 '.debug_line' (SHT_PROGBITS)
    Size   : 33444 bytes


** Section #8 '.debug_loc' (SHT_PROGBITS)
    Size   : 15580 bytes


** Section #9 '.debug_macinfo' (SHT_PROGBITS)
    Size   : 120828 bytes


** Section #10 '.debug_pubnames' (SHT_PROGBITS)
    Size   : 4394 bytes


** Section #11 '.symtab' (SHT_SYMTAB)
    Size   : 19712 bytes (alignment 4)
    String table #12 '.strtab'
    Last local symbol no. 851

    Symbol table .symtab (1231 symbols, 851 local)

      #  Symbol Name                Value      Bind  Sec  Type  Vis  Size
    ========================================================================

      1  $d.realdata                0x00000000   Lc    1   --   De 
      2  $t                         0x00000140   Lc    1   --   De 
      3  $d                         0x00000174   Lc    1   --   De 
      4  $t                         0x0000017c   Lc    1   --   De 
      5  $d                         0x00000228   Lc    1   --   De 
      6  $t                         0x0000022c   Lc    1   --   De 
      7  $d                         0x00000248   Lc    1   --   De 
      8  $t                         0x0000024c   Lc    1   --   De 
      9  $d                         0x00000294   Lc    1   --   De 
     10  $t                         0x00000298   Lc    1   --   De 
     11  $d                         0x000002ce   Lc    1   --   De 
     12  $t                         0x000002e4   Lc    1   --   De 
     13  $d                         0x000002f8   Lc    1   --   De 
     14  $t                         0x000002fc   Lc    1   --   De 
     15  $d                         0x0000031e   Lc    1   --   De 
     16  $t                         0x00000324   Lc    1   --   De 
     17  $d                         0x0000042c   Lc    1   --   De 
     18  $t                         0x0000043c   Lc    1   --   De 
     19  $d                         0x00000490   Lc    1   --   De 
     20  $t                         0x00000494   Lc    1   --   De 
     21  $d                         0x000005c8   Lc    1   --   De 
     22  $t                         0x000005cc   Lc    1   --   De 
     23  $d                         0x00000bfa   Lc    1   --   De 
     24  $t                         0x00000c00   Lc    1   --   De 
     25  $d                         0x00000c58   Lc    1   --   De 
     26  $t                         0x00000c5c   Lc    1   --   De 
     27  $d                         0x00000cc4   Lc    1   --   De 
     28  $t                         0x00000cc8   Lc    1   --   De 
     29  $d                         0x00000dc4   Lc    1   --   De 
     30  $t                         0x00000dd4   Lc    1   --   De 
     31  $d                         0x00000eb4   Lc    1   --   De 
     32  $t                         0x00000eb8   Lc    1   --   De 
     33  $d                         0x00000ec4   Lc    1   --   De 
     34  $t                         0x00000ec8   Lc    1   --   De 
     35  $d                         0x00000fac   Lc    1   --   De 
     36  $t                         0x00000fb0   Lc    1   --   De 
     37  $d                         0x0000134e   Lc    1   --   De 
     38  $t                         0x000013ce   Lc    1   --   De 
     39  $d                         0x00001978   Lc    1   --   De 
     40  $t                         0x00001980   Lc    1   --   De 
     41  $d                         0x00001a90   Lc    1   --   De 
     42  $t                         0x00001ab4   Lc    1   --   De 
     43  $d                         0x00001b8a   Lc    1   --   De 
     44  $t                         0x00001b90   Lc    1   --   De 
     45  $d                         0x00001c0e   Lc    1   --   De 
     46  $t                         0x00001c14   Lc    1   --   De 
     47  $d                         0x00001c5a   Lc    1   --   De 
     48  $t                         0x00001c60   Lc    1   --   De 
     49  $d                         0x00001ce8   Lc    1   --   De 
     50  $t                         0x00001cec   Lc    1   --   De 
     51  $d                         0x00001d54   Lc    1   --   De 
     52  $t                         0x00001d58   Lc    1   --   De 
     53  $d                         0x00001dd0   Lc    1   --   De 
     54  $t                         0x00001dd4   Lc    1   --   De 
     55  $d                         0x00001e52   Lc    1   --   De 
     56  $t                         0x00001ea8   Lc    1   --   De 
     57  $d                         0x00001f8c   Lc    1   --   De 
     58  $t                         0x00001f90   Lc    1   --   De 
     59  $d                         0x0000200e   Lc    1   --   De 
     60  $t                         0x00002014   Lc    1   --   De 
     61  $d                         0x000021d8   Lc    1   --   De 
     62  $t                         0x000021ec   Lc    1   --   De 
     63  $d                         0x00002200   Lc    1   --   De 
     64  $t                         0x00002208   Lc    1   --   De 
     65  $d                         0x00002320   Lc    1   --   De 
     66  $t                         0x00002328   Lc    1   --   De 
     67  $d                         0x000023fa   Lc    1   --   De 
     68  $t                         0x00002400   Lc    1   --   De 
     69  $d                         0x00002412   Lc    1   --   De 
     70  $t                         0x00002418   Lc    1   --   De 
     71  $d                         0x00002656   Lc    1   --   De 
     72  $t                         0x00002660   Lc    1   --   De 
     73  $d                         0x00002804   Lc    1   --   De 
     74  $t                         0x00002808   Lc    1   --   De 
     75  $d                         0x000029a2   Lc    1   --   De 
     76  $t                         0x000029a8   Lc    1   --   De 
     77  $d                         0x00002aa4   Lc    1   --   De 
     78  $t                         0x00002aa8   Lc    1   --   De 
     79  $d                         0x00002ace   Lc    1   --   De 
     80  $t                         0x00002ad4   Lc    1   --   De 
     81  $d                         0x00002adc   Lc    1   --   De 
     82  $t                         0x00002ae4   Lc    1   --   De 
     83  $d                         0x00002b04   Lc    1   --   De 
     84  $t                         0x00002b08   Lc    1   --   De 
     85  $d                         0x00002b22   Lc    1   --   De 
     86  $t                         0x00002b28   Lc    1   --   De 
     87  $d                         0x00002b92   Lc    1   --   De 
     88  $t                         0x00002b9c   Lc    1   --   De 
     89  $d                         0x00002cea   Lc    1   --   De 
     90  $t                         0x00002cf0   Lc    1   --   De 
     91  $d                         0x00002da6   Lc    1   --   De 
     92  $t                         0x00002dac   Lc    1   --   De 
     93  $d                         0x00002ea0   Lc    1   --   De 
     94  $t                         0x00002f14   Lc    1   --   De 
     95  $d                         0x00002f32   Lc    1   --   De 
     96  $t                         0x00002f38   Lc    1   --   De 
     97  $d                         0x00002f62   Lc    1   --   De 
     98  $t                         0x00002f6c   Lc    1   --   De 
     99  $d                         0x00002fb2   Lc    1   --   De 
    100  $t                         0x00002fb8   Lc    1   --   De 
    101  $d                         0x00003090   Lc    1   --   De 
    102  $t                         0x000030ac   Lc    1   --   De 
    103  $d                         0x000031e4   Lc    1   --   De 
    104  $t                         0x00003204   Lc    1   --   De 
    105  $d                         0x00003292   Lc    1   --   De 
    106  $t                         0x000032f0   Lc    1   --   De 
    107  $d                         0x00003432   Lc    1   --   De 
    108  $t                         0x0000343c   Lc    1   --   De 
    109  $d                         0x000034cc   Lc    1   --   De 
    110  $t                         0x000034d4   Lc    1   --   De 
    111  $d                         0x000035b4   Lc    1   --   De 
    112  $t                         0x000035c4   Lc    1   --   De 
    113  $d                         0x000035fa   Lc    1   --   De 
    114  $t                         0x00003604   Lc    1   --   De 
    115  $d                         0x00003638   Lc    1   --   De 
    116  $t                         0x00003640   Lc    1   --   De 
    117  $d                         0x00003724   Lc    1   --   De 
    118  $t                         0x0000372c   Lc    1   --   De 
    119  $d                         0x0000374a   Lc    1   --   De 
    120  $t                         0x00003754   Lc    1   --   De 
    121  $d                         0x00003866   Lc    1   --   De 
    122  $t                         0x00003874   Lc    1   --   De 
    123  $d                         0x000038a8   Lc    1   --   De 
    124  $t                         0x000038ac   Lc    1   --   De 
    125  $d                         0x0000398a   Lc    1   --   De 
    126  $t                         0x00003990   Lc    1   --   De 
    127  $d                         0x000039d4   Lc    1   --   De 
    128  $t                         0x000039de   Lc    1   --   De 
    129  $d                         0x00003a8a   Lc    1   --   De 
    130  $t                         0x00003a90   Lc    1   --   De 
    131  $d                         0x00003af2   Lc    1   --   De 
    132  $t                         0x00003afc   Lc    1   --   De 
    133  $d                         0x00003b3c   Lc    1   --   De 
    134  $t                         0x00003b40   Lc    1   --   De 
    135  $d                         0x00003b82   Lc    1   --   De 
    136  $t                         0x00003b88   Lc    1   --   De 
    137  $d                         0x00003bac   Lc    1   --   De 
    138  $t                         0x00003bb0   Lc    1   --   De 
    139  $d                         0x00003bd2   Lc    1   --   De 
    140  $t                         0x00003bd8   Lc    1   --   De 
    141  $d                         0x00003d82   Lc    1   --   De 
    142  $t                         0x00003d90   Lc    1   --   De 
    143  $d                         0x00003da0   Lc    1   --   De 
    144  $t                         0x00003da4   Lc    1   --   De 
    145  $d                         0x00003dc4   Lc    1   --   De 
    146  $t                         0x00003dc8   Lc    1   --   De 
    147  $d                         0x00003e42   Lc    1   --   De 
    148  $t                         0x00003e48   Lc    1   --   De 
    149  $d                         0x00003ec0   Lc    1   --   De 
    150  $t                         0x00003ec4   Lc    1   --   De 
    151  $d                         0x00003f18   Lc    1   --   De 
    152  $t                         0x00003f24   Lc    1   --   De 
    153  $d                         0x00003f5c   Lc    1   --   De 
    154  $t                         0x00003f60   Lc    1   --   De 
    155  $d                         0x00003fa4   Lc    1   --   De 
    156  $t                         0x00003fa8   Lc    1   --   De 
    157  $d                         0x00003fec   Lc    1   --   De 
    158  $t                         0x00003ff0   Lc    1   --   De 
    159  $d                         0x00004028   Lc    1   --   De 
    160  $t                         0x0000402c   Lc    1   --   De 
    161  $d                         0x00004064   Lc    1   --   De 
    162  $t                         0x00004068   Lc    1   --   De 
    163  $d                         0x000040a0   Lc    1   --   De 
    164  $t                         0x000040ac   Lc    1   --   De 
    165  $d                         0x000040e6   Lc    1   --   De 
    166  $t                         0x000040f4   Lc    1   --   De 
    167  $d                         0x000041a6   Lc    1   --   De 
    168  $t                         0x000041dc   Lc    1   --   De 
    169  $d                         0x000041ec   Lc    1   --   De 
    170  $t                         0x000041f0   Lc    1   --   De 
    171  $d                         0x00004200   Lc    1   --   De 
    172  $t                         0x00004204   Lc    1   --   De 
    173  $d                         0x00004214   Lc    1   --   De 
    174  $t                         0x00004218   Lc    1   --   De 
    175  $d                         0x00004228   Lc    1   --   De 
    176  $t                         0x0000422c   Lc    1   --   De 
    177  $d                         0x00004264   Lc    1   --   De 
    178  $t                         0x00004268   Lc    1   --   De 
    179  $d                         0x00004284   Lc    1   --   De 
    180  $t                         0x0000428c   Lc    1   --   De 
    181  $d                         0x000042b6   Lc    1   --   De 
    182  $t                         0x000042bc   Lc    1   --   De 
    183  $d                         0x00004342   Lc    1   --   De 
    184  $t                         0x0000434c   Lc    1   --   De 
    185  $d                         0x0000436e   Lc    1   --   De 
    186  $t                         0x00004374   Lc    1   --   De 
    187  $d                         0x000043ee   Lc    1   --   De 
    188  $t                         0x000043fc   Lc    1   --   De 
    189  $d                         0x00004410   Lc    1   --   De 
    190  $t                         0x00004414   Lc    1   --   De 
    191  $d                         0x0000449c   Lc    1   --   De 
    192  $t                         0x000044a4   Lc    1   --   De 
    193  $d                         0x000044b0   Lc    1   --   De 
    194  $t                         0x000044b4   Lc    1   --   De 
    195  $d                         0x000044bc   Lc    1   --   De 
    196  $t                         0x000044c0   Lc    1   --   De 
    197  $d                         0x000044ec   Lc    1   --   De 
    198  $t                         0x000044f0   Lc    1   --   De 
    199  $d                         0x0000453c   Lc    1   --   De 
    200  $t                         0x00004540   Lc    1   --   De 
    201  $d                         0x000045fa   Lc    1   --   De 
    202  $t                         0x00004604   Lc    1   --   De 
    203  $d                         0x00004686   Lc    1   --   De 
    204  $t                         0x00004698   Lc    1   --   De 
    205  $d                         0x000046a2   Lc    1   --   De 
    206  $t                         0x000046a8   Lc    1   --   De 
    207  $d                         0x00004700   Lc    1   --   De 
    208  $t                         0x00004708   Lc    1   --   De 
    209  $d                         0x00004786   Lc    1   --   De 
    210  $t                         0x0000478c   Lc    1   --   De 
    211  $d                         0x00004808   Lc    1   --   De 
    212  $t                         0x0000480c   Lc    1   --   De 
    213  $d                         0x000048b2   Lc    1   --   De 
    214  $t                         0x000048c0   Lc    1   --   De 
    215  $d                         0x000049e6   Lc    1   --   De 
    216  $t                         0x000049ec   Lc    1   --   De 
    217  $d                         0x00004b5e   Lc    1   --   De 
    218  $t                         0x00004b64   Lc    1   --   De 
    219  $d                         0x00004c98   Lc    1   --   De 
    220  $t                         0x00004c9c   Lc    1   --   De 
    221  $d                         0x00004e00   Lc    1   --   De 
    222  $t                         0x00004e04   Lc    1   --   De 
    223  $d                         0x00004e8c   Lc    1   --   De 
    224  $t                         0x00004e90   Lc    1   --   De 
    225  $d                         0x00004f0a   Lc    1   --   De 
    226  $t                         0x00004f10   Lc    1   --   De 
    227  $d                         0x00004f16   Lc    1   --   De 
    228  $t                         0x00004f1c   Lc    1   --   De 
    229  $d                         0x0000503e   Lc    1   --   De 
    230  $t                         0x00005048   Lc    1   --   De 
    231  $d                         0x000050f6   Lc    1   --   De 
    232  $t                         0x00005100   Lc    1   --   De 
    233  $d                         0x000051aa   Lc    1   --   De 
    234  $t                         0x000051b4   Lc    1   --   De 
    235  $d                         0x00005288   Lc    1   --   De 
    236  $t                         0x00005294   Lc    1   --   De 
    237  $d                         0x000053ce   Lc    1   --   De 
    238  $t                         0x000053e0   Lc    1   --   De 
    239  $d                         0x00005418   Lc    1   --   De 
    240  $t                         0x00005428   Lc    1   --   De 
    241  $d                         0x0000544a   Lc    1   --   De 
    242  $t                         0x00005454   Lc    1   --   De 
    243  $d                         0x0000549c   Lc    1   --   De 
    244  $t                         0x000054a0   Lc    1   --   De 
    245  $d                         0x00005578   Lc    1   --   De 
    246  $t                         0x0000557c   Lc    1   --   De 
    247  $d                         0x00005584   Lc    1   --   De 
    248  $t                         0x00005588   Lc    1   --   De 
    249  $d                         0x00005650   Lc    1   --   De 
    250  $t                         0x00005694   Lc    1   --   De 
    251  $d                         0x000056d8   Lc    1   --   De 
    252  $t                         0x000056dc   Lc    1   --   De 
    253  $d                         0x00005708   Lc    1   --   De 
    254  $t                         0x0000570c   Lc    1   --   De 
    255  $d                         0x00005730   Lc    1   --   De 
    256  $t                         0x00005734   Lc    1   --   De 
    257  $d                         0x00005774   Lc    1   --   De 
    258  $t                         0x00005778   Lc    1   --   De 
    259  $d                         0x000058ac   Lc    1   --   De 
    260  $t                         0x000058b0   Lc    1   --   De 
    261  $d                         0x0000594a   Lc    1   --   De 
    262  $t                         0x0000594e   Lc    1   --   De 
    263  $d                         0x00005a54   Lc    1   --   De 
    264  $t                         0x00005a58   Lc    1   --   De 
    265  $d.realdata                0x00005b42   Lc    1   --   De 
    266  $d.realdata                0x20000000   Lc    2   --   De 
    267  CMSIS\Device\Source\ARM\startup_CM3DS.s
                                    0x00000000   Lc  Abs  File  De 
    268  STACK                      0x20005458   Lc    3  Sect  De   0x1000
    269  Stack_Mem                  0x20005458   Lc    3  Data  De   0x1000
    270  __initial_sp               0x20006458   Lc    3  Data  De 
    271  HEAP                       0x20005458   Lc    3  Sect  De 
    272  Heap_Mem                   0x20005458   Lc    3  Data  De 
    273  RESET                      0x00000000   Lc    1  Sect  De   0x140
    274  .text                      0x000002a8   Lc    1  Sect  De   0x3c
    275  CMSIS\\Device\\Source\\system_CM3DS.c
                                    0x00000000   Lc  Abs  File  De 
    276  CMSIS\Device\Source\system_CM3DS.c
                                    0x00000000   Lc  Abs  File  De 
    277  i.SystemInit               0x00002ad4   Lc    1  Sect  De 
    278  .data                      0x20000000   Lc    2  Sect  De   0x4
    279  CMSIS\\Device\\StdPeriph_Driver\\src\\CM3DS_gpio.c
                                    0x00000000   Lc  Abs  File  De 
    280  CMSIS\Device\StdPeriph_Driver\src\CM3DS_gpio.c
                                    0x00000000   Lc  Abs  File  De 
    281  i.GPIO_DeInit              0x00001c4c   Lc    1  Sect  De 
    282  i.GPIO_PinRemapConfig      0x00001c60   Lc    1  Sect  De 
    283  i.GPIO_ReadInputData       0x00001c6a   Lc    1  Sect  De 
    284  i.GPIO_ResetBit            0x00001c80   Lc    1  Sect  De 
    285  i.GPIO_SetBit              0x00001cec   Lc    1  Sect  De 
    286  CMSIS\\Device\\StdPeriph_Driver\\src\\CM3DS_rcc.c
                                    0x00000000   Lc  Abs  File  De 
    287  CMSIS\Device\StdPeriph_Driver\src\CM3DS_rcc.c
                                    0x00000000   Lc  Abs  File  De 
    288  i.RCC_APB1PeriphResetCmd   0x00002400   Lc    1  Sect  De 
    289  CMSIS\\Device\\StdPeriph_Driver\\src\\CM3DS_adc.c
                                    0x00000000   Lc  Abs  File  De 
    290  CMSIS\Device\StdPeriph_Driver\src\CM3DS_adc.c
                                    0x00000000   Lc  Abs  File  De 
    291  CMSIS\\Device\\StdPeriph_Driver\\src\\CM3DS_dma.c
                                    0x00000000   Lc  Abs  File  De 
    292  CMSIS\Device\StdPeriph_Driver\src\CM3DS_dma.c
                                    0x00000000   Lc  Abs  File  De 
    293  CMSIS\\Device\\StdPeriph_Driver\\src\\CM3DS_dualtimer.c
                                    0x00000000   Lc  Abs  File  De 
    294  CMSIS\Device\StdPeriph_Driver\src\CM3DS_dualtimer.c
                                    0x00000000   Lc  Abs  File  De 
    295  CMSIS\\Device\\StdPeriph_Driver\\src\\CM3DS_exti.c
                                    0x00000000   Lc  Abs  File  De 
    296  CMSIS\Device\StdPeriph_Driver\src\CM3DS_exti.c
                                    0x00000000   Lc  Abs  File  De 
    297  CMSIS\\Device\\StdPeriph_Driver\\src\\CM3DS_i2c.c
                                    0x00000000   Lc  Abs  File  De 
    298  CMSIS\Device\StdPeriph_Driver\src\CM3DS_i2c.c
                                    0x00000000   Lc  Abs  File  De 
    299  CMSIS\\Device\\StdPeriph_Driver\\src\\CM3DS_spi.c
                                    0x00000000   Lc  Abs  File  De 
    300  CMSIS\Device\StdPeriph_Driver\src\CM3DS_spi.c
                                    0x00000000   Lc  Abs  File  De 
    301  CMSIS\\Device\\StdPeriph_Driver\\src\\CM3DS_timer.c
                                    0x00000000   Lc  Abs  File  De 
    302  CMSIS\Device\StdPeriph_Driver\src\CM3DS_timer.c
                                    0x00000000   Lc  Abs  File  De 
    303  CMSIS\\Device\\StdPeriph_Driver\\src\\CM3DS_uart.c
                                    0x00000000   Lc  Abs  File  De 
    304  CMSIS\Device\StdPeriph_Driver\src\CM3DS_uart.c
                                    0x00000000   Lc  Abs  File  De 
    305  i.UART_ITCLEAR             0x00002b08   Lc    1  Sect  De 
    306  i.UART_Init                0x00002b10   Lc    1  Sect  De 
    307  i.UART_ReceiveData         0x00002b28   Lc    1  Sect  De 
    308  CMSIS\\Device\\StdPeriph_Driver\\src\\CM3DS_watchdog.c
                                    0x00000000   Lc  Abs  File  De 
    309  CMSIS\Device\StdPeriph_Driver\src\CM3DS_watchdog.c
                                    0x00000000   Lc  Abs  File  De 
    310  CMSIS\\Device\\StdPeriph_Driver\\src\\CM3DS_misc.c
                                    0x00000000   Lc  Abs  File  De 
    311  CMSIS\Device\StdPeriph_Driver\src\CM3DS_misc.c
                                    0x00000000   Lc  Abs  File  De 
    312  i.NVIC_Init                0x0000239c   Lc    1  Sect  De 
    313  CMSIS\\Device\\StdPeriph_Driver\\src\\CM3_retarget.c
                                    0x00000000   Lc  Abs  File  De 
    314  CMSIS\Device\StdPeriph_Driver\src\CM3_retarget.c
                                    0x00000000   Lc  Abs  File  De 
    315  i.UartPutc                 0x00002b34   Lc    1  Sect  De 
    316  i.fputc                    0x00002f6c   Lc    1  Sect  De 
    317  .data                      0x20000004   Lc    2  Sect  De   0x4
    318  driver\\i2c_gpio.c         0x00000000   Lc  Abs  File  De 
    319  driver\i2c_gpio.c          0x00000000   Lc  Abs  File  De 
    320  i.hfUnitDelay              0x00002f72   Lc    1  Sect  De 
    321  hfUnitDelay                0x00002f73   Lc    1  Code  De   0x20
    322  i.read_i2c                 0x00003dc8   Lc    1  Sect  De 
    323  i.start_i2c                0x00003f60   Lc    1  Sect  De 
    324  i.stop_i2c                 0x00003ff0   Lc    1  Sect  De 
    325  i.swi2c_init               0x00004068   Lc    1  Sect  De 
    326  i.tyj_i2c_scl_read         0x000041dc   Lc    1  Sect  De 
    327  tyj_i2c_scl_read           0x000041dd   Lc    1  Code  De   0x10
    328  i.tyj_i2c_sda_read         0x00004204   Lc    1  Sect  De 
    329  tyj_i2c_sda_read           0x00004205   Lc    1  Code  De   0x10
    330  i.write_i2c                0x00004708   Lc    1  Sect  De 
    331  driver\\lcd_9488_drv.c     0x00000000   Lc  Abs  File  De 
    332  driver\lcd_9488_drv.c      0x00000000   Lc  Abs  File  De 
    333  i.LCD_Clear                0x00002014   Lc    1  Sect  De 
    334  i.LCD_DrawPoint_color      0x0000203e   Lc    1  Sect  De 
    335  i.LCD_Init                 0x00002058   Lc    1  Sect  De 
    336  i.LCD_RD_DATA              0x000021ec   Lc    1  Sect  De 
    337  LCD_RD_DATA                0x000021ed   Lc    1  Code  De   0xa
    338  i.LCD_Scan_Dir             0x000021f6   Lc    1  Sect  De 
    339  i.LCD_Set_Window           0x0000223a   Lc    1  Sect  De 
    340  i.LCD_ShowChar             0x0000226c   Lc    1  Sect  De 
    341  i.LCD_ShowString           0x00002328   Lc    1  Sect  De 
    342  i.LCD_fill                 0x00002374   Lc    1  Sect  De 
    343  .constdata                 0x00005b42   Lc    1  Sect  De   0x5f0
    344  asc2_1608                  0x00005b42   Lc    1  Data  De   0x5f0
    345  .data                      0x20000008   Lc    2  Sect  De   0x8
    346  driver\\touch_GT911_drv.c  0x00000000   Lc  Abs  File  De 
    347  driver\touch_GT911_drv.c   0x00000000   Lc  Abs  File  De 
    348  i.GT911_Scan               0x00001d58   Lc    1  Sect  De 
    349  i.GT911_init               0x00001dd4   Lc    1  Sect  De 
    350  i.GT9XX_ReadData           0x00001ea8   Lc    1  Sect  De 
    351  i.GT9XX_WriteData          0x00001f90   Lc    1  Sect  De 
    352  driver\\i2c_gpio2.c        0x00000000   Lc  Abs  File  De 
    353  driver\i2c_gpio2.c         0x00000000   Lc  Abs  File  De 
    354  i.hfUnitDelay2             0x00002f94   Lc    1  Sect  De 
    355  hfUnitDelay2               0x00002f95   Lc    1  Code  De   0x1e
    356  i.read_i2c2                0x00003e48   Lc    1  Sect  De 
    357  i.start_i2c2               0x00003fa8   Lc    1  Sect  De 
    358  i.stop_i2c2                0x0000402c   Lc    1  Sect  De 
    359  i.swi2c_init2              0x000040ac   Lc    1  Sect  De 
    360  i.tyj_i2c_scl_read         0x000041f0   Lc    1  Sect  De 
    361  tyj_i2c_scl_read           0x000041f1   Lc    1  Code  De   0x10
    362  i.tyj_i2c_sda_read         0x00004218   Lc    1  Sect  De 
    363  tyj_i2c_sda_read           0x00004219   Lc    1  Code  De   0x10
    364  i.write_i2c2               0x0000478c   Lc    1  Sect  De 
    365  driver\thp_bme280_drv.c    0x00000000   Lc  Abs  File  De 
    366  i.BME280_Configuration     0x00001742   Lc    1  Sect  De 
    367  i.BME280_Get_ALL           0x000017c8   Lc    1  Sect  De 
    368  i.BME280_Get_DIG           0x00001980   Lc    1  Sect  De 
    369  i.BME280_ID                0x00001a06   Lc    1  Sect  De 
    370  i.BME280_Read              0x00001ab4   Lc    1  Sect  De 
    371  BME280_Read                0x00001ab5   Lc    1  Code  De   0xd6
    372  i.BME280_Reset             0x00001b90   Lc    1  Sect  De 
    373  i.BME280_Write             0x00001ba4   Lc    1  Sect  De 
    374  BME280_Write               0x00001ba5   Lc    1  Code  De   0x6a
    375  i.Bit_Modification         0x00001c14   Lc    1  Sect  De 
    376  Bit_Modification           0x00001c15   Lc    1  Code  De   0x24
    377  freertos\event_groups.c    0x00000000   Lc  Abs  File  De 
    378  freertos\heap_4.c          0x00000000   Lc  Abs  File  De 
    379  i.prvHeapInit              0x000036e8   Lc    1  Sect  De 
    380  prvHeapInit                0x000036e9   Lc    1  Code  De   0x3c
    381  i.prvInsertBlockIntoFreeList
                                    0x000037fc   Lc    1  Sect  De 
    382  prvInsertBlockIntoFreeList 0x000037fd   Lc    1  Code  De   0x6a
    383  i.pvPortMalloc             0x00003c50   Lc    1  Sect  De 
    384  i.vPortFree                0x00004374   Lc    1  Sect  De 
    385  .bss                       0x20000114   Lc    3  Sect  De   0x5000
    386  ucHeap                     0x20000114   Lc    3  Data  De   0x5000
    387  .data                      0x20000010   Lc    2  Sect  De   0x1c
    388  pxEnd                      0x20000010   Lc    2  Data  De   0x4
    389  xFreeBytesRemaining        0x20000014   Lc    2  Data  De   0x4
    390  xMinimumEverFreeBytesRemaining
                                    0x20000018   Lc    2  Data  De   0x4
    391  xNumberOfSuccessfulAllocations
                                    0x2000001c   Lc    2  Data  De   0x4
    392  xNumberOfSuccessfulFrees   0x20000020   Lc    2  Data  De   0x4
    393  xStart                     0x20000024   Lc    2  Data  De   0x8
    394  freertos\list.c            0x00000000   Lc  Abs  File  De 
    395  i.uxListRemove             0x0000428c   Lc    1  Sect  De 
    396  i.vListInitialise          0x000042bc   Lc    1  Sect  De 
    397  i.vListInitialiseItem      0x000042d6   Lc    1  Sect  De 
    398  i.vListInsert              0x000042dc   Lc    1  Sect  De 
    399  freertos\\port.c           0x00000000   Lc  Abs  File  De 
    400  .emb_text                  0x00000208   Lc    1  Sect  De   0x96
    401  freertos\port.c            0x00000000   Lc  Abs  File  De 
    402  i.SysTick_Handler          0x00002aa8   Lc    1  Sect  De 
    403  i.prvTaskExitError         0x00003b88   Lc    1  Sect  De 
    404  prvTaskExitError           0x00003b89   Lc    1  Code  De   0x24
    405  i.pxPortInitialiseStack    0x00003da4   Lc    1  Sect  De 
    406  i.vPortEnterCritical       0x0000430c   Lc    1  Sect  De 
    407  i.vPortExitCritical        0x0000434c   Lc    1  Sect  De 
    408  i.vPortSetupTimerInterrupt 0x000043fc   Lc    1  Sect  De 
    409  i.xPortStartScheduler      0x0000480c   Lc    1  Sect  De 
    410  .data                      0x2000002c   Lc    2  Sect  De   0xc
    411  ucMaxSysCallPriority       0x2000002c   Lc    2  Data  De   0x1
    412  uxCriticalNesting          0x20000030   Lc    2  Data  De   0x4
    413  ulMaxPRIGROUPValue         0x20000034   Lc    2  Data  De   0x4
    414  freertos\queue.c           0x00000000   Lc  Abs  File  De 
    415  i.prvCopyDataFromQueue     0x00003640   Lc    1  Sect  De 
    416  prvCopyDataFromQueue       0x00003641   Lc    1  Code  De   0x26
    417  i.prvCopyDataToQueue       0x00003666   Lc    1  Sect  De 
    418  prvCopyDataToQueue         0x00003667   Lc    1  Code  De   0x6c
    419  i.prvIsQueueEmpty          0x000038ac   Lc    1  Sect  De 
    420  prvIsQueueEmpty            0x000038ad   Lc    1  Code  De   0x1a
    421  i.prvNotifyQueueSetContainer
                                    0x000038c6   Lc    1  Sect  De 
    422  prvNotifyQueueSetContainer 0x000038c7   Lc    1  Code  De   0x88
    423  i.prvUnlockQueue           0x00003bd8   Lc    1  Sect  De 
    424  prvUnlockQueue             0x00003bd9   Lc    1  Code  De   0x76
    425  i.vQueueWaitForMessageRestricted
                                    0x00004414   Lc    1  Sect  De 
    426  i.xQueueCreateMutex        0x000048c0   Lc    1  Sect  De 
    427  i.xQueueGenericCreate      0x000048e4   Lc    1  Sect  De 
    428  i.xQueueGenericReset       0x0000493c   Lc    1  Sect  De 
    429  i.xQueueGenericSend        0x000049ec   Lc    1  Sect  De 
    430  i.xQueueReceive            0x00004b64   Lc    1  Sect  De 
    431  i.xQueueSemaphoreTake      0x00004c9c   Lc    1  Sect  De 
    432  freertos\stream_buffer.c   0x00000000   Lc  Abs  File  De 
    433  freertos\tasks.c           0x00000000   Lc  Abs  File  De 
    434  i.prvAddCurrentTaskToDelayedList
                                    0x0000343c   Lc    1  Sect  De 
    435  prvAddCurrentTaskToDelayedList
                                    0x0000343d   Lc    1  Code  De   0x90
    436  i.prvAddNewTaskToReadyList 0x000034d4   Lc    1  Sect  De 
    437  prvAddNewTaskToReadyList   0x000034d5   Lc    1  Code  De   0xe0
    438  i.prvCheckTasksWaitingTermination
                                    0x00003604   Lc    1  Sect  De 
    439  prvCheckTasksWaitingTermination
                                    0x00003605   Lc    1  Code  De   0x34
    440  i.prvDeleteTCB             0x000036d2   Lc    1  Sect  De 
    441  prvDeleteTCB               0x000036d3   Lc    1  Code  De   0x14
    442  i.prvIdleTask              0x0000372c   Lc    1  Sect  De 
    443  prvIdleTask                0x0000372d   Lc    1  Code  De   0x1e
    444  i.prvInitialiseNewTask     0x00003754   Lc    1  Sect  De 
    445  prvInitialiseNewTask       0x00003755   Lc    1  Code  De   0xa6
    446  i.prvResetNextTaskUnblockTime
                                    0x00003b24   Lc    1  Sect  De 
    447  prvResetNextTaskUnblockTime
                                    0x00003b25   Lc    1  Code  De   0x18
    448  i.pvTaskIncrementMutexHeldCount
                                    0x00003d90   Lc    1  Sect  De 
    449  i.uxTaskGetNumberOfTasks   0x000042b0   Lc    1  Sect  De 
    450  i.vTaskDelay               0x00004458   Lc    1  Sect  De 
    451  i.vTaskInternalSetTimeOutState
                                    0x000044a4   Lc    1  Sect  De 
    452  i.vTaskMissedYield         0x000044b4   Lc    1  Sect  De 
    453  i.vTaskPlaceOnEventList    0x000044c0   Lc    1  Sect  De 
    454  i.vTaskPlaceOnEventListRestricted
                                    0x000044f0   Lc    1  Sect  De 
    455  i.vTaskPriorityDisinheritAfterTimeout
                                    0x00004540   Lc    1  Sect  De 
    456  i.vTaskStartScheduler      0x00004604   Lc    1  Sect  De 
    457  i.vTaskSuspendAll          0x00004698   Lc    1  Sect  De 
    458  i.vTaskSwitchContext       0x000046a8   Lc    1  Sect  De 
    459  i.xTaskCheckForTimeOut     0x00004e04   Lc    1  Sect  De 
    460  i.xTaskCreate              0x00004e90   Lc    1  Sect  De 
    461  i.xTaskGetSchedulerState   0x00004ef4   Lc    1  Sect  De 
    462  i.xTaskGetTickCount        0x00004f10   Lc    1  Sect  De 
    463  i.xTaskIncrementTick       0x00004f1c   Lc    1  Sect  De 
    464  i.xTaskPriorityDisinherit  0x00005048   Lc    1  Sect  De 
    465  i.xTaskPriorityInherit     0x00005100   Lc    1  Sect  De 
    466  i.xTaskRemoveFromEventList 0x000051b4   Lc    1  Sect  De 
    467  i.xTaskResumeAll           0x00005294   Lc    1  Sect  De 
    468  .bss                       0x20005114   Lc    3  Sect  De   0x16c
    469  pxReadyTasksLists          0x20005114   Lc    3  Data  De   0xe0
    470  xDelayedTaskList1          0x200051f4   Lc    3  Data  De   0x1c
    471  xDelayedTaskList2          0x20005210   Lc    3  Data  De   0x1c
    472  xPendingReadyList          0x2000522c   Lc    3  Data  De   0x1c
    473  xTasksWaitingTermination   0x20005248   Lc    3  Data  De   0x1c
    474  xSuspendedTaskList         0x20005264   Lc    3  Data  De   0x1c
    475  .data                      0x20000038   Lc    2  Sect  De   0x40
    476  uxDeletedTasksWaitingCleanUp
                                    0x2000003c   Lc    2  Data  De   0x4
    477  uxCurrentNumberOfTasks     0x20000040   Lc    2  Data  De   0x4
    478  xTickCount                 0x20000044   Lc    2  Data  De   0x4
    479  uxTopReadyPriority         0x20000048   Lc    2  Data  De   0x4
    480  xSchedulerRunning          0x2000004c   Lc    2  Data  De   0x4
    481  xPendedTicks               0x20000050   Lc    2  Data  De   0x4
    482  xYieldPendings             0x20000054   Lc    2  Data  De   0x4
    483  xNumOfOverflows            0x20000058   Lc    2  Data  De   0x4
    484  uxTaskNumber               0x2000005c   Lc    2  Data  De   0x4
    485  xNextTaskUnblockTime       0x20000060   Lc    2  Data  De   0x4
    486  uxTopUsedPriority          0x20000064   Lc    2  Data  De   0x4
    487  uxSchedulerSuspended       0x20000068   Lc    2  Data  De   0x4
    488  pxDelayedTaskList          0x2000006c   Lc    2  Data  De   0x4
    489  pxOverflowDelayedTaskList  0x20000070   Lc    2  Data  De   0x4
    490  xIdleTaskHandles           0x20000074   Lc    2  Data  De   0x4
    491  freertos\timers.c          0x00000000   Lc  Abs  File  De 
    492  i.prvCheckForValidListAndQueue
                                    0x000035c4   Lc    1  Sect  De 
    493  prvCheckForValidListAndQueue
                                    0x000035c5   Lc    1  Code  De   0x36
    494  i.prvInsertTimerInActiveList
                                    0x00003874   Lc    1  Sect  De 
    495  prvInsertTimerInActiveList 0x00003875   Lc    1  Code  De   0x34
    496  i.prvProcessExpiredTimer   0x00003950   Lc    1  Sect  De 
    497  prvProcessExpiredTimer     0x00003951   Lc    1  Code  De   0x3a
    498  i.prvProcessReceivedCommands
                                    0x00003990   Lc    1  Sect  De 
    499  prvProcessReceivedCommands 0x00003991   Lc    1  Code  De   0xfa
    500  i.prvProcessTimerOrBlockTask
                                    0x00003a90   Lc    1  Sect  De 
    501  prvProcessTimerOrBlockTask 0x00003a91   Lc    1  Code  De   0x62
    502  i.prvReloadTimer           0x00003afc   Lc    1  Sect  De 
    503  prvReloadTimer             0x00003afd   Lc    1  Code  De   0x28
    504  i.prvSampleTimeNow         0x00003b40   Lc    1  Sect  De 
    505  prvSampleTimeNow           0x00003b41   Lc    1  Code  De   0x42
    506  i.prvTimerTask             0x00003bb0   Lc    1  Sect  De 
    507  prvTimerTask               0x00003bb1   Lc    1  Code  De   0x22
    508  i.xTimerCreateTimerTask    0x000053e0   Lc    1  Sect  De 
    509  .bss                       0x20005280   Lc    3  Sect  De   0x38
    510  xActiveTimerList1          0x20005280   Lc    3  Data  De   0x1c
    511  xActiveTimerList2          0x2000529c   Lc    3  Data  De   0x1c
    512  .data                      0x20000078   Lc    2  Sect  De   0x14
    513  xTimerQueue                0x20000078   Lc    2  Data  De   0x4
    514  xTimerTaskHandle           0x2000007c   Lc    2  Data  De   0x4
    515  xLastTime                  0x20000080   Lc    2  Data  De   0x4
    516  pxCurrentTimerList         0x20000084   Lc    2  Data  De   0x4
    517  pxOverflowTimerList        0x20000088   Lc    2  Data  De   0x4
    518  src\\main.c                0x00000000   Lc  Abs  File  De 
    519  src\main.c                 0x00000000   Lc  Abs  File  De 
    520  i.BME280_Init              0x00001a1c   Lc    1  Sect  De 
    521  i.bme280RefreshTask        0x00002dac   Lc    1  Sect  De 
    522  i.epwm_ahb_init            0x00002f38   Lc    1  Sect  De 
    523  i.img_init                 0x00002fb8   Lc    1  Sect  De 
    524  i.ledRefreshTask           0x000030ac   Lc    1  Sect  De 
    525  i.main                     0x00003204   Lc    1  Sect  De 
    526  i.mem_addr16b_test         0x000032f0   Lc    1  Sect  De 
    527  i.nvicInit                 0x000033fc   Lc    1  Sect  De 
    528  i.touchRefreshTask         0x000040f4   Lc    1  Sect  De 
    529  i.uart0_init               0x0000422c   Lc    1  Sect  De 
    530  i.uart_ahb_init            0x00004268   Lc    1  Sect  De 
    531  .bss                       0x200052b8   Lc    3  Sect  De   0x5c
    532  touchInfo1                 0x200052b8   Lc    3  Data  De   0x2a
    533  .data                      0x2000008c   Lc    2  Sect  De   0x24
    534  .data                      0x200000b0   Lc    2  Sect  De   0x2
    535  .data                      0x200000b2   Lc    2  Sect  De   0x2
    536  .data                      0x200000b4   Lc    2  Sect  De   0x2
    537  .data                      0x200000b6   Lc    2  Sect  De   0x2
    538  .data                      0x200000b8   Lc    2  Sect  De   0x2
    539  .data                      0x200000ba   Lc    2  Sect  De   0x2
    540  .data                      0x200000bc   Lc    2  Sect  De   0x2
    541  .data                      0x200000be   Lc    2  Sect  De   0x2
    542  .data                      0x200000c0   Lc    2  Sect  De   0x2
    543  src\\delay.c               0x00000000   Lc  Abs  File  De 
    544  .emb_text                  0x000002a0   Lc    1  Sect  De   0x6
    545  src\delay.c                0x00000000   Lc  Abs  File  De 
    546  i.DELAY_TICK               0x00001c38   Lc    1  Sect  De 
    547  i.delay_ms                 0x00002f20   Lc    1  Sect  De 
    548  src\scd.c                  0x00000000   Lc  Abs  File  De 
    549  i.SCD_CMD_CALL             0x00002418   Lc    1  Sect  De 
    550  SCD_CMD_CALL               0x00002419   Lc    1  Code  De   0x28
    551  i.SCD_CMD_CHG              0x00002440   Lc    1  Sect  De 
    552  SCD_CMD_CHG                0x00002441   Lc    1  Code  De   0x14
    553  i.SCD_CMD_CONF             0x00002454   Lc    1  Sect  De 
    554  SCD_CMD_CONF               0x00002455   Lc    1  Code  De   0x16
    555  i.SCD_CMD_DUMP             0x0000246a   Lc    1  Sect  De 
    556  SCD_CMD_DUMP               0x0000246b   Lc    1  Code  De   0x26
    557  i.SCD_CMD_SET              0x00002490   Lc    1  Sect  De 
    558  SCD_CMD_SET                0x00002491   Lc    1  Code  De   0x6c
    559  i.SCD_Rev1Byte             0x000024fc   Lc    1  Sect  De 
    560  i.SCD_cmd_handle           0x00002578   Lc    1  Sect  De 
    561  SCD_cmd_handle             0x00002579   Lc    1  Code  De   0xde
    562  i.SCO_DEBUG                0x00002660   Lc    1  Sect  De 
    563  SCO_DEBUG                  0x00002661   Lc    1  Code  De   0x12
    564  i.SCO_DUMP                 0x00002674   Lc    1  Sect  De 
    565  SCO_DUMP                   0x00002675   Lc    1  Code  De   0x190
    566  i.SCO_PRINT                0x00002808   Lc    1  Sect  De 
    567  SCO_PRINT                  0x00002809   Lc    1  Code  De   0x7a
    568  i.SCO_VAR                  0x00002884   Lc    1  Sect  De 
    569  SCO_VAR                    0x00002885   Lc    1  Code  De   0x11e
    570  i.SCO_get                  0x000029a8   Lc    1  Sect  De 
    571  SCO_get                    0x000029a9   Lc    1  Code  De   0xfc
    572  i._atof_pow10              0x00002b6c   Lc    1  Sect  De 
    573  _atof_pow10                0x00002b6d   Lc    1  Code  De   0x26
    574  i._cz_strtoxl              0x00002b9c   Lc    1  Sect  De 
    575  _cz_strtoxl                0x00002b9d   Lc    1  Code  De   0x14e
    576  i.atof_tyj                 0x00002d00   Lc    1  Sect  De 
    577  atof_tyj                   0x00002d01   Lc    1  Code  De   0xa6
    578  i.cz_atol                  0x00002f14   Lc    1  Sect  De 
    579  cz_atol                    0x00002f15   Lc    1  Code  De   0xa
    580  i.scd_send1Byte            0x00003f24   Lc    1  Sect  De 
    581  .constdata                 0x00006134   Lc    1  Sect  De   0x408
    582  .conststring               0x0000665c   Lc    1  Sect  De   0x20
    583  .data                      0x200000c4   Lc    2  Sect  De   0x40
    584  checkUint16Sum             0x200000c4   Lc    2  Data  De   0x2
    585  checkUint16Sum             0x200000c6   Lc    2  Data  De   0x2
    586  SCD_CMD_TAB                0x200000c8   Lc    2  Data  De   0x14
    587  SCD_CMD_FCNS               0x200000dc   Lc    2  Data  De   0x14
    588  SCD_PROTOCOL_FCNS          0x200000f0   Lc    2  Data  De   0x14
    589  src\scd_reg.c              0x00000000   Lc  Abs  File  De 
    590  i.scd_init_1               0x00003ec4   Lc    1  Sect  De 
    591  .bss                       0x20005314   Lc    3  Sect  De   0xe0
    592  .constdata                 0x0000653c   Lc    1  Sect  De   0x50
    593  .data                      0x20000104   Lc    2  Sect  De   0x10
    594  src\\int_handlers.c        0x00000000   Lc  Abs  File  De 
    595  src\int_handlers.c         0x00000000   Lc  Abs  File  De 
    596  i.UART0_Handler            0x00002ae4   Lc    1  Sect  De 
    597  dc.s                       0x00000000   Lc  Abs  File  De 
    598  ../clib/printf.c           0x00000000   Lc  Abs  File  De 
    599  ../clib/printf.c           0x00000000   Lc  Abs  File  De 
    600  ../clib/printf.c           0x00000000   Lc  Abs  File  De 
    601  .text                      0x000002e4   Lc    1  Sect  De 
    602  ../clib/printf.c           0x00000000   Lc  Abs  File  De 
    603  .text                      0x000002fc   Lc    1  Sect  De 
    604  ../clib/printf.c           0x00000000   Lc  Abs  File  De 
    605  ../clib/printf.c           0x00000000   Lc  Abs  File  De 
    606  .text                      0x00000324   Lc    1  Sect  De 
    607  ../clib/printf.c           0x00000000   Lc  Abs  File  De 
    608  .text                      0x00000372   Lc    1  Sect  De 
    609  ../clib/printf.c           0x00000000   Lc  Abs  File  De 
    610  .text                      0x000003c4   Lc    1  Sect  De 
    611  ../clib/printf.c           0x00000000   Lc  Abs  File  De 
    612  ../clib/printf.c           0x00000000   Lc  Abs  File  De 
    613  .text                      0x0000043c   Lc    1  Sect  De 
    614  .constdata                 0x0000658c   Lc    1  Sect  De   0x28
    615  uc_hextab                  0x0000658c   Lc    1  Data  De   0x14
    616  lc_hextab                  0x000065a0   Lc    1  Data  De   0x14
    617  ../clib/printf.c           0x00000000   Lc  Abs  File  De 
    618  ../clib/printf.c           0x00000000   Lc  Abs  File  De 
    619  ../clib/printf.c           0x00000000   Lc  Abs  File  De 
    620  ../clib/printf.c           0x00000000   Lc  Abs  File  De 
    621  ../clib/printf.c           0x00000000   Lc  Abs  File  De 
    622  ../clib/printf.c           0x00000000   Lc  Abs  File  De 
    623  ../clib/printf.c           0x00000000   Lc  Abs  File  De 
    624  ../clib/printf.c           0x00000000   Lc  Abs  File  De 
    625  ../clib/printf.c           0x00000000   Lc  Abs  File  De 
    626  i._is_digit                0x00002cf0   Lc    1  Sect  De 
    627  ../clib/printf.c           0x00000000   Lc  Abs  File  De 
    628  .text                      0x00000494   Lc    1  Sect  De 
    629  .constdata                 0x000065b4   Lc    1  Sect  De   0x11
    630  maptable                   0x000065b4   Lc    1  Data  De   0x11
    631  ../clib/printf.c           0x00000000   Lc  Abs  File  De 
    632  ../clib/printf.c           0x00000000   Lc  Abs  File  De 
    633  ../clib/printf_percent.s   0x00000000   Lc  Abs  File  De 
    634  .ARM.Collect$$_printf_percent$$00000014
                                    0x000001c6   Lc    1  Sect  De   0x6
    635  ../clib/printf_percent.s   0x00000000   Lc  Abs  File  De 
    636  .ARM.Collect$$_printf_percent$$0000000C
                                    0x000001c0   Lc    1  Sect  De   0x6
    637  ../clib/printf_percent.s   0x00000000   Lc  Abs  File  De 
    638  .ARM.Collect$$_printf_percent$$00000009
                                    0x000001ba   Lc    1  Sect  De   0x6
    639  ../clib/printf_percent.s   0x00000000   Lc  Abs  File  De 
    640  .ARM.Collect$$_printf_percent$$00000003
                                    0x000001b4   Lc    1  Sect  De   0x6
    641  ../clib/printf_percent.s   0x00000000   Lc  Abs  File  De 
    642  .ARM.Collect$$_printf_percent$$00000000
                                    0x000001b4   Lc    1  Sect  De 
    643  ../clib/string.c           0x00000000   Lc  Abs  File  De 
    644  ../clib/memcpset.s         0x00000000   Lc  Abs  File  De 
    645  .text                      0x000005cc   Lc    1  Sect  De   0x8a
    646  ../clib/memcpset.s         0x00000000   Lc  Abs  File  De 
    647  ../clib/memcpset.s         0x00000000   Lc  Abs  File  De 
    648  .text                      0x00000656   Lc    1  Sect  De   0x10
    649  ../clib/memcpset.s         0x00000000   Lc  Abs  File  De 
    650  .text                      0x00000666   Lc    1  Sect  De   0x44
    651  ../clib/memcpset.s         0x00000000   Lc  Abs  File  De 
    652  .text                      0x000006aa   Lc    1  Sect  De   0x4e
    653  ../clib/heapaux.c          0x00000000   Lc  Abs  File  De 
    654  .text                      0x000006f8   Lc    1  Sect  De 
    655  ../clib/angel/startup.s    0x00000000   Lc  Abs  File  De 
    656  !!!main                    0x00000140   Lc    1  Sect  De   0x8
    657  ../clib/misc.s             0x00000000   Lc  Abs  File  De 
    658  ../fplib/f2d.s             0x00000000   Lc  Abs  File  De 
    659  x$fpl$f2d                  0x00005460   Lc    1  Sect  De   0x56
    660  ../fplib/faddsub.s         0x00000000   Lc  Abs  File  De 
    661  x$fpl$fadd                 0x000054b8   Lc    1  Sect  De   0xc4
    662  _fadd1                     0x000054c7   Lc    1  Code  De 
    663  x$fpl$fsub                 0x00005974   Lc    1  Sect  De   0xea
    664  _fsub1                     0x00005983   Lc    1  Code  De 
    665  ../fplib/fdiv.s            0x00000000   Lc  Abs  File  De 
    666  x$fpl$fdiv                 0x00005588   Lc    1  Sect  De   0x184
    667  _fdiv1                     0x00005589   Lc    1  Code  De 
    668  ../fplib/ffix.s            0x00000000   Lc  Abs  File  De 
    669  x$fpl$ffix                 0x0000570c   Lc    1  Sect  De   0x36
    670  ../fplib/ffixu.s           0x00000000   Lc  Abs  File  De 
    671  x$fpl$ffixu                0x00005744   Lc    1  Sect  De   0x3e
    672  ../fplib/fflt.s            0x00000000   Lc  Abs  File  De 
    673  x$fpl$ffltu                0x000057b4   Lc    1  Sect  De   0x26
    674  x$fpl$fflt                 0x00005784   Lc    1  Sect  De   0x30
    675  ../fplib/fmul.s            0x00000000   Lc  Abs  File  De 
    676  x$fpl$fmul                 0x000057dc   Lc    1  Sect  De   0x102
    677  ../fplib/printf1.s         0x00000000   Lc  Abs  File  De 
    678  x$fpl$printf1              0x00005a5e   Lc    1  Sect  De   0x4
    679  ../fplib/scalbnf.s         0x00000000   Lc  Abs  File  De 
    680  x$fpl$scalbnf              0x00005ac6   Lc    1  Sect  De   0x4c
    681  ../clib/angel/kernel.s     0x00000000   Lc  Abs  File  De 
    682  .ARM.Collect$$rtentry$$00000000
                                    0x000001e8   Lc    1  Sect  De 
    683  ../clib/printf.c           0x00000000   Lc  Abs  File  De 
    684  .text                      0x000006fe   Lc    1  Sect  De 
    685  ../clib/printf.c           0x00000000   Lc  Abs  File  De 
    686  .text                      0x000007b0   Lc    1  Sect  De 
    687  _fp_digits                 0x000007b3   Lc    1  Code  De   0x1b0
    688  ../clib/printf.c           0x00000000   Lc  Abs  File  De 
    689  .text                      0x00000bd0   Lc    1  Sect  De 
    690  _printf_input_char         0x00000bd1   Lc    1  Code  De   0xa
    691  ../clib/printf.c           0x00000000   Lc  Abs  File  De 
    692  .text                      0x00000c00   Lc    1  Sect  De 
    693  ../clib/printf.c           0x00000000   Lc  Abs  File  De 
    694  .text                      0x00000c0a   Lc    1  Sect  De 
    695  ../clib/printf.c           0x00000000   Lc  Abs  File  De 
    696  .text                      0x00000c38   Lc    1  Sect  De 
    697  ../clib/printf_percent.s   0x00000000   Lc  Abs  File  De 
    698  .ARM.Collect$$_printf_percent$$00000017
                                    0x000001cc   Lc    1  Sect  De   0x4
    699  ../clib/memcpset.s         0x00000000   Lc  Abs  File  De 
    700  .text                      0x00000c5c   Lc    1  Sect  De   0x64
    701  ../fplib/dretinf.s         0x00000000   Lc  Abs  File  De 
    702  x$fpl$dretinf              0x00005454   Lc    1  Sect  De   0xc
    703  ../fplib/fcheck1.s         0x00000000   Lc  Abs  File  De 
    704  x$fpl$fcheck1              0x0000557c   Lc    1  Sect  De   0xc
    705  ../fplib/fnaninf.s         0x00000000   Lc  Abs  File  De 
    706  x$fpl$fnaninf              0x000058de   Lc    1  Sect  De   0x8c
    707  ../fplib/fretinf.s         0x00000000   Lc  Abs  File  De 
    708  x$fpl$fretinf              0x0000596a   Lc    1  Sect  De   0xa
    709  ../fplib/usenofp.s         0x00000000   Lc  Abs  File  De 
    710  x$fpl$usenofp              0x00005b42   Lc    1  Sect  De 
    711  ../clib/angel/kernel.s     0x00000000   Lc  Abs  File  De 
    712  .ARM.Collect$$rtentry$$00000002
                                    0x000001e8   Lc    1  Sect  De 
    713  .ARM.Collect$$rtentry$$00000009
                                    0x000001ee   Lc    1  Sect  De 
    714  .ARM.Collect$$rtentry$$0000000A
                                    0x000001ee   Lc    1  Sect  De   0x4
    715  .ARM.Collect$$rtentry$$0000000C
                                    0x000001f2   Lc    1  Sect  De 
    716  .ARM.Collect$$rtentry$$0000000D
                                    0x000001f2   Lc    1  Sect  De   0x8
    717  ../clib/angel/kernel.s     0x00000000   Lc  Abs  File  De 
    718  .ARM.Collect$$rtentry$$00000004
                                    0x000001e8   Lc    1  Sect  De   0x6
    719  ../clib/angel/rt.s         0x00000000   Lc  Abs  File  De 
    720  ../clib/angel/rt.s         0x00000000   Lc  Abs  File  De 
    721  .text                      0x00000cc0   Lc    1  Sect  De   0x8
    722  ../clib/longlong.s         0x00000000   Lc  Abs  File  De 
    723  .text                      0x00000cc8   Lc    1  Sect  De   0x8a
    724  ../clib/printf.c           0x00000000   Lc  Abs  File  De 
    725  .text                      0x00000d54   Lc    1  Sect  De 
    726  ../clib/printf.c           0x00000000   Lc  Abs  File  De 
    727  ../clib/bigflt.c           0x00000000   Lc  Abs  File  De 
    728  .text                      0x00000dd4   Lc    1  Sect  De 
    729  .constdata                 0x000065c8   Lc    1  Sect  De   0x94
    730  tenpwrs_x                  0x000065c8   Lc    1  Data  De   0x3c
    731  tenpwrs_i                  0x00006604   Lc    1  Data  De   0x40
    732  ../clib/btod.s             0x00000000   Lc  Abs  File  De 
    733  CL$$btod_d2e               0x00000fb2   Lc    1  Sect  De   0x3e
    734  CL$$btod_d2e_norm_op1      0x00001036   Lc    1  Sect  De   0x60
    735  CL$$btod_d2e_denorm_low    0x00000ff0   Lc    1  Sect  De   0x46
    736  CL$$btod_emul              0x000014d4   Lc    1  Sect  De   0x2a
    737  CL$$btod_ediv              0x000014aa   Lc    1  Sect  De   0x2a
    738  CL$$btod_e2e               0x000013ce   Lc    1  Sect  De   0xdc
    739  CL$$btod_mult_common       0x000014fe   Lc    1  Sect  De   0x244
    740  CL$$btod_div_common        0x00001096   Lc    1  Sect  De   0x338
    741  ../clib/stdio.c            0x00000000   Lc  Abs  File  De 
    742  .text                      0x00000eb8   Lc    1  Sect  De 
    743  ../clib/stdio.c            0x00000000   Lc  Abs  File  De 
    744  ../clib/locale.s           0x00000000   Lc  Abs  File  De 
    745  locale$$data               0x0000669c   Lc    1  Sect  De   0x1c
    746  __lcnum_c_name             0x000066a0   Lc    1  Data  De   0x2
    747  __lcnum_c_start            0x000066a8   Lc    1  Data  De 
    748  __lcnum_c_point            0x000066b4   Lc    1  Data  De 
    749  __lcnum_c_thousands        0x000066b6   Lc    1  Data  De 
    750  __lcnum_c_grouping         0x000066b7   Lc    1  Data  De 
    751  __lcnum_c_end              0x000066b8   Lc    1  Data  De 
    752  locale$$code               0x00005428   Lc    1  Sect  De   0x2c
    753  ../fplib/istatus.s         0x00000000   Lc  Abs  File  De 
    754  ../fplib/retnan.s          0x00000000   Lc  Abs  File  De 
    755  x$fpl$retnan               0x00005a62   Lc    1  Sect  De   0x64
    756  ../mathlib/fpclassify.c    0x00000000   Lc  Abs  File  De 
    757  i.__ARM_fpclassify         0x00002b42   Lc    1  Sect  De 
    758  ../clib/angel/sys.s        0x00000000   Lc  Abs  File  De 
    759  .text                      0x00000ec0   Lc    1  Sect  De   0x8
    760  .bss                       0x200053f4   Lc    3  Sect  De   0x60
    761  ../clib/angel/sys.s        0x00000000   Lc  Abs  File  De 
    762  .text                      0x00000ec8   Lc    1  Sect  De   0x4a
    763  ../clib/stdlib.c           0x00000000   Lc  Abs  File  De 
    764  .text                      0x00000f12   Lc    1  Sect  De 
    765  ../clib/memcpset.s         0x00000000   Lc  Abs  File  De 
    766  .text                      0x00000f24   Lc    1  Sect  De   0x80
    767  ../clib/angel/boardlib.s   0x00000000   Lc  Abs  File  De 
    768  ../clib/angel/boardlib.s   0x00000000   Lc  Abs  File  De 
    769  ../clib/angel/boardlib.s   0x00000000   Lc  Abs  File  De 
    770  ../clib/libinit.s          0x00000000   Lc  Abs  File  De 
    771  .ARM.Collect$$libinit$$00000000
                                    0x000001d0   Lc    1  Sect  De   0x2
    772  ../clib/libinit.s          0x00000000   Lc  Abs  File  De 
    773  .ARM.Collect$$libinit$$00000002
                                    0x000001d2   Lc    1  Sect  De 
    774  .ARM.Collect$$libinit$$00000004
                                    0x000001d2   Lc    1  Sect  De 
    775  .ARM.Collect$$libinit$$0000000A
                                    0x000001d2   Lc    1  Sect  De 
    776  .ARM.Collect$$libinit$$0000000C
                                    0x000001d2   Lc    1  Sect  De 
    777  .ARM.Collect$$libinit$$0000000E
                                    0x000001d2   Lc    1  Sect  De 
    778  .ARM.Collect$$libinit$$0000000F
                                    0x000001d2   Lc    1  Sect  De   0x6
    779  .ARM.Collect$$libinit$$00000011
                                    0x000001d8   Lc    1  Sect  De 
    780  .ARM.Collect$$libinit$$00000013
                                    0x000001d8   Lc    1  Sect  De 
    781  .ARM.Collect$$libinit$$00000015
                                    0x000001d8   Lc    1  Sect  De 
    782  .ARM.Collect$$libinit$$00000016
                                    0x000001d8   Lc    1  Sect  De   0xa
    783  .ARM.Collect$$libinit$$00000017
                                    0x000001e2   Lc    1  Sect  De 
    784  .ARM.Collect$$libinit$$00000019
                                    0x000001e2   Lc    1  Sect  De 
    785  .ARM.Collect$$libinit$$0000001B
                                    0x000001e2   Lc    1  Sect  De 
    786  .ARM.Collect$$libinit$$0000001D
                                    0x000001e2   Lc    1  Sect  De 
    787  .ARM.Collect$$libinit$$0000001F
                                    0x000001e2   Lc    1  Sect  De 
    788  .ARM.Collect$$libinit$$00000021
                                    0x000001e2   Lc    1  Sect  De 
    789  .ARM.Collect$$libinit$$00000023
                                    0x000001e2   Lc    1  Sect  De 
    790  .ARM.Collect$$libinit$$00000025
                                    0x000001e2   Lc    1  Sect  De 
    791  .ARM.Collect$$libinit$$0000002C
                                    0x000001e2   Lc    1  Sect  De 
    792  .ARM.Collect$$libinit$$0000002E
                                    0x000001e2   Lc    1  Sect  De 
    793  .ARM.Collect$$libinit$$00000030
                                    0x000001e2   Lc    1  Sect  De 
    794  .ARM.Collect$$libinit$$00000032
                                    0x000001e2   Lc    1  Sect  De 
    795  .ARM.Collect$$libinit$$00000033
                                    0x000001e2   Lc    1  Sect  De   0x2
    796  ../fplib/trapv.s           0x00000000   Lc  Abs  File  De 
    797  x$fpl$trapveneer           0x00005b12   Lc    1  Sect  De   0x30
    798  ../clib/angel/kernel.s     0x00000000   Lc  Abs  File  De 
    799  .ARM.Collect$$rtexit$$00000000
                                    0x000001fa   Lc    1  Sect  De   0x2
    800  ../clib/armsys.c           0x00000000   Lc  Abs  File  De 
    801  ../clib/armsys.c           0x00000000   Lc  Abs  File  De 
    802  ../fplib/fpinit.s          0x00000000   Lc  Abs  File  De 
    803  ../clib/angel/kernel.s     0x00000000   Lc  Abs  File  De 
    804  .ARM.Collect$$rtexit$$00000002
                                    0x000001fc   Lc    1  Sect  De 
    805  .ARM.Collect$$rtexit$$00000003
                                    0x000001fc   Lc    1  Sect  De   0x4
    806  .ARM.Collect$$rtexit$$00000004
                                    0x00000200   Lc    1  Sect  De   0x6
    807  ../clib/armsys.c           0x00000000   Lc  Abs  File  De 
    808  ../clib/armsys.c           0x00000000   Lc  Abs  File  De 
    809  ../clib/angel/sysapp.c     0x00000000   Lc  Abs  File  De 
    810  ../clib/angel/sysapp.c     0x00000000   Lc  Abs  File  De 
    811  .text                      0x00000fa4   Lc    1  Sect  De 
    812  ../clib/heapalloc.c        0x00000000   Lc  Abs  File  De 
    813  ../clib/signal.c           0x00000000   Lc  Abs  File  De 
    814  ../clib/signal.c           0x00000000   Lc  Abs  File  De 
    815  ../clib/angel/boardlib.s   0x00000000   Lc  Abs  File  De 
    816  ../clib/libinit.s          0x00000000   Lc  Abs  File  De 
    817  .ARM.Collect$$libshutdown$$00000000
                                    0x000001e4   Lc    1  Sect  De   0x2
    818  ../clib/angel/sys.s        0x00000000   Lc  Abs  File  De 
    819  .text                      0x00000fb0   Lc    1  Sect  De   0x2
    820  ../clib/angel/sys.s        0x00000000   Lc  Abs  File  De 
    821  .text                      0x00000fb2   Lc    1  Sect  De 
    822  ../clib/angel/rt.s         0x00000000   Lc  Abs  File  De 
    823  ../clib/signal.c           0x00000000   Lc  Abs  File  De 
    824  ../clib/signal.c           0x00000000   Lc  Abs  File  De 
    825  ../clib/libinit.s          0x00000000   Lc  Abs  File  De 
    826  .ARM.Collect$$libshutdown$$00000002
                                    0x000001e6   Lc    1  Sect  De 
    827  .ARM.Collect$$libshutdown$$00000004
                                    0x000001e6   Lc    1  Sect  De 
    828  .ARM.Collect$$libshutdown$$00000006
                                    0x000001e6   Lc    1  Sect  De 
    829  .ARM.Collect$$libshutdown$$00000009
                                    0x000001e6   Lc    1  Sect  De 
    830  .ARM.Collect$$libshutdown$$0000000C
                                    0x000001e6   Lc    1  Sect  De 
    831  .ARM.Collect$$libshutdown$$0000000E
                                    0x000001e6   Lc    1  Sect  De 
    832  .ARM.Collect$$libshutdown$$00000011
                                    0x000001e6   Lc    1  Sect  De 
    833  .ARM.Collect$$libshutdown$$00000012
                                    0x000001e6   Lc    1  Sect  De   0x2
    834  ../clib/signal.c           0x00000000   Lc  Abs  File  De 
    835  ../clib/signal.c           0x00000000   Lc  Abs  File  De 
    836  ../clib/angel/sysapp.c     0x00000000   Lc  Abs  File  De 
    837  ../clib/signal.s           0x00000000   Lc  Abs  File  De 
    838  ../clib/signal.c           0x00000000   Lc  Abs  File  De 
    839  ../clib/signal.c           0x00000000   Lc  Abs  File  De 
    840  ../clib/signal.c           0x00000000   Lc  Abs  File  De 
    841  ../clib/signal.c           0x00000000   Lc  Abs  File  De 
    842  ../clib/signal.c           0x00000000   Lc  Abs  File  De 
    843  ../clib/signal.c           0x00000000   Lc  Abs  File  De 
    844  ../clib/signal.c           0x00000000   Lc  Abs  File  De 
    845  ../clib/signal.c           0x00000000   Lc  Abs  File  De 
    846  ../clib/angel/scatter.s    0x00000000   Lc  Abs  File  De 
    847  !!!scatter                 0x00000148   Lc    1  Sect  De   0x34
    848  ../clib/angel/handlers.s   0x00000000   Lc  Abs  File  De 
    849  !!handler_copy             0x0000017c   Lc    1  Sect  De   0x1a
    850  ../clib/angel/handlers.s   0x00000000   Lc  Abs  File  De 
    851  !!handler_zi               0x00000198   Lc    1  Sect  De   0x1c
    852  BuildAttributes$$THM_ISAv4$P$D$K$B$S$PE$A:L22UL41UL21$X:L11$S22US41US21$IEEE1$IW$USESV6$~STKCKD$USESV7$~SHL$OTIME$ROPI$IEEEJ$EBA8$UX$STANDARDLIB$REQ8$PRES8$EABIv2
                                    0x00000000   Gb  Abs   --   Hi 
    853  __ARM_use_no_argv          0x00000000   Gb  Abs   --   Hi 
    854  __Vectors                  0x00000000   Gb    1  Data  Hi   0x4
    855  _printf_flags              0x00000000   Gb  Abs   --   Hi 
    856  _printf_return_value       0x00000000   Gb  Abs   --   De 
    857  _printf_sizespec           0x00000000   Gb  Abs   --   De 
    858  _printf_widthprec          0x00000000   Gb  Abs   --   Hi 
    859  __Vectors_End              0x00000140   Gb    1  Data  Hi 
    860  __Vectors_Size             0x00000140   Gb  Abs   --   Hi 
    861  __main                     0x00000141   Gb    1  Code  Hi   0x8
    862  __scatterload              0x00000149   Gb    1  Code  Hi 
    863  __scatterload_rt2          0x00000149   Gb    1  Code  Hi   0x2c
    864  __scatterload_rt2_thumb_only
                                    0x00000149   Gb    1  Code  Hi 
    865  __scatterload_null         0x00000157   Gb    1  Code  Hi 
    866  __scatterload_copy         0x0000017d   Gb    1  Code  Hi   0x1a
    867  __scatterload_zeroinit     0x00000199   Gb    1  Code  Hi   0x1c
    868  _printf_f                  0x000001b5   Gb    1  Code  Hi 
    869  _printf_percent            0x000001b5   Gb    1  Code  Hi 
    870  _printf_d                  0x000001bb   Gb    1  Code  Hi 
    871  _printf_x                  0x000001c1   Gb    1  Code  Hi 
    872  _printf_s                  0x000001c7   Gb    1  Code  Hi 
    873  _printf_percent_end        0x000001cd   Gb    1  Code  De 
    874  __rt_lib_init              0x000001d1   Gb    1  Code  De 
    875  __rt_lib_init_fp_1         0x000001d3   Gb    1  Code  Hi 
    876  __rt_lib_init_heap_1       0x000001d3   Gb    1  Code  Hi 
    877  __rt_lib_init_lc_common    0x000001d3   Gb    1  Code  Hi 
    878  __rt_lib_init_preinit_1    0x000001d3   Gb    1  Code  Hi 
    879  __rt_lib_init_rand_1       0x000001d3   Gb    1  Code  Hi 
    880  __rt_lib_init_user_alloc_1 0x000001d3   Gb    1  Code  Hi 
    881  __rt_lib_init_lc_collate_1 0x000001d9   Gb    1  Code  Hi 
    882  __rt_lib_init_lc_ctype_1   0x000001d9   Gb    1  Code  Hi 
    883  __rt_lib_init_lc_monetary_1
                                    0x000001d9   Gb    1  Code  Hi 
    884  __rt_lib_init_lc_numeric_2 0x000001d9   Gb    1  Code  Hi 
    885  __rt_lib_init_alloca_1     0x000001e3   Gb    1  Code  Hi 
    886  __rt_lib_init_argv_1       0x000001e3   Gb    1  Code  Hi 
    887  __rt_lib_init_atexit_1     0x000001e3   Gb    1  Code  Hi 
    888  __rt_lib_init_clock_1      0x000001e3   Gb    1  Code  Hi 
    889  __rt_lib_init_cpp_1        0x000001e3   Gb    1  Code  Hi 
    890  __rt_lib_init_exceptions_1 0x000001e3   Gb    1  Code  Hi 
    891  __rt_lib_init_fp_trap_1    0x000001e3   Gb    1  Code  Hi 
    892  __rt_lib_init_getenv_1     0x000001e3   Gb    1  Code  Hi 
    893  __rt_lib_init_lc_numeric_1 0x000001e3   Gb    1  Code  Hi 
    894  __rt_lib_init_lc_time_1    0x000001e3   Gb    1  Code  Hi 
    895  __rt_lib_init_return       0x000001e3   Gb    1  Code  Hi 
    896  __rt_lib_init_signal_1     0x000001e3   Gb    1  Code  Hi 
    897  __rt_lib_init_stdio_1      0x000001e3   Gb    1  Code  Hi 
    898  __rt_lib_shutdown          0x000001e5   Gb    1  Code  De 
    899  __rt_lib_shutdown_cpp_1    0x000001e7   Gb    1  Code  Hi 
    900  __rt_lib_shutdown_fini_1   0x000001e7   Gb    1  Code  Hi 
    901  __rt_lib_shutdown_fp_trap_1
                                    0x000001e7   Gb    1  Code  Hi 
    902  __rt_lib_shutdown_heap_1   0x000001e7   Gb    1  Code  Hi 
    903  __rt_lib_shutdown_return   0x000001e7   Gb    1  Code  Hi 
    904  __rt_lib_shutdown_signal_1 0x000001e7   Gb    1  Code  Hi 
    905  __rt_lib_shutdown_stdio_1  0x000001e7   Gb    1  Code  Hi 
    906  __rt_lib_shutdown_user_alloc_1
                                    0x000001e7   Gb    1  Code  Hi 
    907  __rt_entry                 0x000001e9   Gb    1  Code  Hi 
    908  __rt_entry_presh_1         0x000001e9   Gb    1  Code  Hi 
    909  __rt_entry_sh              0x000001e9   Gb    1  Code  Hi 
    910  __rt_entry_li              0x000001ef   Gb    1  Code  Hi 
    911  __rt_entry_postsh_1        0x000001ef   Gb    1  Code  Hi 
    912  __rt_entry_main            0x000001f3   Gb    1  Code  Hi 
    913  __rt_entry_postli_1        0x000001f3   Gb    1  Code  Hi 
    914  __rt_exit                  0x000001fb   Gb    1  Code  De 
    915  __rt_exit_ls               0x000001fd   Gb    1  Code  Hi 
    916  __rt_exit_prels_1          0x000001fd   Gb    1  Code  Hi 
    917  __rt_exit_exit             0x00000201   Gb    1  Code  Hi 
    918  SVC_Handler                0x00000209   Gb    1  Code  Hi   0x20
    919  __asm___6_port_c_39a90d8d__prvStartFirstTask
                                    0x0000022d   Gb    1  Code  Hi   0x1c
    920  PendSV_Handler             0x0000024d   Gb    1  Code  Hi   0x48
    921  vPortGetIPSR               0x00000299   Gb    1  Code  Hi   0x6
    922  SysCtlDelay                0x000002a1   Gb    1  Code  Hi   0x6
    923  Reset_Handler              0x000002a9   Wk    1  Code  Hi   0x8
    924  NMI_Handler                0x000002b1   Wk    1  Code  Hi   0x2
    925  HardFault_Handler          0x000002b3   Wk    1  Code  Hi   0x2
    926  MemManage_Handler          0x000002b5   Wk    1  Code  Hi   0x2
    927  BusFault_Handler           0x000002b7   Wk    1  Code  Hi   0x2
    928  UsageFault_Handler         0x000002b9   Wk    1  Code  Hi   0x2
    929  DebugMon_Handler           0x000002bd   Wk    1  Code  Hi   0x2
    930  ADC_Handler                0x000002c3   Wk    1  Code  Hi 
    931  DMACINTERR_Handler         0x000002c3   Wk    1  Code  Hi 
    932  DMACINTR_Handler           0x000002c3   Wk    1  Code  Hi 
    933  DMACINTTC_Handler          0x000002c3   Wk    1  Code  Hi 
    934  DUALTIMER_HANDLER          0x000002c3   Wk    1  Code  Hi 
    935  EXT0_Handler               0x000002c3   Wk    1  Code  Hi 
    936  EXT10_Handler              0x000002c3   Wk    1  Code  Hi 
    937  EXT11_Handler              0x000002c3   Wk    1  Code  Hi 
    938  EXT12_Handler              0x000002c3   Wk    1  Code  Hi 
    939  EXT13_Handler              0x000002c3   Wk    1  Code  Hi 
    940  EXT14_Handler              0x000002c3   Wk    1  Code  Hi 
    941  EXT15_Handler              0x000002c3   Wk    1  Code  Hi 
    942  EXT1_Handler               0x000002c3   Wk    1  Code  Hi 
    943  EXT2_Handler               0x000002c3   Wk    1  Code  Hi 
    944  EXT3_Handler               0x000002c3   Wk    1  Code  Hi 
    945  EXT4_Handler               0x000002c3   Wk    1  Code  Hi 
    946  EXT5_Handler               0x000002c3   Wk    1  Code  Hi 
    947  EXT6_Handler               0x000002c3   Wk    1  Code  Hi 
    948  EXT7_Handler               0x000002c3   Wk    1  Code  Hi 
    949  EXT8_Handler               0x000002c3   Wk    1  Code  Hi 
    950  EXT9_Handler               0x000002c3   Wk    1  Code  Hi 
    951  I2C_Handler                0x000002c3   Wk    1  Code  Hi 
    952  MPS2_SSP0_Handler          0x000002c3   Wk    1  Code  Hi 
    953  MPS2_SSP1_Handler          0x000002c3   Wk    1  Code  Hi 
    954  PORT0_0_Handler            0x000002c3   Wk    1  Code  Hi 
    955  PORT0_10_Handler           0x000002c3   Wk    1  Code  Hi 
    956  PORT0_11_Handler           0x000002c3   Wk    1  Code  Hi 
    957  PORT0_12_Handler           0x000002c3   Wk    1  Code  Hi 
    958  PORT0_13_Handler           0x000002c3   Wk    1  Code  Hi 
    959  PORT0_14_Handler           0x000002c3   Wk    1  Code  Hi 
    960  PORT0_15_Handler           0x000002c3   Wk    1  Code  Hi 
    961  PORT0_16_Handler           0x000002c3   Wk    1  Code  Hi 
    962  PORT0_17_Handler           0x000002c3   Wk    1  Code  Hi 
    963  PORT0_18_Handler           0x000002c3   Wk    1  Code  Hi 
    964  PORT0_19_Handler           0x000002c3   Wk    1  Code  Hi 
    965  PORT0_1_Handler            0x000002c3   Wk    1  Code  Hi 
    966  PORT0_20_Handler           0x000002c3   Wk    1  Code  Hi 
    967  PORT0_21_Handler           0x000002c3   Wk    1  Code  Hi 
    968  PORT0_22_Handler           0x000002c3   Wk    1  Code  Hi 
    969  PORT0_23_Handler           0x000002c3   Wk    1  Code  Hi 
    970  PORT0_24_Handler           0x000002c3   Wk    1  Code  Hi 
    971  PORT0_25_Handler           0x000002c3   Wk    1  Code  Hi 
    972  PORT0_26_Handler           0x000002c3   Wk    1  Code  Hi 
    973  PORT0_27_Handler           0x000002c3   Wk    1  Code  Hi 
    974  PORT0_28_Handler           0x000002c3   Wk    1  Code  Hi 
    975  PORT0_29_Handler           0x000002c3   Wk    1  Code  Hi 
    976  PORT0_2_Handler            0x000002c3   Wk    1  Code  Hi 
    977  PORT0_30_Handler           0x000002c3   Wk    1  Code  Hi 
    978  PORT0_31_Handler           0x000002c3   Wk    1  Code  Hi 
    979  PORT0_3_Handler            0x000002c3   Wk    1  Code  Hi 
    980  PORT0_4_Handler            0x000002c3   Wk    1  Code  Hi 
    981  PORT0_5_Handler            0x000002c3   Wk    1  Code  Hi 
    982  PORT0_6_Handler            0x000002c3   Wk    1  Code  Hi 
    983  PORT0_7_Handler            0x000002c3   Wk    1  Code  Hi 
    984  PORT0_8_Handler            0x000002c3   Wk    1  Code  Hi 
    985  PORT0_9_Handler            0x000002c3   Wk    1  Code  Hi 
    986  PORT0_COMB_Handler         0x000002c3   Wk    1  Code  Hi 
    987  Spare11_Handler            0x000002c3   Wk    1  Code  Hi 
    988  Spare13_Handler            0x000002c3   Wk    1  Code  Hi 
    989  Spare14_Handler            0x000002c3   Wk    1  Code  Hi 
    990  Spare15_Handler            0x000002c3   Wk    1  Code  Hi 
    991  Spare51_Handler            0x000002c3   Wk    1  Code  Hi 
    992  Spare52_Handler            0x000002c3   Wk    1  Code  Hi 
    993  Spare53_Handler            0x000002c3   Wk    1  Code  Hi 
    994  Spare54_Handler            0x000002c3   Wk    1  Code  Hi 
    995  Spare55_Handler            0x000002c3   Wk    1  Code  Hi 
    996  Spare56_Handler            0x000002c3   Wk    1  Code  Hi 
    997  Spare57_Handler            0x000002c3   Wk    1  Code  Hi 
    998  Spare58_Handler            0x000002c3   Wk    1  Code  Hi 
    999  Spare59_Handler            0x000002c3   Wk    1  Code  Hi 
    1000  Spare60_Handler            0x000002c3   Wk    1  Code  Hi 
    1001  Spare61_Handler            0x000002c3   Wk    1  Code  Hi 
    1002  Spare62_Handler            0x000002c3   Wk    1  Code  Hi 
    1003  Spare63_Handler            0x000002c3   Wk    1  Code  Hi 
    1004  Spare7_Handler             0x000002c3   Wk    1  Code  Hi 
    1005  TIMER0_Handler             0x000002c3   Wk    1  Code  Hi 
    1006  TIMER1_Handler             0x000002c3   Wk    1  Code  Hi 
    1007  UART1_Handler              0x000002c3   Wk    1  Code  Hi 
    1008  UARTOVF_Handler            0x000002c3   Wk    1  Code  Hi 
    1009  __user_initial_stackheap   0x000002c5   Gb    1  Code  Hi   0xa
    1010  __2printf                  0x000002e5   Gb    1  Code  Hi   0x14
    1011  __2sprintf                 0x000002fd   Gb    1  Code  Hi   0x22
    1012  _printf_pre_padding        0x00000325   Gb    1  Code  Hi   0x2c
    1013  _printf_post_padding       0x00000351   Gb    1  Code  De   0x22
    1014  _printf_str                0x00000373   Gb    1  Code  Hi   0x52
    1015  _printf_int_dec            0x000003c5   Gb    1  Code  Hi   0x68
    1016  _printf_int_hex            0x0000043d   Gb    1  Code  De   0x54
    1017  _printf_longlong_hex       0x0000043d   Gb    1  Code  Hi 
    1018  __printf                   0x00000495   Gb    1  Code  De   0x134
    1019  __aeabi_memcpy             0x000005cd   Gb    1  Code  Hi 
    1020  __rt_memcpy                0x000005cd   Gb    1  Code  De   0x8a
    1021  _memcpy_lastbytes          0x00000633   Gb    1  Code  De 
    1022  __aeabi_memset             0x00000657   Gb    1  Code  Hi   0x10
    1023  __aeabi_memclr             0x00000667   Gb    1  Code  Hi 
    1024  __rt_memclr                0x00000667   Gb    1  Code  De   0x44
    1025  _memset                    0x0000066b   Gb    1  Code  De 
    1026  __aeabi_memclr4            0x000006ab   Gb    1  Code  Hi 
    1027  __aeabi_memclr8            0x000006ab   Gb    1  Code  De 
    1028  __rt_memclr_w              0x000006ab   Gb    1  Code  De   0x4e
    1029  _memset_w                  0x000006af   Gb    1  Code  De 
    1030  __use_two_region_memory    0x000006f9   Gb    1  Code  Hi   0x2
    1031  __rt_heap_escrow$2region   0x000006fb   Gb    1  Code  De   0x2
    1032  __rt_heap_expand$2region   0x000006fd   Gb    1  Code  De   0x2
    1033  _printf_int_common         0x000006ff   Gb    1  Code  De   0xb2
    1034  __lib_sel_fp_printf        0x000007b1   Gb    1  Code  Hi   0x2
    1035  _printf_fp_dec_real        0x00000963   Gb    1  Code  De   0x26c
    1036  _printf_char_common        0x00000bdb   Gb    1  Code  De   0x20
    1037  _sputc                     0x00000c01   Gb    1  Code  De   0xa
    1038  _printf_cs_common          0x00000c0b   Gb    1  Code  Hi   0x14
    1039  _printf_char               0x00000c1f   Gb    1  Code  De   0x10
    1040  _printf_string             0x00000c2f   Gb    1  Code  De   0x8
    1041  _printf_char_file          0x00000c39   Gb    1  Code  De   0x20
    1042  __aeabi_memcpy4            0x00000c5d   Gb    1  Code  De 
    1043  __aeabi_memcpy8            0x00000c5d   Gb    1  Code  De 
    1044  __rt_memcpy_w              0x00000c5d   Gb    1  Code  De   0x64
    1045  _memcpy_lastbytes_aligned  0x00000ca5   Gb    1  Code  De 
    1046  __rt_locale                0x00000cc1   Gb    1  Code  De   0x8
    1047  _ll_udiv10                 0x00000cc9   Gb    1  Code  De   0x8a
    1048  _printf_fp_infnan          0x00000d55   Gb    1  Code  De   0x70
    1049  _btod_etento               0x00000dd5   Gb    1  Code  De   0xe0
    1050  ferror                     0x00000eb9   Gb    1  Code  De   0x8
    1051  __user_libspace            0x00000ec1   Wk    1  Code  De   0x8
    1052  __user_perproc_libspace    0x00000ec1   Wk    1  Code  De 
    1053  __user_perthread_libspace  0x00000ec1   Wk    1  Code  De 
    1054  __user_setup_stackheap     0x00000ec9   Gb    1  Code  De   0x4a
    1055  exit                       0x00000f13   Gb    1  Code  De   0x12
    1056  strcmp                     0x00000f25   Gb    1  Code  De   0x80
    1057  _sys_exit                  0x00000fa5   Gb    1  Code  De   0x8
    1058  __I$use$semihosting        0x00000fb1   Gb    1  Code  Hi 
    1059  __use_no_semihosting_swi   0x00000fb1   Gb    1  Code  Hi   0x2
    1060  __semihosting_library_function
                                    0x00000fb3   Gb    1  Code  Hi 
    1061  _btod_d2e                  0x00000fb3   Gb    1  Code  De   0x3e
    1062  _d2e_denorm_low            0x00000ff1   Gb    1  Code  De   0x46
    1063  _d2e_norm_op1              0x00001037   Gb    1  Code  De   0x60
    1064  __btod_div_common          0x00001097   Gb    1  Code  De   0x2b8
    1065  _e2e                       0x000013cf   Gb    1  Code  De   0xdc
    1066  _btod_ediv                 0x000014ab   Gb    1  Code  De   0x2a
    1067  _btod_emul                 0x000014d5   Gb    1  Code  De   0x2a
    1068  __btod_mult_common         0x000014ff   Gb    1  Code  De   0x244
    1069  BME280_Configuration       0x00001743   Gb    1  Code  Hi   0x84
    1070  BME280_Get_ALL             0x000017c9   Gb    1  Code  Hi   0x1b0
    1071  BME280_Get_DIG             0x00001981   Gb    1  Code  Hi   0x86
    1072  BME280_ID                  0x00001a07   Gb    1  Code  Hi   0x14
    1073  BME280_Init                0x00001a1d   Gb    1  Code  Hi   0x74
    1074  BME280_Reset               0x00001b91   Gb    1  Code  Hi   0x12
    1075  DELAY_TICK                 0x00001c39   Gb    1  Code  Hi   0x12
    1076  GPIO_DeInit                0x00001c4d   Gb    1  Code  Hi   0xe
    1077  GPIO_PinRemapConfig        0x00001c61   Gb    1  Code  Hi   0xa
    1078  GPIO_ReadInputData         0x00001c6b   Gb    1  Code  Hi   0x14
    1079  GPIO_ResetBit              0x00001c81   Gb    1  Code  Hi   0x68
    1080  GPIO_SetBit                0x00001ced   Gb    1  Code  Hi   0x68
    1081  GT911_Scan                 0x00001d59   Gb    1  Code  Hi   0x78
    1082  GT911_init                 0x00001dd5   Gb    1  Code  Hi   0x7e
    1083  GT9XX_ReadData             0x00001ea9   Gb    1  Code  Hi   0xe4
    1084  GT9XX_WriteData            0x00001f91   Gb    1  Code  Hi   0x7e
    1085  LCD_Clear                  0x00002015   Gb    1  Code  Hi   0x2a
    1086  LCD_DrawPoint_color        0x0000203f   Gb    1  Code  Hi   0x1a
    1087  LCD_Init                   0x00002059   Gb    1  Code  Hi   0x180
    1088  LCD_Scan_Dir               0x000021f7   Gb    1  Code  Hi   0x44
    1089  LCD_Set_Window             0x0000223b   Gb    1  Code  Hi   0x30
    1090  LCD_ShowChar               0x0000226d   Gb    1  Code  Hi   0xb4
    1091  LCD_ShowString             0x00002329   Gb    1  Code  Hi   0x4c
    1092  LCD_fill                   0x00002375   Gb    1  Code  Hi   0x26
    1093  NVIC_Init                  0x0000239d   Gb    1  Code  Hi   0x5e
    1094  RCC_APB1PeriphResetCmd     0x00002401   Gb    1  Code  Hi   0x12
    1095  SCD_Rev1Byte               0x000024fd   Gb    1  Code  Hi   0x7a
    1096  SysTick_Handler            0x00002aa9   Gb    1  Code  Hi   0x26
    1097  SystemInit                 0x00002ad5   Gb    1  Code  Hi   0x8
    1098  UART0_Handler              0x00002ae5   Gb    1  Code  Hi   0x20
    1099  UART_ITCLEAR               0x00002b09   Gb    1  Code  Hi   0x8
    1100  UART_Init                  0x00002b11   Gb    1  Code  Hi   0x12
    1101  UART_ReceiveData           0x00002b29   Gb    1  Code  Hi   0xc
    1102  UartPutc                   0x00002b35   Gb    1  Code  Hi   0xe
    1103  __ARM_fpclassify           0x00002b43   Gb    1  Code  De   0x28
    1104  _is_digit                  0x00002cf1   Gb    1  Code  De   0xe
    1105  bme280RefreshTask          0x00002dad   Gb    1  Code  Hi   0xf4
    1106  delay_ms                   0x00002f21   Gb    1  Code  Hi   0x12
    1107  epwm_ahb_init              0x00002f39   Gb    1  Code  Hi   0x2a
    1108  fputc                      0x00002f6d   Gb    1  Code  Hi   0x6
    1109  img_init                   0x00002fb9   Gb    1  Code  Hi   0xd8
    1110  ledRefreshTask             0x000030ad   Gb    1  Code  Hi   0x138
    1111  main                       0x00003205   Gb    1  Code  Hi   0x8e
    1112  mem_addr16b_test           0x000032f1   Gb    1  Code  Hi   0x10c
    1113  nvicInit                   0x000033fd   Gb    1  Code  Hi   0x36
    1114  pvPortMalloc               0x00003c51   Gb    1  Code  Hi   0x132
    1115  pvTaskIncrementMutexHeldCount
                                    0x00003d91   Gb    1  Code  Hi   0x10
    1116  pxPortInitialiseStack      0x00003da5   Gb    1  Code  Hi   0x20
    1117  read_i2c                   0x00003dc9   Gb    1  Code  Hi   0x7a
    1118  read_i2c2                  0x00003e49   Gb    1  Code  Hi   0x78
    1119  scd_init_1                 0x00003ec5   Gb    1  Code  Hi   0x54
    1120  scd_send1Byte              0x00003f25   Gb    1  Code  Hi   0x38
    1121  start_i2c                  0x00003f61   Gb    1  Code  Hi   0x44
    1122  start_i2c2                 0x00003fa9   Gb    1  Code  Hi   0x44
    1123  stop_i2c                   0x00003ff1   Gb    1  Code  Hi   0x38
    1124  stop_i2c2                  0x0000402d   Gb    1  Code  Hi   0x38
    1125  swi2c_init                 0x00004069   Gb    1  Code  Hi   0x38
    1126  swi2c_init2                0x000040ad   Gb    1  Code  Hi   0x3a
    1127  touchRefreshTask           0x000040f5   Gb    1  Code  Hi   0xb2
    1128  uart0_init                 0x0000422d   Gb    1  Code  Hi   0x38
    1129  uart_ahb_init              0x00004269   Gb    1  Code  Hi   0x1c
    1130  uxListRemove               0x0000428d   Gb    1  Code  Hi   0x24
    1131  uxTaskGetNumberOfTasks     0x000042b1   Gb    1  Code  Hi   0x6
    1132  vListInitialise            0x000042bd   Gb    1  Code  Hi   0x1a
    1133  vListInitialiseItem        0x000042d7   Gb    1  Code  Hi   0x6
    1134  vListInsert                0x000042dd   Gb    1  Code  Hi   0x30
    1135  vPortEnterCritical         0x0000430d   Gb    1  Code  Hi   0x36
    1136  vPortExitCritical          0x0000434d   Gb    1  Code  Hi   0x22
    1137  vPortFree                  0x00004375   Gb    1  Code  Hi   0x7a
    1138  vPortSetupTimerInterrupt   0x000043fd   Wk    1  Code  Hi   0x14
    1139  vQueueWaitForMessageRestricted
                                    0x00004415   Gb    1  Code  Hi   0x44
    1140  vTaskDelay                 0x00004459   Gb    1  Code  Hi   0x44
    1141  vTaskInternalSetTimeOutState
                                    0x000044a5   Gb    1  Code  Hi   0xc
    1142  vTaskMissedYield           0x000044b5   Gb    1  Code  Hi   0x8
    1143  vTaskPlaceOnEventList      0x000044c1   Gb    1  Code  Hi   0x2c
    1144  vTaskPlaceOnEventListRestricted
                                    0x000044f1   Gb    1  Code  Hi   0x4c
    1145  vTaskPriorityDisinheritAfterTimeout
                                    0x00004541   Gb    1  Code  Hi   0xba
    1146  vTaskStartScheduler        0x00004605   Gb    1  Code  Hi   0x82
    1147  vTaskSuspendAll            0x00004699   Gb    1  Code  Hi   0xa
    1148  vTaskSwitchContext         0x000046a9   Gb    1  Code  Hi   0x58
    1149  write_i2c                  0x00004709   Gb    1  Code  Hi   0x7e
    1150  write_i2c2                 0x0000478d   Gb    1  Code  Hi   0x7c
    1151  xPortStartScheduler        0x0000480d   Gb    1  Code  Hi   0xa6
    1152  xQueueCreateMutex          0x000048c1   Gb    1  Code  Hi   0x24
    1153  xQueueGenericCreate        0x000048e5   Gb    1  Code  Hi   0x58
    1154  xQueueGenericReset         0x0000493d   Gb    1  Code  Hi   0xaa
    1155  xQueueGenericSend          0x000049ed   Gb    1  Code  Hi   0x172
    1156  xQueueReceive              0x00004b65   Gb    1  Code  Hi   0x134
    1157  xQueueSemaphoreTake        0x00004c9d   Gb    1  Code  Hi   0x164
    1158  xTaskCheckForTimeOut       0x00004e05   Gb    1  Code  Hi   0x88
    1159  xTaskCreate                0x00004e91   Gb    1  Code  Hi   0x64
    1160  xTaskGetSchedulerState     0x00004ef5   Gb    1  Code  Hi   0x16
    1161  xTaskGetTickCount          0x00004f11   Gb    1  Code  Hi   0x6
    1162  xTaskIncrementTick         0x00004f1d   Gb    1  Code  Hi   0x122
    1163  xTaskPriorityDisinherit    0x00005049   Gb    1  Code  Hi   0xae
    1164  xTaskPriorityInherit       0x00005101   Gb    1  Code  Hi   0xaa
    1165  xTaskRemoveFromEventList   0x000051b5   Gb    1  Code  Hi   0xd4
    1166  xTaskResumeAll             0x00005295   Gb    1  Code  Hi   0x13a
    1167  xTimerCreateTimerTask      0x000053e1   Gb    1  Code  Hi   0x38
    1168  _get_lc_numeric            0x00005429   Gb    1  Code  Hi   0x2c
    1169  __fpl_dretinf              0x00005455   Gb    1  Code  De   0xc
    1170  __aeabi_f2d                0x00005461   Gb    1  Code  Hi 
    1171  _f2d                       0x00005461   Gb    1  Code  De   0x56
    1172  __aeabi_fadd               0x000054b9   Gb    1  Code  Hi 
    1173  _fadd                      0x000054b9   Gb    1  Code  De   0xc4
    1174  __fpl_fcheck_NaN1          0x0000557d   Gb    1  Code  Hi   0x6
    1175  __aeabi_fdiv               0x00005589   Gb    1  Code  Hi 
    1176  _fdiv                      0x00005589   Gb    1  Code  De   0x180
    1177  __aeabi_f2iz               0x0000570d   Gb    1  Code  Hi 
    1178  _ffix                      0x0000570d   Gb    1  Code  De   0x36
    1179  __aeabi_f2uiz              0x00005745   Gb    1  Code  Hi 
    1180  _ffixu                     0x00005745   Gb    1  Code  De   0x3e
    1181  __aeabi_i2f                0x00005785   Gb    1  Code  Hi 
    1182  _fflt                      0x00005785   Gb    1  Code  De   0x30
    1183  __aeabi_ui2f               0x000057b5   Gb    1  Code  Hi 
    1184  _ffltu                     0x000057b5   Gb    1  Code  De   0x26
    1185  __aeabi_fmul               0x000057dd   Gb    1  Code  Hi 
    1186  _fmul                      0x000057dd   Gb    1  Code  De   0x102
    1187  __fpl_fnaninf              0x000058df   Gb    1  Code  De   0x8c
    1188  __fpl_fretinf              0x0000596b   Gb    1  Code  De   0xa
    1189  __aeabi_fsub               0x00005975   Gb    1  Code  Hi 
    1190  _fsub                      0x00005975   Gb    1  Code  De   0xea
    1191  _printf_fp_dec             0x00005a5f   Gb    1  Code  Hi   0x4
    1192  __fpl_return_NaN           0x00005a63   Gb    1  Code  Hi   0x64
    1193  __ARM_scalbnf              0x00005ac7   Gb    1  Code  Hi   0x4c
    1194  __fpl_cmpreturn            0x00005b13   Gb    1  Code  Hi   0x30
    1195  __I$use$fp                 0x00005b42   Gb    1   --   Hi 
    1196  cz_ctype                   0x0000613c   Gb    1  Data  Hi   0x400
    1197  tyj_unit_struct_1          0x0000653c   Gb    1  Data  Hi   0x50
    1198  Region$$Table$$Base        0x0000667c   Gb    1   --   Hi 
    1199  Region$$Table$$Limit       0x0000669c   Gb    1   --   Hi 
    1200  SystemCoreClock            0x20000000   Gb    2  Data  Hi   0x4
    1201  __stdout                   0x20000004   Gb    2  Data  Hi   0x4
    1202  POINT_COLOR                0x20000008   Gb    2  Data  Hi   0x4
    1203  BACK_COLOR                 0x2000000c   Gb    2  Data  Hi   0x4
    1204  pxCurrentTCB               0x20000038   Gb    2  Data  Hi   0x4
    1205  ms_cnt                     0x2000008c   Gb    2  Data  Hi   0x4
    1206  pwmD                       0x20000090   Gb    2  Data  Hi   0x4
    1207  temp                       0x20000094   Gb    2  Data  Hi   0x4
    1208  hum                        0x20000098   Gb    2  Data  Hi   0x4
    1209  press                      0x2000009c   Gb    2  Data  Hi   0x4
    1210  TouchRefreshTask           0x200000a0   Gb    2  Data  Hi   0x4
    1211  BME280RefreshTask          0x200000a4   Gb    2  Data  Hi   0x4
    1212  LedRefreshTask             0x200000a8   Gb    2  Data  Hi   0x4
    1213  MuxSemLcd                  0x200000ac   Gb    2  Data  Hi   0x4
    1214  rwWay                      0x200000b0   Gb    2  Data  Hi   0x2
    1215  test1                      0x200000b2   Gb    2  Data  Hi   0x2
    1216  test2                      0x200000b4   Gb    2  Data  Hi   0x2
    1217  test3                      0x200000b6   Gb    2  Data  Hi   0x2
    1218  test4                      0x200000b8   Gb    2  Data  Hi   0x2
    1219  test1r                     0x200000ba   Gb    2  Data  Hi   0x2
    1220  test2r                     0x200000bc   Gb    2  Data  Hi   0x2
    1221  test3r                     0x200000be   Gb    2  Data  Hi   0x2
    1222  test4r                     0x200000c0   Gb    2  Data  Hi   0x2
    1223  endBuff1_1                 0x20000104   Gb    2  Data  Hi   0x4
    1224  endBuff3_1                 0x20000108   Gb    2  Data  Hi   0x4
    1225  endBuff2_1                 0x2000010c   Gb    2  Data  Hi   0x8
    1226  BME280_1                   0x200052e4   Gb    3  Data  Hi   0x30
    1227  recBuff_1                  0x20005314   Gb    3  Data  Hi   0x50
    1228  printBuff_1                0x20005364   Gb    3  Data  Hi   0x28
    1229  scd_1                      0x2000538c   Gb    3  Data  Hi   0x68
    1230  __libspace_start           0x200053f4   Gb    3  Data  De   0x60
    1231  __temporary_stack_top$libspace
                                    0x20005454   Gb    3  Data  De 


** Section #12 '.strtab' (SHT_STRTAB)
    Size   : 15436 bytes


** Section #13 '.note' (SHT_NOTE)
    Size   : 28 bytes (alignment 4)


** Section #14 '.comment' (SHT_PROGBITS)
    Size   : 30316 bytes


** Section #15 '.shstrtab' (SHT_STRTAB)
    Size   : 156 bytes


